
image.elf:     file format elf32-avr

Sections:
Idx Name          Size      VMA       LMA       File off  Algn
  0 .text         00002dec  00000000  00000000  00000094  2**0
                  CONTENTS, ALLOC, LOAD, READONLY, CODE
  1 .data         00000136  00800060  00002dec  00002e80  2**0
                  CONTENTS, ALLOC, LOAD, DATA
  2 .bss          0000017a  00800196  00800196  00002fb6  2**0
                  ALLOC
  3 .noinit       00000000  00800310  00800310  00002fb6  2**0
                  CONTENTS
  4 .eeprom       00000000  00810000  00810000  00002fb6  2**0
                  CONTENTS
  5 .stab         00003fa8  00000000  00000000  00002fb8  2**2
                  CONTENTS, READONLY, DEBUGGING
  6 .stabstr      00001622  00000000  00000000  00006f60  2**0
                  CONTENTS, READONLY, DEBUGGING
Disassembly of section .text:

00000000 <__vectors>:
       0:	0c 94 39 00 	jmp	0x72 <__init>
       4:	0c 94 59 00 	jmp	0xb2 <__bad_interrupt>
       8:	0c 94 59 00 	jmp	0xb2 <__bad_interrupt>
       c:	0c 94 59 00 	jmp	0xb2 <__bad_interrupt>
      10:	0c 94 59 00 	jmp	0xb2 <__bad_interrupt>
      14:	0c 94 59 00 	jmp	0xb2 <__bad_interrupt>
      18:	0c 94 59 00 	jmp	0xb2 <__bad_interrupt>
      1c:	0c 94 59 00 	jmp	0xb2 <__bad_interrupt>
      20:	0c 94 59 00 	jmp	0xb2 <__bad_interrupt>
      24:	0c 94 59 00 	jmp	0xb2 <__bad_interrupt>
      28:	0c 94 59 00 	jmp	0xb2 <__bad_interrupt>
      2c:	0c 94 59 00 	jmp	0xb2 <__bad_interrupt>
      30:	0c 94 59 00 	jmp	0xb2 <__bad_interrupt>
      34:	0c 94 59 00 	jmp	0xb2 <__bad_interrupt>
      38:	0c 94 59 00 	jmp	0xb2 <__bad_interrupt>
      3c:	0c 94 59 00 	jmp	0xb2 <__bad_interrupt>
      40:	0c 94 59 00 	jmp	0xb2 <__bad_interrupt>
      44:	0c 94 59 00 	jmp	0xb2 <__bad_interrupt>
      48:	0c 94 59 00 	jmp	0xb2 <__bad_interrupt>
      4c:	0c 94 59 00 	jmp	0xb2 <__bad_interrupt>
      50:	0c 94 59 00 	jmp	0xb2 <__bad_interrupt>
      54:	0c 94 59 00 	jmp	0xb2 <__bad_interrupt>
      58:	0c 94 59 00 	jmp	0xb2 <__bad_interrupt>
      5c:	0c 94 59 00 	jmp	0xb2 <__bad_interrupt>

00000060 <__ctors_end>:
      60:	41 70       	andi	r20, 0x01	; 1
      62:	70 6c       	ori	r23, 0xC0	; 192
      64:	69 61       	ori	r22, 0x19	; 25
      66:	63 74       	andi	r22, 0x43	; 67
      68:	69 6f       	ori	r22, 0xF9	; 249
      6a:	6e 0a       	sbc	r6, r30
      6c:	0d 00       	.word	0x000d	; ????

0000006e <__c.1521>:
      6e:	0d 0a 00 00                                         ....

00000072 <__init>:
      72:	11 24       	eor	r1, r1
      74:	1f be       	out	0x3f, r1	; 63
      76:	cf ef       	ldi	r28, 0xFF	; 255
      78:	df e0       	ldi	r29, 0x0F	; 15
      7a:	de bf       	out	0x3e, r29	; 62
      7c:	cd bf       	out	0x3d, r28	; 61

0000007e <__do_copy_data>:
      7e:	11 e0       	ldi	r17, 0x01	; 1
      80:	a0 e6       	ldi	r26, 0x60	; 96
      82:	b0 e0       	ldi	r27, 0x00	; 0
      84:	ec ee       	ldi	r30, 0xEC	; 236
      86:	fd e2       	ldi	r31, 0x2D	; 45
      88:	0f ef       	ldi	r16, 0xFF	; 255
      8a:	03 95       	inc	r16
      8c:	0b bf       	out	0x3b, r16	; 59
      8e:	04 c0       	rjmp	.+8      	; 0x98 <__do_copy_data+0x1a>
      90:	d8 95       	elpm
      92:	0d 92       	st	X+, r0
      94:	31 96       	adiw	r30, 0x01	; 1
      96:	c8 f3       	brcs	.-14     	; 0x8a <__do_copy_data+0xc>
      98:	a6 39       	cpi	r26, 0x96	; 150
      9a:	b1 07       	cpc	r27, r17
      9c:	c9 f7       	brne	.-14     	; 0x90 <__do_copy_data+0x12>

0000009e <__do_clear_bss>:
      9e:	13 e0       	ldi	r17, 0x03	; 3
      a0:	a6 e9       	ldi	r26, 0x96	; 150
      a2:	b1 e0       	ldi	r27, 0x01	; 1
      a4:	01 c0       	rjmp	.+2      	; 0xa8 <.do_clear_bss_start>

000000a6 <.do_clear_bss_loop>:
      a6:	1d 92       	st	X+, r1

000000a8 <.do_clear_bss_start>:
      a8:	a0 31       	cpi	r26, 0x10	; 16
      aa:	b1 07       	cpc	r27, r17
      ac:	e1 f7       	brne	.-8      	; 0xa6 <.do_clear_bss_loop>
      ae:	0c 94 5b 00 	jmp	0xb6 <main>

000000b2 <__bad_interrupt>:
      b2:	0c 94 00 00 	jmp	0x0 <__heap_end>

000000b6 <main>:

*/

int main (void)
{	
      b6:	cf ef       	ldi	r28, 0xFF	; 255
      b8:	df e0       	ldi	r29, 0x0F	; 15
      ba:	de bf       	out	0x3e, r29	; 62
      bc:	cd bf       	out	0x3d, r28	; 61


	
	asm volatile("ldi r28, 0xFF\n\tldi r29, 0xBF\n\tout 0x3e, r29\n\tout 0x3d, r28");
      be:	cf ef       	ldi	r28, 0xFF	; 255
      c0:	df eb       	ldi	r29, 0xBF	; 191
      c2:	de bf       	out	0x3e, r29	; 62
      c4:	cd bf       	out	0x3d, r28	; 61
	
	uint16_t i;
	uint8_t tmp;
	
	uart_putstr_P(PSTR("Appliaction\n\r"));
      c6:	80 e6       	ldi	r24, 0x60	; 96
      c8:	90 e0       	ldi	r25, 0x00	; 0
      ca:	0e 94 c0 00 	call	0x180 <uart_putstr_P>
	
	//oepn uint8_t muh[256];
	
	for(i=0;i<256;i++){
		tmp = i;
		if (tmp < 14) tmp = 14;		
		PWMTABLE[i] = tmp;
      ce:	8e e0       	ldi	r24, 0x0E	; 14
      d0:	90 e0       	ldi	r25, 0x00	; 0
      d2:	90 93 01 e4 	sts	0xE401, r25
      d6:	80 93 00 e4 	sts	0xE400, r24
      da:	21 e0       	ldi	r18, 0x01	; 1
      dc:	30 e0       	ldi	r19, 0x00	; 0
      de:	e0 e0       	ldi	r30, 0x00	; 0
      e0:	f4 ee       	ldi	r31, 0xE4	; 228
      e2:	82 2f       	mov	r24, r18
      e4:	2e 30       	cpi	r18, 0x0E	; 14
      e6:	08 f4       	brcc	.+2      	; 0xea <main+0x34>
      e8:	8e e0       	ldi	r24, 0x0E	; 14
      ea:	32 96       	adiw	r30, 0x02	; 2
      ec:	99 27       	eor	r25, r25
      ee:	91 83       	std	Z+1, r25	; 0x01
      f0:	80 83       	st	Z, r24
      f2:	2f 5f       	subi	r18, 0xFF	; 255
      f4:	3f 4f       	sbci	r19, 0xFF	; 255
      f6:	81 e0       	ldi	r24, 0x01	; 1
      f8:	20 30       	cpi	r18, 0x00	; 0
      fa:	38 07       	cpc	r19, r24
      fc:	91 f7       	brne	.-28     	; 0xe2 <main+0x2c>
	}
	
	PWMTABLE[256] = 100;
      fe:	84 e6       	ldi	r24, 0x64	; 100
     100:	90 e0       	ldi	r25, 0x00	; 0
     102:	90 93 01 e6 	sts	0xE601, r25
     106:	80 93 00 e6 	sts	0xE600, r24
	PWMTABLE[257] = 100;
     10a:	90 93 03 e6 	sts	0xE603, r25
     10e:	80 93 02 e6 	sts	0xE602, r24
	
	MAGIC = 0x23;
     112:	83 e2       	ldi	r24, 0x23	; 35
     114:	80 93 55 e7 	sts	0xE755, r24
     118:	e0 e0       	ldi	r30, 0x00	; 0
     11a:	f0 ee       	ldi	r31, 0xE0	; 224
	
	
	for(i=0;i<1024;i++){
		PIXMAP[i] = 0;
     11c:	11 92       	st	Z+, r1
     11e:	84 ee       	ldi	r24, 0xE4	; 228
     120:	e0 30       	cpi	r30, 0x00	; 0
     122:	f8 07       	cpc	r31, r24
     124:	d9 f7       	brne	.-10     	; 0x11c <main+0x66>
	}

	display_loop((void *) 0);
     126:	80 e0       	ldi	r24, 0x00	; 0
     128:	90 e0       	ldi	r25, 0x00	; 0
     12a:	0e 94 5c 16 	call	0x2cb8 <display_loop>
     12e:	0c 94 f5 16 	jmp	0x2dea <_exit>

00000132 <uart_init>:
     132:	53 9a       	sbi	0x0a, 3	; 10
     134:	54 9a       	sbi	0x0a, 4	; 10
     136:	89 e1       	ldi	r24, 0x19	; 25
     138:	89 b9       	out	0x09, r24	; 9
     13a:	08 95       	ret

0000013c <uart_putc>:

	/*
	while(1) {
		test1();
	}
	uint8_t x;
	while(1){
		
		PIXMAP[0] = x;	
		PIXMAP[1] = x;	
		PIXMAP[2] = x;	
		
		PIXMAP[128+0] = 0;	
		PIXMAP[128+1] = -x;	
		PIXMAP[128+2] = x;	
		
		PIXMAP[256+0] = x;	
		PIXMAP[256+1] = 0;	
		PIXMAP[256+2] = -x;	
		
		PIXMAP[384+0] = -x;	
		PIXMAP[384+1] = x;	
		PIXMAP[384+2] = 0;	
		
		PIXMAP[512+0] = x;	
		PIXMAP[512+1] = x;	
		PIXMAP[512+2] = x;	
		
     13c:	5d 9b       	sbis	0x0b, 5	; 11
     13e:	fe cf       	rjmp	.-4      	; 0x13c <uart_putc>
		
     140:	8c b9       	out	0x0c, r24	; 12
     142:	08 95       	ret

00000144 <uart_getc>:
		
		//PIXMAP[16+6] = -x;
		muh[x] = x;
	
		x++;
		wait();
		
	}	

	
	DDRA = 0xff;
	PORTA = 0x55;
	
	while(1);
	
*/	
}
     144:	5f 9b       	sbis	0x0b, 7	; 11
     146:	fe cf       	rjmp	.-4      	; 0x144 <uart_getc>
     148:	8c b1       	in	r24, 0x0c	; 12
     14a:	99 27       	eor	r25, r25
     14c:	87 fd       	sbrc	r24, 7
     14e:	90 95       	com	r25
     150:	08 95       	ret

00000152 <uart_getc_nb>:
     152:	f9 2f       	mov	r31, r25
     154:	e8 2f       	mov	r30, r24
     156:	5f 99       	sbic	0x0b, 7	; 11
     158:	03 c0       	rjmp	.+6      	; 0x160 <uart_getc_nb+0xe>
     15a:	80 e0       	ldi	r24, 0x00	; 0
     15c:	90 e0       	ldi	r25, 0x00	; 0
     15e:	08 95       	ret
     160:	8c b1       	in	r24, 0x0c	; 12
     162:	80 83       	st	Z, r24
     164:	81 e0       	ldi	r24, 0x01	; 1
     166:	90 e0       	ldi	r25, 0x00	; 0
     168:	08 95       	ret

0000016a <uart_putstr>:
     16a:	f9 2f       	mov	r31, r25
     16c:	e8 2f       	mov	r30, r24
     16e:	04 c0       	rjmp	.+8      	; 0x178 <uart_putstr+0xe>
     170:	5d 9b       	sbis	0x0b, 5	; 11
     172:	fe cf       	rjmp	.-4      	; 0x170 <uart_putstr+0x6>
     174:	31 96       	adiw	r30, 0x01	; 1
     176:	8c b9       	out	0x0c, r24	; 12
     178:	80 81       	ld	r24, Z
     17a:	88 23       	and	r24, r24
     17c:	c9 f7       	brne	.-14     	; 0x170 <uart_putstr+0x6>
     17e:	08 95       	ret

00000180 <uart_putstr_P>:
     180:	f9 2f       	mov	r31, r25
     182:	e8 2f       	mov	r30, r24
     184:	04 c0       	rjmp	.+8      	; 0x18e <uart_putstr_P+0xe>
     186:	5d 9b       	sbis	0x0b, 5	; 11
     188:	fe cf       	rjmp	.-4      	; 0x186 <uart_putstr_P+0x6>
     18a:	8c b9       	out	0x0c, r24	; 12
     18c:	31 96       	adiw	r30, 0x01	; 1
     18e:	c8 95       	lpm
     190:	80 2d       	mov	r24, r0
     192:	88 23       	and	r24, r24
     194:	c1 f7       	brne	.-16     	; 0x186 <uart_putstr_P+0x6>
     196:	08 95       	ret

00000198 <uart_hexdump>:
     198:	bf 92       	push	r11
     19a:	cf 92       	push	r12
     19c:	df 92       	push	r13
     19e:	ef 92       	push	r14
     1a0:	ff 92       	push	r15
     1a2:	0f 93       	push	r16
     1a4:	1f 93       	push	r17
     1a6:	cf 93       	push	r28
     1a8:	df 93       	push	r29
     1aa:	cd b7       	in	r28, 0x3d	; 61
     1ac:	de b7       	in	r29, 0x3e	; 62
     1ae:	23 97       	sbiw	r28, 0x03	; 3
     1b0:	0f b6       	in	r0, 0x3f	; 63
     1b2:	f8 94       	cli
     1b4:	de bf       	out	0x3e, r29	; 62
     1b6:	0f be       	out	0x3f, r0	; 63
     1b8:	cd bf       	out	0x3d, r28	; 61
     1ba:	e8 2e       	mov	r14, r24
     1bc:	f9 2e       	mov	r15, r25
     1be:	06 2f       	mov	r16, r22
     1c0:	17 2f       	mov	r17, r23
     1c2:	bb 24       	eor	r11, r11
     1c4:	2c c0       	rjmp	.+88     	; 0x21e <uart_hexdump+0x86>
     1c6:	cc 2e       	mov	r12, r28
     1c8:	dd 2e       	mov	r13, r29
     1ca:	08 94       	sec
     1cc:	c1 1c       	adc	r12, r1
     1ce:	d1 1c       	adc	r13, r1
     1d0:	ff 2d       	mov	r31, r15
     1d2:	ee 2d       	mov	r30, r14
     1d4:	80 81       	ld	r24, Z
     1d6:	40 e1       	ldi	r20, 0x10	; 16
     1d8:	50 e0       	ldi	r21, 0x00	; 0
     1da:	7d 2d       	mov	r23, r13
     1dc:	6c 2d       	mov	r22, r12
     1de:	99 27       	eor	r25, r25
     1e0:	87 fd       	sbrc	r24, 7
     1e2:	90 95       	com	r25
     1e4:	0e 94 77 16 	call	0x2cee <itoa>
     1e8:	8a 81       	ldd	r24, Y+2	; 0x02
     1ea:	88 23       	and	r24, r24
     1ec:	21 f4       	brne	.+8      	; 0x1f6 <uart_hexdump+0x5e>
     1ee:	5d 9b       	sbis	0x0b, 5	; 11
     1f0:	fe cf       	rjmp	.-4      	; 0x1ee <uart_hexdump+0x56>
     1f2:	80 e2       	ldi	r24, 0x20	; 32
     1f4:	8c b9       	out	0x0c, r24	; 12
     1f6:	9d 2d       	mov	r25, r13
     1f8:	8c 2d       	mov	r24, r12
     1fa:	0e 94 b5 00 	call	0x16a <uart_putstr>
     1fe:	5d 9b       	sbis	0x0b, 5	; 11
     200:	fe cf       	rjmp	.-4      	; 0x1fe <uart_hexdump+0x66>
     202:	80 e2       	ldi	r24, 0x20	; 32
     204:	8c b9       	out	0x0c, r24	; 12
     206:	b3 94       	inc	r11
     208:	f0 e1       	ldi	r31, 0x10	; 16
     20a:	bf 16       	cp	r11, r31
     20c:	29 f4       	brne	.+10     	; 0x218 <uart_hexdump+0x80>
     20e:	8e e6       	ldi	r24, 0x6E	; 110
     210:	90 e0       	ldi	r25, 0x00	; 0
     212:	0e 94 c0 00 	call	0x180 <uart_putstr_P>
     216:	bb 24       	eor	r11, r11
     218:	08 94       	sec
     21a:	e1 1c       	adc	r14, r1
     21c:	f1 1c       	adc	r15, r1
     21e:	01 50       	subi	r16, 0x01	; 1
     220:	10 40       	sbci	r17, 0x00	; 0
     222:	8f ef       	ldi	r24, 0xFF	; 255
     224:	0f 3f       	cpi	r16, 0xFF	; 255
     226:	18 07       	cpc	r17, r24
     228:	71 f6       	brne	.-100    	; 0x1c6 <uart_hexdump+0x2e>
     22a:	23 96       	adiw	r28, 0x03	; 3
     22c:	0f b6       	in	r0, 0x3f	; 63
     22e:	f8 94       	cli
     230:	de bf       	out	0x3e, r29	; 62
     232:	0f be       	out	0x3f, r0	; 63
     234:	cd bf       	out	0x3d, r28	; 61
     236:	df 91       	pop	r29
     238:	cf 91       	pop	r28
     23a:	1f 91       	pop	r17
     23c:	0f 91       	pop	r16
     23e:	ff 90       	pop	r15
     240:	ef 90       	pop	r14
     242:	df 90       	pop	r13
     244:	cf 90       	pop	r12
     246:	bf 90       	pop	r11
     248:	08 95       	ret

0000024a <wait>:
     24a:	28 2f       	mov	r18, r24
     24c:	39 2f       	mov	r19, r25
     24e:	85 e0       	ldi	r24, 0x05	; 5
     250:	83 bf       	out	0x33, r24	; 51
     252:	91 ee       	ldi	r25, 0xE1	; 225
     254:	81 e0       	ldi	r24, 0x01	; 1
     256:	07 c0       	rjmp	.+14     	; 0x266 <wait+0x1c>
     258:	92 bf       	out	0x32, r25	; 50
     25a:	06 b6       	in	r0, 0x36	; 54
     25c:	00 fe       	sbrs	r0, 0
     25e:	fd cf       	rjmp	.-6      	; 0x25a <wait+0x10>
     260:	86 bf       	out	0x36, r24	; 54
     262:	21 50       	subi	r18, 0x01	; 1
     264:	30 40       	sbci	r19, 0x00	; 0
     266:	12 16       	cp	r1, r18
     268:	13 06       	cpc	r1, r19
     26a:	b4 f3       	brlt	.-20     	; 0x258 <wait+0xe>
     26c:	08 95       	ret

0000026e <setVoxel>:
     26e:	0f 93       	push	r16
     270:	1f 93       	push	r17
     272:	cf 93       	push	r28
     274:	df 93       	push	r29
     276:	cd b7       	in	r28, 0x3d	; 61
     278:	de b7       	in	r29, 0x3e	; 62
     27a:	26 97       	sbiw	r28, 0x06	; 6
     27c:	0f b6       	in	r0, 0x3f	; 63
     27e:	f8 94       	cli
     280:	de bf       	out	0x3e, r29	; 62
     282:	0f be       	out	0x3f, r0	; 63
     284:	cd bf       	out	0x3d, r28	; 61
     286:	69 83       	std	Y+1, r22	; 0x01
     288:	7a 83       	std	Y+2, r23	; 0x02
     28a:	8b 83       	std	Y+3, r24	; 0x03
     28c:	2c 83       	std	Y+4, r18	; 0x04
     28e:	3d 83       	std	Y+5, r19	; 0x05
     290:	4e 83       	std	Y+6, r20	; 0x06
     292:	27 2f       	mov	r18, r23
     294:	36 2f       	mov	r19, r22
     296:	04 2f       	mov	r16, r20
     298:	1d 81       	ldd	r17, Y+5	; 0x05
     29a:	4c 81       	ldd	r20, Y+4	; 0x04
     29c:	65 30       	cpi	r22, 0x05	; 5
     29e:	40 f5       	brcc	.+80     	; 0x2f0 <setVoxel+0x82>
     2a0:	75 30       	cpi	r23, 0x05	; 5
     2a2:	30 f5       	brcc	.+76     	; 0x2f0 <setVoxel+0x82>
     2a4:	85 30       	cpi	r24, 0x05	; 5
     2a6:	20 f5       	brcc	.+72     	; 0x2f0 <setVoxel+0x82>
     2a8:	99 27       	eor	r25, r25
     2aa:	6b e4       	ldi	r22, 0x4B	; 75
     2ac:	70 e0       	ldi	r23, 0x00	; 0
     2ae:	0e 94 ae 16 	call	0x2d5c <__mulhi3>
     2b2:	b9 2f       	mov	r27, r25
     2b4:	a8 2f       	mov	r26, r24
     2b6:	82 2f       	mov	r24, r18
     2b8:	99 27       	eor	r25, r25
     2ba:	6f e0       	ldi	r22, 0x0F	; 15
     2bc:	70 e0       	ldi	r23, 0x00	; 0
     2be:	0e 94 ae 16 	call	0x2d5c <__mulhi3>
     2c2:	a8 0f       	add	r26, r24
     2c4:	b9 1f       	adc	r27, r25
     2c6:	83 2f       	mov	r24, r19
     2c8:	99 27       	eor	r25, r25
     2ca:	63 e0       	ldi	r22, 0x03	; 3
     2cc:	70 e0       	ldi	r23, 0x00	; 0
     2ce:	0e 94 ae 16 	call	0x2d5c <__mulhi3>
     2d2:	a8 0f       	add	r26, r24
     2d4:	b9 1f       	adc	r27, r25
     2d6:	a7 56       	subi	r26, 0x67	; 103
     2d8:	be 4f       	sbci	r27, 0xFE	; 254
     2da:	fb 2f       	mov	r31, r27
     2dc:	ea 2f       	mov	r30, r26
     2de:	41 93       	st	Z+, r20
     2e0:	8e 2f       	mov	r24, r30
     2e2:	9f 2f       	mov	r25, r31
     2e4:	fb 2f       	mov	r31, r27
     2e6:	ea 2f       	mov	r30, r26
     2e8:	11 83       	std	Z+1, r17	; 0x01
     2ea:	f9 2f       	mov	r31, r25
     2ec:	e8 2f       	mov	r30, r24
     2ee:	01 83       	std	Z+1, r16	; 0x01
     2f0:	26 96       	adiw	r28, 0x06	; 6
     2f2:	0f b6       	in	r0, 0x3f	; 63
     2f4:	f8 94       	cli
     2f6:	de bf       	out	0x3e, r29	; 62
     2f8:	0f be       	out	0x3f, r0	; 63
     2fa:	cd bf       	out	0x3d, r28	; 61
     2fc:	df 91       	pop	r29
     2fe:	cf 91       	pop	r28
     300:	1f 91       	pop	r17
     302:	0f 91       	pop	r16
     304:	08 95       	ret

00000306 <setSymetricVoxel>:
     306:	2f 92       	push	r2
     308:	3f 92       	push	r3
     30a:	4f 92       	push	r4
     30c:	5f 92       	push	r5
     30e:	6f 92       	push	r6
     310:	7f 92       	push	r7
     312:	8f 92       	push	r8
     314:	9f 92       	push	r9
     316:	af 92       	push	r10
     318:	bf 92       	push	r11
     31a:	cf 92       	push	r12
     31c:	df 92       	push	r13
     31e:	ef 92       	push	r14
     320:	ff 92       	push	r15
     322:	0f 93       	push	r16
     324:	1f 93       	push	r17
     326:	cf 93       	push	r28
     328:	df 93       	push	r29
     32a:	cd b7       	in	r28, 0x3d	; 61
     32c:	de b7       	in	r29, 0x3e	; 62
     32e:	26 97       	sbiw	r28, 0x06	; 6
     330:	0f b6       	in	r0, 0x3f	; 63
     332:	f8 94       	cli
     334:	de bf       	out	0x3e, r29	; 62
     336:	0f be       	out	0x3f, r0	; 63
     338:	cd bf       	out	0x3d, r28	; 61
     33a:	69 83       	std	Y+1, r22	; 0x01
     33c:	7a 83       	std	Y+2, r23	; 0x02
     33e:	8b 83       	std	Y+3, r24	; 0x03
     340:	2c 83       	std	Y+4, r18	; 0x04
     342:	3d 83       	std	Y+5, r19	; 0x05
     344:	4e 83       	std	Y+6, r20	; 0x06
     346:	28 2f       	mov	r18, r24
     348:	e7 2f       	mov	r30, r23
     34a:	f6 2f       	mov	r31, r22
     34c:	24 2e       	mov	r2, r20
     34e:	33 2e       	mov	r3, r19
     350:	4c 81       	ldd	r20, Y+4	; 0x04
     352:	63 30       	cpi	r22, 0x03	; 3
     354:	08 f0       	brcs	.+2      	; 0x358 <setSymetricVoxel+0x52>
     356:	c6 c0       	rjmp	.+396    	; 0x4e4 <setSymetricVoxel+0x1de>
     358:	73 30       	cpi	r23, 0x03	; 3
     35a:	08 f0       	brcs	.+2      	; 0x35e <setSymetricVoxel+0x58>
     35c:	c3 c0       	rjmp	.+390    	; 0x4e4 <setSymetricVoxel+0x1de>
     35e:	83 30       	cpi	r24, 0x03	; 3
     360:	08 f0       	brcs	.+2      	; 0x364 <setSymetricVoxel+0x5e>
     362:	c0 c0       	rjmp	.+384    	; 0x4e4 <setSymetricVoxel+0x1de>
     364:	33 27       	eor	r19, r19
     366:	93 2f       	mov	r25, r19
     368:	82 2f       	mov	r24, r18
     36a:	6b e4       	ldi	r22, 0x4B	; 75
     36c:	70 e0       	ldi	r23, 0x00	; 0
     36e:	0e 94 ae 16 	call	0x2d5c <__mulhi3>
     372:	e8 2e       	mov	r14, r24
     374:	f9 2e       	mov	r15, r25
     376:	6e 2e       	mov	r6, r30
     378:	77 24       	eor	r7, r7
     37a:	97 2d       	mov	r25, r7
     37c:	86 2d       	mov	r24, r6
     37e:	6f e0       	ldi	r22, 0x0F	; 15
     380:	70 e0       	ldi	r23, 0x00	; 0
     382:	0e 94 ae 16 	call	0x2d5c <__mulhi3>
     386:	08 2f       	mov	r16, r24
     388:	19 2f       	mov	r17, r25
     38a:	ce 2c       	mov	r12, r14
     38c:	df 2c       	mov	r13, r15
     38e:	c8 0e       	add	r12, r24
     390:	d9 1e       	adc	r13, r25
     392:	4f 2e       	mov	r4, r31
     394:	55 24       	eor	r5, r5
     396:	95 2d       	mov	r25, r5
     398:	84 2d       	mov	r24, r4
     39a:	63 e0       	ldi	r22, 0x03	; 3
     39c:	70 e0       	ldi	r23, 0x00	; 0
     39e:	0e 94 ae 16 	call	0x2d5c <__mulhi3>
     3a2:	a8 2e       	mov	r10, r24
     3a4:	b9 2e       	mov	r11, r25
     3a6:	bd 2d       	mov	r27, r13
     3a8:	ac 2d       	mov	r26, r12
     3aa:	a8 0f       	add	r26, r24
     3ac:	b9 1f       	adc	r27, r25
     3ae:	ad 5a       	subi	r26, 0xAD	; 173
     3b0:	bd 4f       	sbci	r27, 0xFD	; 253
     3b2:	fb 2f       	mov	r31, r27
     3b4:	ea 2f       	mov	r30, r26
     3b6:	41 93       	st	Z+, r20
     3b8:	8e 2f       	mov	r24, r30
     3ba:	9f 2f       	mov	r25, r31
     3bc:	fb 2f       	mov	r31, r27
     3be:	ea 2f       	mov	r30, r26
     3c0:	31 82       	std	Z+1, r3	; 0x01
     3c2:	f9 2f       	mov	r31, r25
     3c4:	e8 2f       	mov	r30, r24
     3c6:	21 82       	std	Z+1, r2	; 0x01
     3c8:	82 e0       	ldi	r24, 0x02	; 2
     3ca:	88 2e       	mov	r8, r24
     3cc:	91 2c       	mov	r9, r1
     3ce:	99 2d       	mov	r25, r9
     3d0:	88 2d       	mov	r24, r8
     3d2:	82 1b       	sub	r24, r18
     3d4:	93 0b       	sbc	r25, r19
     3d6:	6b e4       	ldi	r22, 0x4B	; 75
     3d8:	70 e0       	ldi	r23, 0x00	; 0
     3da:	0e 94 ae 16 	call	0x2d5c <__mulhi3>
     3de:	28 2f       	mov	r18, r24
     3e0:	39 2f       	mov	r19, r25
     3e2:	08 0f       	add	r16, r24
     3e4:	19 1f       	adc	r17, r25
     3e6:	b1 2f       	mov	r27, r17
     3e8:	a0 2f       	mov	r26, r16
     3ea:	aa 0d       	add	r26, r10
     3ec:	bb 1d       	adc	r27, r11
     3ee:	a3 54       	subi	r26, 0x43	; 67
     3f0:	be 4f       	sbci	r27, 0xFE	; 254
     3f2:	fb 2f       	mov	r31, r27
     3f4:	ea 2f       	mov	r30, r26
     3f6:	41 93       	st	Z+, r20
     3f8:	8e 2f       	mov	r24, r30
     3fa:	9f 2f       	mov	r25, r31
     3fc:	fb 2f       	mov	r31, r27
     3fe:	ea 2f       	mov	r30, r26
     400:	31 82       	std	Z+1, r3	; 0x01
     402:	f9 2f       	mov	r31, r25
     404:	e8 2f       	mov	r30, r24
     406:	21 82       	std	Z+1, r2	; 0x01
     408:	99 2d       	mov	r25, r9
     40a:	88 2d       	mov	r24, r8
     40c:	86 19       	sub	r24, r6
     40e:	97 09       	sbc	r25, r7
     410:	6f e0       	ldi	r22, 0x0F	; 15
     412:	70 e0       	ldi	r23, 0x00	; 0
     414:	0e 94 ae 16 	call	0x2d5c <__mulhi3>
     418:	e8 0e       	add	r14, r24
     41a:	f9 1e       	adc	r15, r25
     41c:	bf 2d       	mov	r27, r15
     41e:	ae 2d       	mov	r26, r14
     420:	aa 0d       	add	r26, r10
     422:	bb 1d       	adc	r27, r11
     424:	ab 5c       	subi	r26, 0xCB	; 203
     426:	bd 4f       	sbci	r27, 0xFD	; 253
     428:	fb 2f       	mov	r31, r27
     42a:	ea 2f       	mov	r30, r26
     42c:	41 93       	st	Z+, r20
     42e:	6e 2f       	mov	r22, r30
     430:	7f 2f       	mov	r23, r31
     432:	fb 2f       	mov	r31, r27
     434:	ea 2f       	mov	r30, r26
     436:	31 82       	std	Z+1, r3	; 0x01
     438:	f7 2f       	mov	r31, r23
     43a:	e6 2f       	mov	r30, r22
     43c:	21 82       	std	Z+1, r2	; 0x01
     43e:	28 0f       	add	r18, r24
     440:	39 1f       	adc	r19, r25
     442:	b3 2f       	mov	r27, r19
     444:	a2 2f       	mov	r26, r18
     446:	aa 0d       	add	r26, r10
     448:	bb 1d       	adc	r27, r11
     44a:	a1 56       	subi	r26, 0x61	; 97
     44c:	be 4f       	sbci	r27, 0xFE	; 254
     44e:	fb 2f       	mov	r31, r27
     450:	ea 2f       	mov	r30, r26
     452:	41 93       	st	Z+, r20
     454:	8e 2f       	mov	r24, r30
     456:	9f 2f       	mov	r25, r31
     458:	fb 2f       	mov	r31, r27
     45a:	ea 2f       	mov	r30, r26
     45c:	31 82       	std	Z+1, r3	; 0x01
     45e:	f9 2f       	mov	r31, r25
     460:	e8 2f       	mov	r30, r24
     462:	21 82       	std	Z+1, r2	; 0x01
     464:	99 2d       	mov	r25, r9
     466:	88 2d       	mov	r24, r8
     468:	84 19       	sub	r24, r4
     46a:	95 09       	sbc	r25, r5
     46c:	63 e0       	ldi	r22, 0x03	; 3
     46e:	70 e0       	ldi	r23, 0x00	; 0
     470:	0e 94 ae 16 	call	0x2d5c <__mulhi3>
     474:	c8 0e       	add	r12, r24
     476:	d9 1e       	adc	r13, r25
     478:	6d e4       	ldi	r22, 0x4D	; 77
     47a:	72 e0       	ldi	r23, 0x02	; 2
     47c:	c6 0e       	add	r12, r22
     47e:	d7 1e       	adc	r13, r23
     480:	bd 2d       	mov	r27, r13
     482:	ac 2d       	mov	r26, r12
     484:	4d 93       	st	X+, r20
     486:	fd 2d       	mov	r31, r13
     488:	ec 2d       	mov	r30, r12
     48a:	31 82       	std	Z+1, r3	; 0x01
     48c:	fb 2f       	mov	r31, r27
     48e:	ea 2f       	mov	r30, r26
     490:	21 82       	std	Z+1, r2	; 0x01
     492:	08 0f       	add	r16, r24
     494:	19 1f       	adc	r17, r25
     496:	09 54       	subi	r16, 0x49	; 73
     498:	1e 4f       	sbci	r17, 0xFE	; 254
     49a:	b1 2f       	mov	r27, r17
     49c:	a0 2f       	mov	r26, r16
     49e:	4d 93       	st	X+, r20
     4a0:	f1 2f       	mov	r31, r17
     4a2:	e0 2f       	mov	r30, r16
     4a4:	31 82       	std	Z+1, r3	; 0x01
     4a6:	fb 2f       	mov	r31, r27
     4a8:	ea 2f       	mov	r30, r26
     4aa:	21 82       	std	Z+1, r2	; 0x01
     4ac:	e8 0e       	add	r14, r24
     4ae:	f9 1e       	adc	r15, r25
     4b0:	6f e2       	ldi	r22, 0x2F	; 47
     4b2:	72 e0       	ldi	r23, 0x02	; 2
     4b4:	e6 0e       	add	r14, r22
     4b6:	f7 1e       	adc	r15, r23
     4b8:	bf 2d       	mov	r27, r15
     4ba:	ae 2d       	mov	r26, r14
     4bc:	4d 93       	st	X+, r20
     4be:	ff 2d       	mov	r31, r15
     4c0:	ee 2d       	mov	r30, r14
     4c2:	31 82       	std	Z+1, r3	; 0x01
     4c4:	fb 2f       	mov	r31, r27
     4c6:	ea 2f       	mov	r30, r26
     4c8:	21 82       	std	Z+1, r2	; 0x01
     4ca:	28 0f       	add	r18, r24
     4cc:	39 1f       	adc	r19, r25
     4ce:	27 56       	subi	r18, 0x67	; 103
     4d0:	3e 4f       	sbci	r19, 0xFE	; 254
     4d2:	b3 2f       	mov	r27, r19
     4d4:	a2 2f       	mov	r26, r18
     4d6:	4d 93       	st	X+, r20
     4d8:	f3 2f       	mov	r31, r19
     4da:	e2 2f       	mov	r30, r18
     4dc:	31 82       	std	Z+1, r3	; 0x01
     4de:	fb 2f       	mov	r31, r27
     4e0:	ea 2f       	mov	r30, r26
     4e2:	21 82       	std	Z+1, r2	; 0x01
     4e4:	26 96       	adiw	r28, 0x06	; 6
     4e6:	0f b6       	in	r0, 0x3f	; 63
     4e8:	f8 94       	cli
     4ea:	de bf       	out	0x3e, r29	; 62
     4ec:	0f be       	out	0x3f, r0	; 63
     4ee:	cd bf       	out	0x3d, r28	; 61
     4f0:	df 91       	pop	r29
     4f2:	cf 91       	pop	r28
     4f4:	1f 91       	pop	r17
     4f6:	0f 91       	pop	r16
     4f8:	ff 90       	pop	r15
     4fa:	ef 90       	pop	r14
     4fc:	df 90       	pop	r13
     4fe:	cf 90       	pop	r12
     500:	bf 90       	pop	r11
     502:	af 90       	pop	r10
     504:	9f 90       	pop	r9
     506:	8f 90       	pop	r8
     508:	7f 90       	pop	r7
     50a:	6f 90       	pop	r6
     50c:	5f 90       	pop	r5
     50e:	4f 90       	pop	r4
     510:	3f 90       	pop	r3
     512:	2f 90       	pop	r2
     514:	08 95       	ret

00000516 <isVoxelSet>:
     516:	0f 93       	push	r16
     518:	1f 93       	push	r17
     51a:	cf 93       	push	r28
     51c:	df 93       	push	r29
     51e:	cd b7       	in	r28, 0x3d	; 61
     520:	de b7       	in	r29, 0x3e	; 62
     522:	23 97       	sbiw	r28, 0x03	; 3
     524:	0f b6       	in	r0, 0x3f	; 63
     526:	f8 94       	cli
     528:	de bf       	out	0x3e, r29	; 62
     52a:	0f be       	out	0x3f, r0	; 63
     52c:	cd bf       	out	0x3d, r28	; 61
     52e:	69 83       	std	Y+1, r22	; 0x01
     530:	7a 83       	std	Y+2, r23	; 0x02
     532:	8b 83       	std	Y+3, r24	; 0x03
     534:	38 2f       	mov	r19, r24
     536:	27 2f       	mov	r18, r23
     538:	86 2f       	mov	r24, r22
     53a:	65 30       	cpi	r22, 0x05	; 5
     53c:	f0 f5       	brcc	.+124    	; 0x5ba <isVoxelSet+0xa4>
     53e:	75 30       	cpi	r23, 0x05	; 5
     540:	e0 f5       	brcc	.+120    	; 0x5ba <isVoxelSet+0xa4>
     542:	35 30       	cpi	r19, 0x05	; 5
     544:	d0 f5       	brcc	.+116    	; 0x5ba <isVoxelSet+0xa4>
     546:	99 27       	eor	r25, r25
     548:	63 e0       	ldi	r22, 0x03	; 3
     54a:	70 e0       	ldi	r23, 0x00	; 0
     54c:	0e 94 ae 16 	call	0x2d5c <__mulhi3>
     550:	08 2f       	mov	r16, r24
     552:	19 2f       	mov	r17, r25
     554:	82 2f       	mov	r24, r18
     556:	99 27       	eor	r25, r25
     558:	6f e0       	ldi	r22, 0x0F	; 15
     55a:	70 e0       	ldi	r23, 0x00	; 0
     55c:	0e 94 ae 16 	call	0x2d5c <__mulhi3>
     560:	b9 2f       	mov	r27, r25
     562:	a8 2f       	mov	r26, r24
     564:	f1 2f       	mov	r31, r17
     566:	e0 2f       	mov	r30, r16
     568:	e8 0f       	add	r30, r24
     56a:	f9 1f       	adc	r31, r25
     56c:	83 2f       	mov	r24, r19
     56e:	99 27       	eor	r25, r25
     570:	6b e4       	ldi	r22, 0x4B	; 75
     572:	70 e0       	ldi	r23, 0x00	; 0
     574:	0e 94 ae 16 	call	0x2d5c <__mulhi3>
     578:	28 2f       	mov	r18, r24
     57a:	39 2f       	mov	r19, r25
     57c:	e8 0f       	add	r30, r24
     57e:	f9 1f       	adc	r31, r25
     580:	e7 56       	subi	r30, 0x67	; 103
     582:	fe 4f       	sbci	r31, 0xFE	; 254
     584:	80 81       	ld	r24, Z
     586:	88 23       	and	r24, r24
     588:	a9 f4       	brne	.+42     	; 0x5b4 <isVoxelSet+0x9e>
     58a:	f1 2f       	mov	r31, r17
     58c:	e0 2f       	mov	r30, r16
     58e:	e2 0f       	add	r30, r18
     590:	f3 1f       	adc	r31, r19
     592:	ea 0f       	add	r30, r26
     594:	fb 1f       	adc	r31, r27
     596:	e7 56       	subi	r30, 0x67	; 103
     598:	fe 4f       	sbci	r31, 0xFE	; 254
     59a:	81 81       	ldd	r24, Z+1	; 0x01
     59c:	88 23       	and	r24, r24
     59e:	51 f4       	brne	.+20     	; 0x5b4 <isVoxelSet+0x9e>
     5a0:	20 e0       	ldi	r18, 0x00	; 0
     5a2:	30 e0       	ldi	r19, 0x00	; 0
     5a4:	82 81       	ldd	r24, Z+2	; 0x02
     5a6:	88 23       	and	r24, r24
     5a8:	11 f0       	breq	.+4      	; 0x5ae <isVoxelSet+0x98>
     5aa:	21 e0       	ldi	r18, 0x01	; 1
     5ac:	30 e0       	ldi	r19, 0x00	; 0
     5ae:	93 2f       	mov	r25, r19
     5b0:	82 2f       	mov	r24, r18
     5b2:	05 c0       	rjmp	.+10     	; 0x5be <isVoxelSet+0xa8>
     5b4:	81 e0       	ldi	r24, 0x01	; 1
     5b6:	90 e0       	ldi	r25, 0x00	; 0
     5b8:	02 c0       	rjmp	.+4      	; 0x5be <isVoxelSet+0xa8>
     5ba:	82 e0       	ldi	r24, 0x02	; 2
     5bc:	90 e0       	ldi	r25, 0x00	; 0
     5be:	23 96       	adiw	r28, 0x03	; 3
     5c0:	0f b6       	in	r0, 0x3f	; 63
     5c2:	f8 94       	cli
     5c4:	de bf       	out	0x3e, r29	; 62
     5c6:	0f be       	out	0x3f, r0	; 63
     5c8:	cd bf       	out	0x3d, r28	; 61
     5ca:	df 91       	pop	r29
     5cc:	cf 91       	pop	r28
     5ce:	1f 91       	pop	r17
     5d0:	0f 91       	pop	r16
     5d2:	08 95       	ret

000005d4 <getNextVoxel>:
     5d4:	0f 93       	push	r16
     5d6:	1f 93       	push	r17
     5d8:	cf 93       	push	r28
     5da:	df 93       	push	r29
     5dc:	cd b7       	in	r28, 0x3d	; 61
     5de:	de b7       	in	r29, 0x3e	; 62
     5e0:	26 97       	sbiw	r28, 0x06	; 6
     5e2:	0f b6       	in	r0, 0x3f	; 63
     5e4:	f8 94       	cli
     5e6:	de bf       	out	0x3e, r29	; 62
     5e8:	0f be       	out	0x3f, r0	; 63
     5ea:	cd bf       	out	0x3d, r28	; 61
     5ec:	00 e0       	ldi	r16, 0x00	; 0
     5ee:	10 e0       	ldi	r17, 0x00	; 0
     5f0:	20 e0       	ldi	r18, 0x00	; 0
     5f2:	30 e0       	ldi	r19, 0x00	; 0
     5f4:	6c 83       	std	Y+4, r22	; 0x04
     5f6:	7d 83       	std	Y+5, r23	; 0x05
     5f8:	8e 83       	std	Y+6, r24	; 0x06
     5fa:	56 2f       	mov	r21, r22
     5fc:	97 2f       	mov	r25, r23
     5fe:	43 30       	cpi	r20, 0x03	; 3
     600:	b1 f0       	breq	.+44     	; 0x62e <getNextVoxel+0x5a>
     602:	44 30       	cpi	r20, 0x04	; 4
     604:	28 f4       	brcc	.+10     	; 0x610 <getNextVoxel+0x3c>
     606:	41 30       	cpi	r20, 0x01	; 1
     608:	51 f0       	breq	.+20     	; 0x61e <getNextVoxel+0x4a>
     60a:	42 30       	cpi	r20, 0x02	; 2
     60c:	99 f4       	brne	.+38     	; 0x634 <getNextVoxel+0x60>
     60e:	09 c0       	rjmp	.+18     	; 0x622 <getNextVoxel+0x4e>
     610:	45 30       	cpi	r20, 0x05	; 5
     612:	59 f0       	breq	.+22     	; 0x62a <getNextVoxel+0x56>
     614:	45 30       	cpi	r20, 0x05	; 5
     616:	68 f0       	brcs	.+26     	; 0x632 <getNextVoxel+0x5e>
     618:	46 30       	cpi	r20, 0x06	; 6
     61a:	61 f4       	brne	.+24     	; 0x634 <getNextVoxel+0x60>
     61c:	04 c0       	rjmp	.+8      	; 0x626 <getNextVoxel+0x52>
     61e:	8f 5f       	subi	r24, 0xFF	; 255
     620:	09 c0       	rjmp	.+18     	; 0x634 <getNextVoxel+0x60>
     622:	81 50       	subi	r24, 0x01	; 1
     624:	07 c0       	rjmp	.+14     	; 0x634 <getNextVoxel+0x60>
     626:	9f 5f       	subi	r25, 0xFF	; 255
     628:	05 c0       	rjmp	.+10     	; 0x634 <getNextVoxel+0x60>
     62a:	91 50       	subi	r25, 0x01	; 1
     62c:	03 c0       	rjmp	.+6      	; 0x634 <getNextVoxel+0x60>
     62e:	5f 5f       	subi	r21, 0xFF	; 255
     630:	01 c0       	rjmp	.+2      	; 0x634 <getNextVoxel+0x60>
     632:	51 50       	subi	r21, 0x01	; 1
     634:	05 2f       	mov	r16, r21
     636:	19 2f       	mov	r17, r25
     638:	28 2f       	mov	r18, r24
     63a:	93 2f       	mov	r25, r19
     63c:	82 2f       	mov	r24, r18
     63e:	71 2f       	mov	r23, r17
     640:	60 2f       	mov	r22, r16
     642:	26 96       	adiw	r28, 0x06	; 6
     644:	0f b6       	in	r0, 0x3f	; 63
     646:	f8 94       	cli
     648:	de bf       	out	0x3e, r29	; 62
     64a:	0f be       	out	0x3f, r0	; 63
     64c:	cd bf       	out	0x3d, r28	; 61
     64e:	df 91       	pop	r29
     650:	cf 91       	pop	r28
     652:	1f 91       	pop	r17
     654:	0f 91       	pop	r16
     656:	08 95       	ret

00000658 <direction_r>:
     658:	83 30       	cpi	r24, 0x03	; 3
     65a:	99 f0       	breq	.+38     	; 0x682 <direction_r+0x2a>
     65c:	84 30       	cpi	r24, 0x04	; 4
     65e:	28 f4       	brcc	.+10     	; 0x66a <direction_r+0x12>
     660:	81 30       	cpi	r24, 0x01	; 1
     662:	c1 f0       	breq	.+48     	; 0x694 <direction_r+0x3c>
     664:	82 30       	cpi	r24, 0x02	; 2
     666:	c9 f4       	brne	.+50     	; 0x69a <direction_r+0x42>
     668:	0f c0       	rjmp	.+30     	; 0x688 <direction_r+0x30>
     66a:	85 30       	cpi	r24, 0x05	; 5
     66c:	39 f0       	breq	.+14     	; 0x67c <direction_r+0x24>
     66e:	85 30       	cpi	r24, 0x05	; 5
     670:	70 f0       	brcs	.+28     	; 0x68e <direction_r+0x36>
     672:	86 30       	cpi	r24, 0x06	; 6
     674:	91 f4       	brne	.+36     	; 0x69a <direction_r+0x42>
     676:	82 e0       	ldi	r24, 0x02	; 2
     678:	90 e0       	ldi	r25, 0x00	; 0
     67a:	08 95       	ret
     67c:	83 e0       	ldi	r24, 0x03	; 3
     67e:	90 e0       	ldi	r25, 0x00	; 0
     680:	08 95       	ret
     682:	86 e0       	ldi	r24, 0x06	; 6
     684:	90 e0       	ldi	r25, 0x00	; 0
     686:	08 95       	ret
     688:	84 e0       	ldi	r24, 0x04	; 4
     68a:	90 e0       	ldi	r25, 0x00	; 0
     68c:	08 95       	ret
     68e:	81 e0       	ldi	r24, 0x01	; 1
     690:	90 e0       	ldi	r25, 0x00	; 0
     692:	08 95       	ret
     694:	85 e0       	ldi	r24, 0x05	; 5
     696:	90 e0       	ldi	r25, 0x00	; 0
     698:	08 95       	ret
     69a:	99 27       	eor	r25, r25
     69c:	08 95       	ret

0000069e <clearScreen>:
     69e:	ef 92       	push	r14
     6a0:	ff 92       	push	r15
     6a2:	0f 93       	push	r16
     6a4:	1f 93       	push	r17
     6a6:	cf 93       	push	r28
     6a8:	df 93       	push	r29
     6aa:	cd b7       	in	r28, 0x3d	; 61
     6ac:	de b7       	in	r29, 0x3e	; 62
     6ae:	23 97       	sbiw	r28, 0x03	; 3
     6b0:	0f b6       	in	r0, 0x3f	; 63
     6b2:	f8 94       	cli
     6b4:	de bf       	out	0x3e, r29	; 62
     6b6:	0f be       	out	0x3f, r0	; 63
     6b8:	cd bf       	out	0x3d, r28	; 61
     6ba:	69 83       	std	Y+1, r22	; 0x01
     6bc:	7a 83       	std	Y+2, r23	; 0x02
     6be:	8b 83       	std	Y+3, r24	; 0x03
     6c0:	08 2f       	mov	r16, r24
     6c2:	17 2f       	mov	r17, r23
     6c4:	76 2f       	mov	r23, r22
     6c6:	49 e9       	ldi	r20, 0x99	; 153
     6c8:	51 e0       	ldi	r21, 0x01	; 1
     6ca:	20 e0       	ldi	r18, 0x00	; 0
     6cc:	30 e0       	ldi	r19, 0x00	; 0
     6ce:	80 e0       	ldi	r24, 0x00	; 0
     6d0:	90 e0       	ldi	r25, 0x00	; 0
     6d2:	b9 2f       	mov	r27, r25
     6d4:	a8 2f       	mov	r26, r24
     6d6:	a0 50       	subi	r26, 0x00	; 0
     6d8:	b0 42       	sbci	r27, 0x20	; 32
     6da:	e4 2e       	mov	r14, r20
     6dc:	f5 2e       	mov	r15, r21
     6de:	60 e0       	ldi	r22, 0x00	; 0
     6e0:	7c 93       	st	X, r23
     6e2:	ff 2d       	mov	r31, r15
     6e4:	ee 2d       	mov	r30, r14
     6e6:	70 83       	st	Z, r23
     6e8:	fb 2f       	mov	r31, r27
     6ea:	ea 2f       	mov	r30, r26
     6ec:	11 83       	std	Z+1, r17	; 0x01
     6ee:	ff 2d       	mov	r31, r15
     6f0:	ee 2d       	mov	r30, r14
     6f2:	11 83       	std	Z+1, r17	; 0x01
     6f4:	fb 2f       	mov	r31, r27
     6f6:	ea 2f       	mov	r30, r26
     6f8:	02 83       	std	Z+2, r16	; 0x02
     6fa:	13 96       	adiw	r26, 0x03	; 3
     6fc:	ff 2d       	mov	r31, r15
     6fe:	ee 2d       	mov	r30, r14
     700:	02 83       	std	Z+2, r16	; 0x02
     702:	e3 e0       	ldi	r30, 0x03	; 3
     704:	f0 e0       	ldi	r31, 0x00	; 0
     706:	ee 0e       	add	r14, r30
     708:	ff 1e       	adc	r15, r31
     70a:	6f 5f       	subi	r22, 0xFF	; 255
     70c:	69 31       	cpi	r22, 0x19	; 25
     70e:	41 f7       	brne	.-48     	; 0x6e0 <clearScreen+0x42>
     710:	45 5b       	subi	r20, 0xB5	; 181
     712:	5f 4f       	sbci	r21, 0xFF	; 255
     714:	2f 5f       	subi	r18, 0xFF	; 255
     716:	3f 4f       	sbci	r19, 0xFF	; 255
     718:	80 58       	subi	r24, 0x80	; 128
     71a:	9f 4f       	sbci	r25, 0xFF	; 255
     71c:	25 30       	cpi	r18, 0x05	; 5
     71e:	31 05       	cpc	r19, r1
     720:	c1 f6       	brne	.-80     	; 0x6d2 <clearScreen+0x34>
     722:	23 96       	adiw	r28, 0x03	; 3
     724:	0f b6       	in	r0, 0x3f	; 63
     726:	f8 94       	cli
     728:	de bf       	out	0x3e, r29	; 62
     72a:	0f be       	out	0x3f, r0	; 63
     72c:	cd bf       	out	0x3d, r28	; 61
     72e:	df 91       	pop	r29
     730:	cf 91       	pop	r28
     732:	1f 91       	pop	r17
     734:	0f 91       	pop	r16
     736:	ff 90       	pop	r15
     738:	ef 90       	pop	r14
     73a:	08 95       	ret

0000073c <clearImage>:
     73c:	cf 93       	push	r28
     73e:	df 93       	push	r29
     740:	cd b7       	in	r28, 0x3d	; 61
     742:	de b7       	in	r29, 0x3e	; 62
     744:	23 97       	sbiw	r28, 0x03	; 3
     746:	0f b6       	in	r0, 0x3f	; 63
     748:	f8 94       	cli
     74a:	de bf       	out	0x3e, r29	; 62
     74c:	0f be       	out	0x3f, r0	; 63
     74e:	cd bf       	out	0x3d, r28	; 61
     750:	69 83       	std	Y+1, r22	; 0x01
     752:	7a 83       	std	Y+2, r23	; 0x02
     754:	8b 83       	std	Y+3, r24	; 0x03
     756:	28 2f       	mov	r18, r24
     758:	97 2f       	mov	r25, r23
     75a:	86 2f       	mov	r24, r22
     75c:	e9 e9       	ldi	r30, 0x99	; 153
     75e:	f1 e0       	ldi	r31, 0x01	; 1
     760:	80 83       	st	Z, r24
     762:	91 83       	std	Z+1, r25	; 0x01
     764:	22 83       	std	Z+2, r18	; 0x02
     766:	33 96       	adiw	r30, 0x03	; 3
     768:	33 e0       	ldi	r19, 0x03	; 3
     76a:	e0 31       	cpi	r30, 0x10	; 16
     76c:	f3 07       	cpc	r31, r19
     76e:	c1 f7       	brne	.-16     	; 0x760 <clearImage+0x24>
     770:	23 96       	adiw	r28, 0x03	; 3
     772:	0f b6       	in	r0, 0x3f	; 63
     774:	f8 94       	cli
     776:	de bf       	out	0x3e, r29	; 62
     778:	0f be       	out	0x3f, r0	; 63
     77a:	cd bf       	out	0x3d, r28	; 61
     77c:	df 91       	pop	r29
     77e:	cf 91       	pop	r28
     780:	08 95       	ret

00000782 <easyRandom>:
     782:	60 91 6c 00 	lds	r22, 0x006C
     786:	70 91 6d 00 	lds	r23, 0x006D
     78a:	e0 e0       	ldi	r30, 0x00	; 0
     78c:	46 2f       	mov	r20, r22
     78e:	57 2f       	mov	r21, r23
     790:	44 0f       	add	r20, r20
     792:	55 1f       	adc	r21, r21
     794:	97 2f       	mov	r25, r23
     796:	86 2f       	mov	r24, r22
     798:	96 95       	lsr	r25
     79a:	87 95       	ror	r24
     79c:	81 70       	andi	r24, 0x01	; 1
     79e:	90 70       	andi	r25, 0x00	; 0
     7a0:	48 27       	eor	r20, r24
     7a2:	59 27       	eor	r21, r25
     7a4:	97 2f       	mov	r25, r23
     7a6:	86 2f       	mov	r24, r22
     7a8:	89 2f       	mov	r24, r25
     7aa:	99 27       	eor	r25, r25
     7ac:	82 95       	swap	r24
     7ae:	86 95       	lsr	r24
     7b0:	87 70       	andi	r24, 0x07	; 7
     7b2:	81 70       	andi	r24, 0x01	; 1
     7b4:	90 70       	andi	r25, 0x00	; 0
     7b6:	48 27       	eor	r20, r24
     7b8:	59 27       	eor	r21, r25
     7ba:	26 2f       	mov	r18, r22
     7bc:	37 2f       	mov	r19, r23
     7be:	23 2f       	mov	r18, r19
     7c0:	33 27       	eor	r19, r19
     7c2:	26 95       	lsr	r18
     7c4:	87 2f       	mov	r24, r23
     7c6:	99 27       	eor	r25, r25
     7c8:	82 27       	eor	r24, r18
     7ca:	93 27       	eor	r25, r19
     7cc:	81 70       	andi	r24, 0x01	; 1
     7ce:	90 70       	andi	r25, 0x00	; 0
     7d0:	67 2f       	mov	r22, r23
     7d2:	77 27       	eor	r23, r23
     7d4:	67 fd       	sbrc	r22, 7
     7d6:	70 95       	com	r23
     7d8:	66 27       	eor	r22, r22
     7da:	77 0f       	add	r23, r23
     7dc:	66 1f       	adc	r22, r22
     7de:	77 27       	eor	r23, r23
     7e0:	68 27       	eor	r22, r24
     7e2:	79 27       	eor	r23, r25
     7e4:	64 27       	eor	r22, r20
     7e6:	75 27       	eor	r23, r21
     7e8:	ef 5f       	subi	r30, 0xFF	; 255
     7ea:	e8 30       	cpi	r30, 0x08	; 8
     7ec:	79 f6       	brne	.-98     	; 0x78c <easyRandom+0xa>
     7ee:	70 93 6d 00 	sts	0x006D, r23
     7f2:	60 93 6c 00 	sts	0x006C, r22
     7f6:	86 2f       	mov	r24, r22
     7f8:	99 27       	eor	r25, r25
     7fa:	08 95       	ret

000007fc <shift>:
     7fc:	81 30       	cpi	r24, 0x01	; 1
     7fe:	19 f5       	brne	.+70     	; 0x846 <shift+0x4a>
     800:	24 e0       	ldi	r18, 0x04	; 4
     802:	30 e0       	ldi	r19, 0x00	; 0
     804:	82 2f       	mov	r24, r18
     806:	99 27       	eor	r25, r25
     808:	6b e4       	ldi	r22, 0x4B	; 75
     80a:	70 e0       	ldi	r23, 0x00	; 0
     80c:	0e 94 ae 16 	call	0x2d5c <__mulhi3>
     810:	b9 2f       	mov	r27, r25
     812:	a8 2f       	mov	r26, r24
     814:	a7 56       	subi	r26, 0x67	; 103
     816:	be 4f       	sbci	r27, 0xFE	; 254
     818:	f9 2f       	mov	r31, r25
     81a:	e8 2f       	mov	r30, r24
     81c:	ec 51       	subi	r30, 0x1C	; 28
     81e:	fe 4f       	sbci	r31, 0xFE	; 254
     820:	90 e0       	ldi	r25, 0x00	; 0
     822:	8d 91       	ld	r24, X+
     824:	81 93       	st	Z+, r24
     826:	9f 5f       	subi	r25, 0xFF	; 255
     828:	9b 34       	cpi	r25, 0x4B	; 75
     82a:	d9 f7       	brne	.-10     	; 0x822 <shift+0x26>
     82c:	21 50       	subi	r18, 0x01	; 1
     82e:	30 40       	sbci	r19, 0x00	; 0
     830:	8f ef       	ldi	r24, 0xFF	; 255
     832:	2f 3f       	cpi	r18, 0xFF	; 255
     834:	38 07       	cpc	r19, r24
     836:	31 f7       	brne	.-52     	; 0x804 <shift+0x8>
     838:	e9 e9       	ldi	r30, 0x99	; 153
     83a:	f1 e0       	ldi	r31, 0x01	; 1
     83c:	11 92       	st	Z+, r1
     83e:	81 e0       	ldi	r24, 0x01	; 1
     840:	e4 3e       	cpi	r30, 0xE4	; 228
     842:	f8 07       	cpc	r31, r24
     844:	d9 f7       	brne	.-10     	; 0x83c <shift+0x40>
     846:	08 95       	ret

00000848 <drawLine3D>:
     848:	3f 92       	push	r3
     84a:	4f 92       	push	r4
     84c:	5f 92       	push	r5
     84e:	6f 92       	push	r6
     850:	7f 92       	push	r7
     852:	8f 92       	push	r8
     854:	9f 92       	push	r9
     856:	af 92       	push	r10
     858:	bf 92       	push	r11
     85a:	cf 92       	push	r12
     85c:	df 92       	push	r13
     85e:	ef 92       	push	r14
     860:	ff 92       	push	r15
     862:	0f 93       	push	r16
     864:	1f 93       	push	r17
     866:	cf 93       	push	r28
     868:	df 93       	push	r29
     86a:	cd b7       	in	r28, 0x3d	; 61
     86c:	de b7       	in	r29, 0x3e	; 62
     86e:	2f 97       	sbiw	r28, 0x0f	; 15
     870:	0f b6       	in	r0, 0x3f	; 63
     872:	f8 94       	cli
     874:	de bf       	out	0x3e, r29	; 62
     876:	0f be       	out	0x3f, r0	; 63
     878:	cd bf       	out	0x3d, r28	; 61
     87a:	ad 86       	std	Y+13, r10	; 0x0d
     87c:	be 86       	std	Y+14, r11	; 0x0e
     87e:	cf 86       	std	Y+15, r12	; 0x0f
     880:	28 1b       	sub	r18, r24
     882:	06 1b       	sub	r16, r22
     884:	e4 1a       	sub	r14, r20
     886:	27 fd       	sbrc	r18, 7
     888:	03 c0       	rjmp	.+6      	; 0x890 <drawLine3D+0x48>
     88a:	91 e0       	ldi	r25, 0x01	; 1
     88c:	39 2e       	mov	r3, r25
     88e:	02 c0       	rjmp	.+4      	; 0x894 <drawLine3D+0x4c>
     890:	1f ef       	ldi	r17, 0xFF	; 255
     892:	31 2e       	mov	r3, r17
     894:	33 27       	eor	r19, r19
     896:	27 fd       	sbrc	r18, 7
     898:	30 95       	com	r19
     89a:	37 ff       	sbrs	r19, 7
     89c:	03 c0       	rjmp	.+6      	; 0x8a4 <drawLine3D+0x5c>
     89e:	30 95       	com	r19
     8a0:	21 95       	neg	r18
     8a2:	3f 4f       	sbci	r19, 0xFF	; 255
     8a4:	12 2f       	mov	r17, r18
     8a6:	07 fd       	sbrc	r16, 7
     8a8:	03 c0       	rjmp	.+6      	; 0x8b0 <drawLine3D+0x68>
     8aa:	b1 e0       	ldi	r27, 0x01	; 1
     8ac:	4b 2e       	mov	r4, r27
     8ae:	02 c0       	rjmp	.+4      	; 0x8b4 <drawLine3D+0x6c>
     8b0:	af ef       	ldi	r26, 0xFF	; 255
     8b2:	4a 2e       	mov	r4, r26
     8b4:	20 2f       	mov	r18, r16
     8b6:	33 27       	eor	r19, r19
     8b8:	27 fd       	sbrc	r18, 7
     8ba:	30 95       	com	r19
     8bc:	37 ff       	sbrs	r19, 7
     8be:	03 c0       	rjmp	.+6      	; 0x8c6 <drawLine3D+0x7e>
     8c0:	30 95       	com	r19
     8c2:	21 95       	neg	r18
     8c4:	3f 4f       	sbci	r19, 0xFF	; 255
     8c6:	02 2f       	mov	r16, r18
     8c8:	e7 fc       	sbrc	r14, 7
     8ca:	03 c0       	rjmp	.+6      	; 0x8d2 <drawLine3D+0x8a>
     8cc:	f1 e0       	ldi	r31, 0x01	; 1
     8ce:	5f 2e       	mov	r5, r31
     8d0:	02 c0       	rjmp	.+4      	; 0x8d6 <drawLine3D+0x8e>
     8d2:	ef ef       	ldi	r30, 0xFF	; 255
     8d4:	5e 2e       	mov	r5, r30
     8d6:	2e 2d       	mov	r18, r14
     8d8:	33 27       	eor	r19, r19
     8da:	27 fd       	sbrc	r18, 7
     8dc:	30 95       	com	r19
     8de:	37 ff       	sbrs	r19, 7
     8e0:	03 c0       	rjmp	.+6      	; 0x8e8 <drawLine3D+0xa0>
     8e2:	30 95       	com	r19
     8e4:	21 95       	neg	r18
     8e6:	3f 4f       	sbci	r19, 0xFF	; 255
     8e8:	e2 2e       	mov	r14, r18
     8ea:	71 2e       	mov	r7, r17
     8ec:	77 0c       	add	r7, r7
     8ee:	e0 2f       	mov	r30, r16
     8f0:	ff 27       	eor	r31, r31
     8f2:	e7 fd       	sbrc	r30, 7
     8f4:	f0 95       	com	r31
     8f6:	ee 0f       	add	r30, r30
     8f8:	ff 1f       	adc	r31, r31
     8fa:	de 2e       	mov	r13, r30
     8fc:	33 27       	eor	r19, r19
     8fe:	27 fd       	sbrc	r18, 7
     900:	30 95       	com	r19
     902:	22 0f       	add	r18, r18
     904:	33 1f       	adc	r19, r19
     906:	f2 2e       	mov	r15, r18
     908:	10 17       	cp	r17, r16
     90a:	54 f1       	brlt	.+84     	; 0x960 <drawLine3D+0x118>
     90c:	1e 15       	cp	r17, r14
     90e:	44 f1       	brlt	.+80     	; 0x960 <drawLine3D+0x118>
     910:	6e 2e       	mov	r6, r30
     912:	ee 2e       	mov	r14, r30
     914:	e1 1a       	sub	r14, r17
     916:	d2 2e       	mov	r13, r18
     918:	02 2f       	mov	r16, r18
     91a:	01 1b       	sub	r16, r17
     91c:	a8 2e       	mov	r10, r24
     91e:	b6 2e       	mov	r11, r22
     920:	c4 2e       	mov	r12, r20
     922:	88 24       	eor	r8, r8
     924:	99 24       	eor	r9, r9
     926:	19 c0       	rjmp	.+50     	; 0x95a <drawLine3D+0x112>
     928:	aa 86       	std	Y+10, r10	; 0x0a
     92a:	bb 86       	std	Y+11, r11	; 0x0b
     92c:	cc 86       	std	Y+12, r12	; 0x0c
     92e:	2d 85       	ldd	r18, Y+13	; 0x0d
     930:	3e 85       	ldd	r19, Y+14	; 0x0e
     932:	4f 85       	ldd	r20, Y+15	; 0x0f
     934:	6a 2d       	mov	r22, r10
     936:	7b 2d       	mov	r23, r11
     938:	8c 2d       	mov	r24, r12
     93a:	0e 94 37 01 	call	0x26e <setVoxel>
     93e:	1e 14       	cp	r1, r14
     940:	14 f4       	brge	.+4      	; 0x946 <drawLine3D+0xfe>
     942:	b4 0c       	add	r11, r4
     944:	e7 18       	sub	r14, r7
     946:	10 16       	cp	r1, r16
     948:	14 f4       	brge	.+4      	; 0x94e <drawLine3D+0x106>
     94a:	c5 0c       	add	r12, r5
     94c:	07 19       	sub	r16, r7
     94e:	e6 0c       	add	r14, r6
     950:	0d 0d       	add	r16, r13
     952:	a3 0c       	add	r10, r3
     954:	08 94       	sec
     956:	81 1c       	adc	r8, r1
     958:	91 1c       	adc	r9, r1
     95a:	81 16       	cp	r8, r17
     95c:	2c f3       	brlt	.-54     	; 0x928 <drawLine3D+0xe0>
     95e:	4f c0       	rjmp	.+158    	; 0x9fe <drawLine3D+0x1b6>
     960:	01 17       	cp	r16, r17
     962:	44 f1       	brlt	.+80     	; 0x9b4 <drawLine3D+0x16c>
     964:	0e 15       	cp	r16, r14
     966:	34 f1       	brlt	.+76     	; 0x9b4 <drawLine3D+0x16c>
     968:	17 2d       	mov	r17, r7
     96a:	10 1b       	sub	r17, r16
     96c:	ef 2c       	mov	r14, r15
     96e:	e0 1a       	sub	r14, r16
     970:	a8 2e       	mov	r10, r24
     972:	b6 2e       	mov	r11, r22
     974:	c4 2e       	mov	r12, r20
     976:	88 24       	eor	r8, r8
     978:	99 24       	eor	r9, r9
     97a:	19 c0       	rjmp	.+50     	; 0x9ae <drawLine3D+0x166>
     97c:	af 82       	std	Y+7, r10	; 0x07
     97e:	b8 86       	std	Y+8, r11	; 0x08
     980:	c9 86       	std	Y+9, r12	; 0x09
     982:	2d 85       	ldd	r18, Y+13	; 0x0d
     984:	3e 85       	ldd	r19, Y+14	; 0x0e
     986:	4f 85       	ldd	r20, Y+15	; 0x0f
     988:	6a 2d       	mov	r22, r10
     98a:	7b 2d       	mov	r23, r11
     98c:	8c 2d       	mov	r24, r12
     98e:	0e 94 37 01 	call	0x26e <setVoxel>
     992:	11 16       	cp	r1, r17
     994:	14 f4       	brge	.+4      	; 0x99a <drawLine3D+0x152>
     996:	a3 0c       	add	r10, r3
     998:	1d 19       	sub	r17, r13
     99a:	1e 14       	cp	r1, r14
     99c:	14 f4       	brge	.+4      	; 0x9a2 <drawLine3D+0x15a>
     99e:	c5 0c       	add	r12, r5
     9a0:	ed 18       	sub	r14, r13
     9a2:	17 0d       	add	r17, r7
     9a4:	ef 0c       	add	r14, r15
     9a6:	b4 0c       	add	r11, r4
     9a8:	08 94       	sec
     9aa:	81 1c       	adc	r8, r1
     9ac:	91 1c       	adc	r9, r1
     9ae:	80 16       	cp	r8, r16
     9b0:	2c f3       	brlt	.-54     	; 0x97c <drawLine3D+0x134>
     9b2:	25 c0       	rjmp	.+74     	; 0x9fe <drawLine3D+0x1b6>
     9b4:	1d 2d       	mov	r17, r13
     9b6:	1e 19       	sub	r17, r14
     9b8:	07 2d       	mov	r16, r7
     9ba:	0e 19       	sub	r16, r14
     9bc:	a8 2e       	mov	r10, r24
     9be:	b6 2e       	mov	r11, r22
     9c0:	c4 2e       	mov	r12, r20
     9c2:	88 24       	eor	r8, r8
     9c4:	99 24       	eor	r9, r9
     9c6:	19 c0       	rjmp	.+50     	; 0x9fa <drawLine3D+0x1b2>
     9c8:	ac 82       	std	Y+4, r10	; 0x04
     9ca:	bd 82       	std	Y+5, r11	; 0x05
     9cc:	ce 82       	std	Y+6, r12	; 0x06
     9ce:	2d 85       	ldd	r18, Y+13	; 0x0d
     9d0:	3e 85       	ldd	r19, Y+14	; 0x0e
     9d2:	4f 85       	ldd	r20, Y+15	; 0x0f
     9d4:	6a 2d       	mov	r22, r10
     9d6:	7b 2d       	mov	r23, r11
     9d8:	8c 2d       	mov	r24, r12
     9da:	0e 94 37 01 	call	0x26e <setVoxel>
     9de:	11 16       	cp	r1, r17
     9e0:	14 f4       	brge	.+4      	; 0x9e6 <drawLine3D+0x19e>
     9e2:	b4 0c       	add	r11, r4
     9e4:	1f 19       	sub	r17, r15
     9e6:	10 16       	cp	r1, r16
     9e8:	14 f4       	brge	.+4      	; 0x9ee <drawLine3D+0x1a6>
     9ea:	a3 0c       	add	r10, r3
     9ec:	0f 19       	sub	r16, r15
     9ee:	1d 0d       	add	r17, r13
     9f0:	07 0d       	add	r16, r7
     9f2:	c5 0c       	add	r12, r5
     9f4:	08 94       	sec
     9f6:	81 1c       	adc	r8, r1
     9f8:	91 1c       	adc	r9, r1
     9fa:	8e 14       	cp	r8, r14
     9fc:	2c f3       	brlt	.-54     	; 0x9c8 <drawLine3D+0x180>
     9fe:	a9 82       	std	Y+1, r10	; 0x01
     a00:	ba 82       	std	Y+2, r11	; 0x02
     a02:	cb 82       	std	Y+3, r12	; 0x03
     a04:	2d 85       	ldd	r18, Y+13	; 0x0d
     a06:	3e 85       	ldd	r19, Y+14	; 0x0e
     a08:	4f 85       	ldd	r20, Y+15	; 0x0f
     a0a:	6a 2d       	mov	r22, r10
     a0c:	7b 2d       	mov	r23, r11
     a0e:	8c 2d       	mov	r24, r12
     a10:	0e 94 37 01 	call	0x26e <setVoxel>
     a14:	2f 96       	adiw	r28, 0x0f	; 15
     a16:	0f b6       	in	r0, 0x3f	; 63
     a18:	f8 94       	cli
     a1a:	de bf       	out	0x3e, r29	; 62
     a1c:	0f be       	out	0x3f, r0	; 63
     a1e:	cd bf       	out	0x3d, r28	; 61
     a20:	df 91       	pop	r29
     a22:	cf 91       	pop	r28
     a24:	1f 91       	pop	r17
     a26:	0f 91       	pop	r16
     a28:	ff 90       	pop	r15
     a2a:	ef 90       	pop	r14
     a2c:	df 90       	pop	r13
     a2e:	cf 90       	pop	r12
     a30:	bf 90       	pop	r11
     a32:	af 90       	pop	r10
     a34:	9f 90       	pop	r9
     a36:	8f 90       	pop	r8
     a38:	7f 90       	pop	r7
     a3a:	6f 90       	pop	r6
     a3c:	5f 90       	pop	r5
     a3e:	4f 90       	pop	r4
     a40:	3f 90       	pop	r3
     a42:	08 95       	ret

00000a44 <swapAndWait>:
     a44:	cf 93       	push	r28
     a46:	df 93       	push	r29
     a48:	98 2f       	mov	r25, r24
     a4a:	c9 e9       	ldi	r28, 0x99	; 153
     a4c:	d1 e0       	ldi	r29, 0x01	; 1
     a4e:	60 e0       	ldi	r22, 0x00	; 0
     a50:	70 e0       	ldi	r23, 0x00	; 0
     a52:	40 e0       	ldi	r20, 0x00	; 0
     a54:	50 e0       	ldi	r21, 0x00	; 0
     a56:	b5 2f       	mov	r27, r21
     a58:	a4 2f       	mov	r26, r20
     a5a:	a0 50       	subi	r26, 0x00	; 0
     a5c:	b0 42       	sbci	r27, 0x20	; 32
     a5e:	fd 2f       	mov	r31, r29
     a60:	ec 2f       	mov	r30, r28
     a62:	20 e0       	ldi	r18, 0x00	; 0
     a64:	81 91       	ld	r24, Z+
     a66:	8d 93       	st	X+, r24
     a68:	2f 5f       	subi	r18, 0xFF	; 255
     a6a:	2b 34       	cpi	r18, 0x4B	; 75
     a6c:	d9 f7       	brne	.-10     	; 0xa64 <swapAndWait+0x20>
     a6e:	c5 5b       	subi	r28, 0xB5	; 181
     a70:	df 4f       	sbci	r29, 0xFF	; 255
     a72:	6f 5f       	subi	r22, 0xFF	; 255
     a74:	7f 4f       	sbci	r23, 0xFF	; 255
     a76:	40 58       	subi	r20, 0x80	; 128
     a78:	5f 4f       	sbci	r21, 0xFF	; 255
     a7a:	65 30       	cpi	r22, 0x05	; 5
     a7c:	71 05       	cpc	r23, r1
     a7e:	59 f7       	brne	.-42     	; 0xa56 <swapAndWait+0x12>
     a80:	89 2f       	mov	r24, r25
     a82:	99 27       	eor	r25, r25
     a84:	0e 94 25 01 	call	0x24a <wait>
     a88:	df 91       	pop	r29
     a8a:	cf 91       	pop	r28
     a8c:	08 95       	ret

00000a8e <fade>:
     a8e:	2f 92       	push	r2
     a90:	3f 92       	push	r3
     a92:	4f 92       	push	r4
     a94:	5f 92       	push	r5
     a96:	6f 92       	push	r6
     a98:	7f 92       	push	r7
     a9a:	8f 92       	push	r8
     a9c:	9f 92       	push	r9
     a9e:	af 92       	push	r10
     aa0:	bf 92       	push	r11
     aa2:	cf 92       	push	r12
     aa4:	df 92       	push	r13
     aa6:	ef 92       	push	r14
     aa8:	ff 92       	push	r15
     aaa:	0f 93       	push	r16
     aac:	1f 93       	push	r17
     aae:	cf 93       	push	r28
     ab0:	df 93       	push	r29
     ab2:	cd b7       	in	r28, 0x3d	; 61
     ab4:	de b7       	in	r29, 0x3e	; 62
     ab6:	c0 5e       	subi	r28, 0xE0	; 224
     ab8:	d5 40       	sbci	r29, 0x05	; 5
     aba:	0f b6       	in	r0, 0x3f	; 63
     abc:	f8 94       	cli
     abe:	de bf       	out	0x3e, r29	; 62
     ac0:	0f be       	out	0x3f, r0	; 63
     ac2:	cd bf       	out	0x3d, r28	; 61
     ac4:	c3 52       	subi	r28, 0x23	; 35
     ac6:	da 4f       	sbci	r29, 0xFA	; 250
     ac8:	88 83       	st	Y, r24
     aca:	cd 5d       	subi	r28, 0xDD	; 221
     acc:	d5 40       	sbci	r29, 0x05	; 5
     ace:	c2 52       	subi	r28, 0x22	; 34
     ad0:	da 4f       	sbci	r29, 0xFA	; 250
     ad2:	68 83       	st	Y, r22
     ad4:	ce 5d       	subi	r28, 0xDE	; 222
     ad6:	d5 40       	sbci	r29, 0x05	; 5
     ad8:	f9 e9       	ldi	r31, 0x99	; 153
     ada:	2f 2e       	mov	r2, r31
     adc:	f1 e0       	ldi	r31, 0x01	; 1
     ade:	3f 2e       	mov	r3, r31
     ae0:	4c 2e       	mov	r4, r28
     ae2:	5d 2e       	mov	r5, r29
     ae4:	08 94       	sec
     ae6:	41 1c       	adc	r4, r1
     ae8:	51 1c       	adc	r5, r1
     aea:	ef ee       	ldi	r30, 0xEF	; 239
     aec:	6e 2e       	mov	r6, r30
     aee:	e2 e0       	ldi	r30, 0x02	; 2
     af0:	7e 2e       	mov	r7, r30
     af2:	6c 0e       	add	r6, r28
     af4:	7d 1e       	adc	r7, r29
     af6:	88 24       	eor	r8, r8
     af8:	99 24       	eor	r9, r9
     afa:	86 2f       	mov	r24, r22
     afc:	99 27       	eor	r25, r25
     afe:	c1 52       	subi	r28, 0x21	; 33
     b00:	da 4f       	sbci	r29, 0xFA	; 250
     b02:	99 83       	std	Y+1, r25	; 0x01
     b04:	88 83       	st	Y, r24
     b06:	cf 5d       	subi	r28, 0xDF	; 223
     b08:	d5 40       	sbci	r29, 0x05	; 5
     b0a:	aa 24       	eor	r10, r10
     b0c:	bb 24       	eor	r11, r11
     b0e:	c1 2c       	mov	r12, r1
     b10:	70 ee       	ldi	r23, 0xE0	; 224
     b12:	d7 2e       	mov	r13, r23
     b14:	ca 0c       	add	r12, r10
     b16:	db 1c       	adc	r13, r11
     b18:	f5 2c       	mov	r15, r5
     b1a:	e4 2c       	mov	r14, r4
     b1c:	17 2d       	mov	r17, r7
     b1e:	06 2d       	mov	r16, r6
     b20:	f3 2d       	mov	r31, r3
     b22:	e2 2d       	mov	r30, r2
     b24:	40 e0       	ldi	r20, 0x00	; 0
     b26:	bd 2d       	mov	r27, r13
     b28:	ac 2d       	mov	r26, r12
     b2a:	2d 91       	ld	r18, X+
     b2c:	ca 2e       	mov	r12, r26
     b2e:	db 2e       	mov	r13, r27
     b30:	33 27       	eor	r19, r19
     b32:	36 95       	lsr	r19
     b34:	32 2f       	mov	r19, r18
     b36:	22 27       	eor	r18, r18
     b38:	37 95       	ror	r19
     b3a:	27 95       	ror	r18
     b3c:	b1 2f       	mov	r27, r17
     b3e:	a0 2f       	mov	r26, r16
     b40:	2d 93       	st	X+, r18
     b42:	3d 93       	st	X+, r19
     b44:	0a 2f       	mov	r16, r26
     b46:	1b 2f       	mov	r17, r27
     b48:	81 91       	ld	r24, Z+
     b4a:	99 27       	eor	r25, r25
     b4c:	96 95       	lsr	r25
     b4e:	98 2f       	mov	r25, r24
     b50:	88 27       	eor	r24, r24
     b52:	97 95       	ror	r25
     b54:	87 95       	ror	r24
     b56:	82 1b       	sub	r24, r18
     b58:	93 0b       	sbc	r25, r19
     b5a:	c1 52       	subi	r28, 0x21	; 33
     b5c:	da 4f       	sbci	r29, 0xFA	; 250
     b5e:	68 81       	ld	r22, Y
     b60:	79 81       	ldd	r23, Y+1	; 0x01
     b62:	cf 5d       	subi	r28, 0xDF	; 223
     b64:	d5 40       	sbci	r29, 0x05	; 5
     b66:	0e 94 cc 16 	call	0x2d98 <__divmodhi4>
     b6a:	bf 2d       	mov	r27, r15
     b6c:	ae 2d       	mov	r26, r14
     b6e:	6d 93       	st	X+, r22
     b70:	7d 93       	st	X+, r23
     b72:	ea 2e       	mov	r14, r26
     b74:	fb 2e       	mov	r15, r27
     b76:	4f 5f       	subi	r20, 0xFF	; 255
     b78:	4b 34       	cpi	r20, 0x4B	; 75
     b7a:	a9 f6       	brne	.-86     	; 0xb26 <fade+0x98>
     b7c:	86 e9       	ldi	r24, 0x96	; 150
     b7e:	90 e0       	ldi	r25, 0x00	; 0
     b80:	68 0e       	add	r6, r24
     b82:	79 1e       	adc	r7, r25
     b84:	ab e4       	ldi	r26, 0x4B	; 75
     b86:	b0 e0       	ldi	r27, 0x00	; 0
     b88:	2a 0e       	add	r2, r26
     b8a:	3b 1e       	adc	r3, r27
     b8c:	48 0e       	add	r4, r24
     b8e:	59 1e       	adc	r5, r25
     b90:	08 94       	sec
     b92:	81 1c       	adc	r8, r1
     b94:	91 1c       	adc	r9, r1
     b96:	80 e8       	ldi	r24, 0x80	; 128
     b98:	90 e0       	ldi	r25, 0x00	; 0
     b9a:	a8 0e       	add	r10, r24
     b9c:	b9 1e       	adc	r11, r25
     b9e:	95 e0       	ldi	r25, 0x05	; 5
     ba0:	89 16       	cp	r8, r25
     ba2:	91 04       	cpc	r9, r1
     ba4:	09 f0       	breq	.+2      	; 0xba8 <fade+0x11a>
     ba6:	b3 cf       	rjmp	.-154    	; 0xb0e <fade+0x80>
     ba8:	88 24       	eor	r8, r8
     baa:	99 24       	eor	r9, r9
     bac:	4b c0       	rjmp	.+150    	; 0xc44 <fade+0x1b6>
     bae:	6c 2f       	mov	r22, r28
     bb0:	7d 2f       	mov	r23, r29
     bb2:	6f 5f       	subi	r22, 0xFF	; 255
     bb4:	7f 4f       	sbci	r23, 0xFF	; 255
     bb6:	4c 2f       	mov	r20, r28
     bb8:	5d 2f       	mov	r21, r29
     bba:	41 51       	subi	r20, 0x11	; 17
     bbc:	5d 4f       	sbci	r21, 0xFD	; 253
     bbe:	cc 24       	eor	r12, r12
     bc0:	dd 24       	eor	r13, r13
     bc2:	ee 24       	eor	r14, r14
     bc4:	ff 24       	eor	r15, r15
     bc6:	1f 2d       	mov	r17, r15
     bc8:	0e 2d       	mov	r16, r14
     bca:	00 50       	subi	r16, 0x00	; 0
     bcc:	10 42       	sbci	r17, 0x20	; 32
     bce:	66 2e       	mov	r6, r22
     bd0:	77 2e       	mov	r7, r23
     bd2:	f5 2f       	mov	r31, r21
     bd4:	e4 2f       	mov	r30, r20
     bd6:	bb 24       	eor	r11, r11
     bd8:	80 81       	ld	r24, Z
     bda:	91 81       	ldd	r25, Z+1	; 0x01
     bdc:	b7 2d       	mov	r27, r7
     bde:	a6 2d       	mov	r26, r6
     be0:	2d 91       	ld	r18, X+
     be2:	3d 91       	ld	r19, X+
     be4:	6a 2e       	mov	r6, r26
     be6:	7b 2e       	mov	r7, r27
     be8:	82 0f       	add	r24, r18
     bea:	93 1f       	adc	r25, r19
     bec:	81 93       	st	Z+, r24
     bee:	91 93       	st	Z+, r25
     bf0:	80 5c       	subi	r24, 0xC0	; 192
     bf2:	9f 4f       	sbci	r25, 0xFF	; 255
     bf4:	88 0f       	add	r24, r24
     bf6:	89 2f       	mov	r24, r25
     bf8:	88 1f       	adc	r24, r24
     bfa:	99 0b       	sbc	r25, r25
     bfc:	b1 2f       	mov	r27, r17
     bfe:	a0 2f       	mov	r26, r16
     c00:	8d 93       	st	X+, r24
     c02:	0a 2f       	mov	r16, r26
     c04:	1b 2f       	mov	r17, r27
     c06:	b3 94       	inc	r11
     c08:	bb e4       	ldi	r27, 0x4B	; 75
     c0a:	bb 16       	cp	r11, r27
     c0c:	29 f7       	brne	.-54     	; 0xbd8 <fade+0x14a>
     c0e:	4a 56       	subi	r20, 0x6A	; 106
     c10:	5f 4f       	sbci	r21, 0xFF	; 255
     c12:	6a 56       	subi	r22, 0x6A	; 106
     c14:	7f 4f       	sbci	r23, 0xFF	; 255
     c16:	08 94       	sec
     c18:	c1 1c       	adc	r12, r1
     c1a:	d1 1c       	adc	r13, r1
     c1c:	80 e8       	ldi	r24, 0x80	; 128
     c1e:	90 e0       	ldi	r25, 0x00	; 0
     c20:	e8 0e       	add	r14, r24
     c22:	f9 1e       	adc	r15, r25
     c24:	95 e0       	ldi	r25, 0x05	; 5
     c26:	c9 16       	cp	r12, r25
     c28:	d1 04       	cpc	r13, r1
     c2a:	69 f6       	brne	.-102    	; 0xbc6 <fade+0x138>
     c2c:	c3 52       	subi	r28, 0x23	; 35
     c2e:	da 4f       	sbci	r29, 0xFA	; 250
     c30:	a8 81       	ld	r26, Y
     c32:	cd 5d       	subi	r28, 0xDD	; 221
     c34:	d5 40       	sbci	r29, 0x05	; 5
     c36:	8a 2f       	mov	r24, r26
     c38:	99 27       	eor	r25, r25
     c3a:	0e 94 25 01 	call	0x24a <wait>
     c3e:	08 94       	sec
     c40:	81 1c       	adc	r8, r1
     c42:	91 1c       	adc	r9, r1
     c44:	c2 52       	subi	r28, 0x22	; 34
     c46:	da 4f       	sbci	r29, 0xFA	; 250
     c48:	b8 81       	ld	r27, Y
     c4a:	ce 5d       	subi	r28, 0xDE	; 222
     c4c:	d5 40       	sbci	r29, 0x05	; 5
     c4e:	8b 2f       	mov	r24, r27
     c50:	99 27       	eor	r25, r25
     c52:	88 16       	cp	r8, r24
     c54:	99 06       	cpc	r9, r25
     c56:	09 f0       	breq	.+2      	; 0xc5a <fade+0x1cc>
     c58:	aa cf       	rjmp	.-172    	; 0xbae <fade+0x120>
     c5a:	c3 52       	subi	r28, 0x23	; 35
     c5c:	da 4f       	sbci	r29, 0xFA	; 250
     c5e:	88 81       	ld	r24, Y
     c60:	cd 5d       	subi	r28, 0xDD	; 221
     c62:	d5 40       	sbci	r29, 0x05	; 5
     c64:	0e 94 22 05 	call	0xa44 <swapAndWait>
     c68:	c0 52       	subi	r28, 0x20	; 32
     c6a:	da 4f       	sbci	r29, 0xFA	; 250
     c6c:	0f b6       	in	r0, 0x3f	; 63
     c6e:	f8 94       	cli
     c70:	de bf       	out	0x3e, r29	; 62
     c72:	0f be       	out	0x3f, r0	; 63
     c74:	cd bf       	out	0x3d, r28	; 61
     c76:	df 91       	pop	r29
     c78:	cf 91       	pop	r28
     c7a:	1f 91       	pop	r17
     c7c:	0f 91       	pop	r16
     c7e:	ff 90       	pop	r15
     c80:	ef 90       	pop	r14
     c82:	df 90       	pop	r13
     c84:	cf 90       	pop	r12
     c86:	bf 90       	pop	r11
     c88:	af 90       	pop	r10
     c8a:	9f 90       	pop	r9
     c8c:	8f 90       	pop	r8
     c8e:	7f 90       	pop	r7
     c90:	6f 90       	pop	r6
     c92:	5f 90       	pop	r5
     c94:	4f 90       	pop	r4
     c96:	3f 90       	pop	r3
     c98:	2f 90       	pop	r2
     c9a:	08 95       	ret

00000c9c <drawCube>:
	fade(10, 30);
	swapAndWait(1000);
}

static void drawCube(voxel pos, unsigned char color) {
     c9c:	2f 92       	push	r2
     c9e:	3f 92       	push	r3
     ca0:	4f 92       	push	r4
     ca2:	5f 92       	push	r5
     ca4:	6f 92       	push	r6
     ca6:	7f 92       	push	r7
     ca8:	8f 92       	push	r8
     caa:	9f 92       	push	r9
     cac:	af 92       	push	r10
     cae:	bf 92       	push	r11
     cb0:	cf 92       	push	r12
     cb2:	df 92       	push	r13
     cb4:	ef 92       	push	r14
     cb6:	ff 92       	push	r15
     cb8:	0f 93       	push	r16
     cba:	1f 93       	push	r17
     cbc:	cf 93       	push	r28
     cbe:	df 93       	push	r29
     cc0:	cd b7       	in	r28, 0x3d	; 61
     cc2:	de b7       	in	r29, 0x3e	; 62
     cc4:	23 97       	sbiw	r28, 0x03	; 3
     cc6:	0f b6       	in	r0, 0x3f	; 63
     cc8:	f8 94       	cli
     cca:	de bf       	out	0x3e, r29	; 62
     ccc:	0f be       	out	0x3f, r0	; 63
     cce:	cd bf       	out	0x3d, r28	; 61
     cd0:	c4 2e       	mov	r12, r20
	imag[pos.x][pos.y][pos.z][color]     = 255;
     cd2:	26 2f       	mov	r18, r22
     cd4:	33 27       	eor	r19, r19
     cd6:	87 2e       	mov	r8, r23
     cd8:	99 24       	eor	r9, r9
     cda:	48 2e       	mov	r4, r24
     cdc:	55 24       	eor	r5, r5
     cde:	dd 24       	eor	r13, r13
     ce0:	89 e9       	ldi	r24, 0x99	; 153
     ce2:	a8 2e       	mov	r10, r24
     ce4:	81 e0       	ldi	r24, 0x01	; 1
     ce6:	b8 2e       	mov	r11, r24
     ce8:	99 2d       	mov	r25, r9
     cea:	88 2d       	mov	r24, r8
     cec:	6f e0       	ldi	r22, 0x0F	; 15
     cee:	70 e0       	ldi	r23, 0x00	; 0
     cf0:	0e 94 ae 16 	call	0x2d5c <__mulhi3>
     cf4:	08 2f       	mov	r16, r24
     cf6:	19 2f       	mov	r17, r25
     cf8:	95 2d       	mov	r25, r5
     cfa:	84 2d       	mov	r24, r4
     cfc:	63 e0       	ldi	r22, 0x03	; 3
     cfe:	70 e0       	ldi	r23, 0x00	; 0
     d00:	0e 94 ae 16 	call	0x2d5c <__mulhi3>
     d04:	28 2e       	mov	r2, r24
     d06:	39 2e       	mov	r3, r25
     d08:	b1 2f       	mov	r27, r17
     d0a:	a0 2f       	mov	r26, r16
     d0c:	a8 0f       	add	r26, r24
     d0e:	b9 1f       	adc	r27, r25
     d10:	93 2f       	mov	r25, r19
     d12:	82 2f       	mov	r24, r18
     d14:	6b e4       	ldi	r22, 0x4B	; 75
     d16:	70 e0       	ldi	r23, 0x00	; 0
     d18:	0e 94 ae 16 	call	0x2d5c <__mulhi3>
     d1c:	e8 2e       	mov	r14, r24
     d1e:	f9 2e       	mov	r15, r25
     d20:	fb 2f       	mov	r31, r27
     d22:	ea 2f       	mov	r30, r26
     d24:	e8 0f       	add	r30, r24
     d26:	f9 1f       	adc	r31, r25
     d28:	ea 0d       	add	r30, r10
     d2a:	fb 1d       	adc	r31, r11
     d2c:	ec 0d       	add	r30, r12
     d2e:	fd 1d       	adc	r31, r13
     d30:	4f ef       	ldi	r20, 0xFF	; 255
     d32:	40 83       	st	Z, r20
	imag[pos.x+1][pos.y][pos.z][color]   = 255;
     d34:	93 2f       	mov	r25, r19
     d36:	82 2f       	mov	r24, r18
     d38:	01 96       	adiw	r24, 0x01	; 1
     d3a:	6b e4       	ldi	r22, 0x4B	; 75
     d3c:	70 e0       	ldi	r23, 0x00	; 0
     d3e:	0e 94 ae 16 	call	0x2d5c <__mulhi3>
     d42:	68 2e       	mov	r6, r24
     d44:	79 2e       	mov	r7, r25
     d46:	a8 0f       	add	r26, r24
     d48:	b9 1f       	adc	r27, r25
     d4a:	aa 0d       	add	r26, r10
     d4c:	bb 1d       	adc	r27, r11
     d4e:	ac 0d       	add	r26, r12
     d50:	bd 1d       	adc	r27, r13
     d52:	4c 93       	st	X, r20
	imag[pos.x][pos.y+1][pos.z][color]   = 255;
     d54:	99 2d       	mov	r25, r9
     d56:	88 2d       	mov	r24, r8
     d58:	01 96       	adiw	r24, 0x01	; 1
     d5a:	6f e0       	ldi	r22, 0x0F	; 15
     d5c:	70 e0       	ldi	r23, 0x00	; 0
     d5e:	0e 94 ae 16 	call	0x2d5c <__mulhi3>
     d62:	28 2f       	mov	r18, r24
     d64:	39 2f       	mov	r19, r25
     d66:	b9 2f       	mov	r27, r25
     d68:	a8 2f       	mov	r26, r24
     d6a:	a2 0d       	add	r26, r2
     d6c:	b3 1d       	adc	r27, r3
     d6e:	fb 2f       	mov	r31, r27
     d70:	ea 2f       	mov	r30, r26
     d72:	ee 0d       	add	r30, r14
     d74:	ff 1d       	adc	r31, r15
     d76:	ea 0d       	add	r30, r10
     d78:	fb 1d       	adc	r31, r11
     d7a:	ec 0d       	add	r30, r12
     d7c:	fd 1d       	adc	r31, r13
     d7e:	40 83       	st	Z, r20
	imag[pos.x+1][pos.y+1][pos.z][color] = 255;
     d80:	a6 0d       	add	r26, r6
     d82:	b7 1d       	adc	r27, r7
     d84:	aa 0d       	add	r26, r10
     d86:	bb 1d       	adc	r27, r11
     d88:	ac 0d       	add	r26, r12
     d8a:	bd 1d       	adc	r27, r13
     d8c:	4c 93       	st	X, r20
	imag[pos.x][pos.y][pos.z+1][color]     = 255;
     d8e:	95 2d       	mov	r25, r5
     d90:	84 2d       	mov	r24, r4
     d92:	01 96       	adiw	r24, 0x01	; 1
     d94:	63 e0       	ldi	r22, 0x03	; 3
     d96:	70 e0       	ldi	r23, 0x00	; 0
     d98:	0e 94 ae 16 	call	0x2d5c <__mulhi3>
     d9c:	08 0f       	add	r16, r24
     d9e:	19 1f       	adc	r17, r25
     da0:	f1 2f       	mov	r31, r17
     da2:	e0 2f       	mov	r30, r16
     da4:	ee 0d       	add	r30, r14
     da6:	ff 1d       	adc	r31, r15
     da8:	ea 0d       	add	r30, r10
     daa:	fb 1d       	adc	r31, r11
     dac:	ec 0d       	add	r30, r12
     dae:	fd 1d       	adc	r31, r13
     db0:	40 83       	st	Z, r20
	imag[pos.x+1][pos.y][pos.z+1][color]   = 255;
     db2:	06 0d       	add	r16, r6
     db4:	17 1d       	adc	r17, r7
     db6:	0a 0d       	add	r16, r10
     db8:	1b 1d       	adc	r17, r11
     dba:	0c 0d       	add	r16, r12
     dbc:	1d 1d       	adc	r17, r13
     dbe:	f1 2f       	mov	r31, r17
     dc0:	e0 2f       	mov	r30, r16
     dc2:	40 83       	st	Z, r20
	imag[pos.x][pos.y+1][pos.z+1][color]   = 255;
     dc4:	28 0f       	add	r18, r24
     dc6:	39 1f       	adc	r19, r25
     dc8:	e2 0e       	add	r14, r18
     dca:	f3 1e       	adc	r15, r19
     dcc:	ea 0c       	add	r14, r10
     dce:	fb 1c       	adc	r15, r11
     dd0:	ec 0c       	add	r14, r12
     dd2:	fd 1c       	adc	r15, r13
     dd4:	ff 2d       	mov	r31, r15
     dd6:	ee 2d       	mov	r30, r14
     dd8:	40 83       	st	Z, r20
	imag[pos.x+1][pos.y+1][pos.z+1][color] = 255;
     dda:	26 0d       	add	r18, r6
     ddc:	37 1d       	adc	r19, r7
     dde:	2a 0d       	add	r18, r10
     de0:	3b 1d       	adc	r19, r11
     de2:	2c 0d       	add	r18, r12
     de4:	3d 1d       	adc	r19, r13
     de6:	f3 2f       	mov	r31, r19
     de8:	e2 2f       	mov	r30, r18
     dea:	40 83       	st	Z, r20
     dec:	23 96       	adiw	r28, 0x03	; 3
     dee:	0f b6       	in	r0, 0x3f	; 63
     df0:	f8 94       	cli
     df2:	de bf       	out	0x3e, r29	; 62
     df4:	0f be       	out	0x3f, r0	; 63
     df6:	cd bf       	out	0x3d, r28	; 61
     df8:	df 91       	pop	r29
     dfa:	cf 91       	pop	r28
     dfc:	1f 91       	pop	r17
     dfe:	0f 91       	pop	r16
     e00:	ff 90       	pop	r15
     e02:	ef 90       	pop	r14
     e04:	df 90       	pop	r13
     e06:	cf 90       	pop	r12
     e08:	bf 90       	pop	r11
     e0a:	af 90       	pop	r10
     e0c:	9f 90       	pop	r9
     e0e:	8f 90       	pop	r8
     e10:	7f 90       	pop	r7
     e12:	6f 90       	pop	r6
     e14:	5f 90       	pop	r5
     e16:	4f 90       	pop	r4
     e18:	3f 90       	pop	r3
     e1a:	2f 90       	pop	r2
     e1c:	08 95       	ret

00000e1e <glowingBobbles>:
}
 
/* ^
 * | 4   6 7 0 1 2
 * | 3   5   |>  3
 * y 2   4   +   4
 * | 1   3  <|   5
 * | 0   2 1 0 7 6
 * | 
 * |     0 1 2 3 4
 * +-------- x ------->
 */
static void drawLineZAngle(unsigned char angle, unsigned char z, color value) {
	// could be optimised in programcode
	unsigned char x1[8] = {2, 1, 0, 0, 0, 0, 0, 1};
	unsigned char y1[8] = {0, 0, 0, 1, 2, 3, 4, 4};
	unsigned char x2[8] = {2, 3, 4, 4, 4, 4, 4, 3};
	unsigned char y2[8] = {4, 4, 4, 3, 2, 1, 0, 0};
	angle &= 0x07;
	drawLine3D(x1[angle], y1[angle], z, x2[angle], y2[angle], z, value);	
}


void spirale() {
	unsigned char z, angle, count = 0, i = 0, index, value, angleAdd;
	signed short help; 
	color colors[5] = {{150,   0, 250},
					   { 50, 150, 180},
					   { 50, 220,  80},
					   {250, 150, 180},
					   {  0,   0,   0}
					  };
	color curColor;
	for (angleAdd = 0; angleAdd < 12; count++) {
		// Farbwerte interpolieren
		index = i / 16; // (12*5)/4 = 15
		value = i % 16;
		help  = colors[index+1].r; 
		help -= colors[index].r;
		help *= value;
		help /= 16;
		curColor.r = help + colors[index].r;
		help  = colors[index+1].g; 
		help -= colors[index].g;
		help *= value;
		help /= 16;
		curColor.g = help + colors[index].g;
		help  = colors[index+1].b; 
		help -= colors[index].b;
		help *= value;
		help /= 16;
		curColor.b = help + colors[index].b;
		//printf("%d %d %d  %d %d \n", curColor.r, curColor.g, curColor.b, index, value);
		for (angle = 0; angle < 8; angle++) {
			for (z = 0; z < 5; z++) {
				drawLineZAngle((angle+(angleAdd*z/4)) & 0x07, z, curColor);		
			}
			swapAndWait(30);
			clearScreen(black);
			
			if (count > 5) { 
				angleAdd++;
				count = 0;
			}
		}
		i++;
	}
	
	clearImage(black);
	fade(10, 30);
	swapAndWait(1000);
}

/*
static void drawPlane(uns) {
	
}
*/

void planeBall() {
	unsigned char x;
	clearScreen(black);
	// draw a red plane
	for (x = 0; x < 5; x++) {
		drawLine3D(x, 0, 1, 
		           x, 4, 1, red);
	}
	fade(5, 10);
	swapAndWait(5000);
	setVoxel((voxel) {2, 2, 5}, green);
	swapAndWait(100);
	setVoxel((voxel) {2, 2, 5}, black);
	setVoxel((voxel) {2, 2, 4}, green);
	swapAndWait(100);
	setVoxel((voxel) {2, 2, 4}, black);
	setVoxel((voxel) {2, 2, 3}, green);
	swapAndWait(100);
	setVoxel((voxel) {2, 2, 3}, black);
	setVoxel((voxel) {2, 2, 2}, green);
	swapAndWait(100);
	setVoxel((voxel) {2, 2, 2}, black);
	setVoxel((voxel) {2, 2, 3}, green);
	swapAndWait(100);
	setVoxel((voxel) {2, 2, 3}, black);
	setVoxel((voxel) {2, 2, 2}, green);
	swapAndWait(1000);
	clearImage(black);
	
	for (x = 0; x < 5; x++) {
		drawLine3D(x, 0, 0, 
		           x, 4, 2, red);
	}
	fade(5, 5);
	// now the ball has to roll to y = 0
	swapAndWait(400);
	setVoxel((voxel) {2, 2, 2}, black);
	setVoxel((voxel) {2, 1, 2}, green);
	swapAndWait(200);
	setVoxel((voxel) {2, 1, 2}, black);
	setVoxel((voxel) {2, 0, 1}, green);
		
	swapAndWait(1000);
	clearImage(black);
	
	for (x = 0; x < 5; x++) {
		drawLine3D(x, 0, 1, 
		           x, 4, 1, red);
	}
	setVoxel((voxel) {2, 0, 2}, green);
	fade(5, 5);
	swapAndWait(400);
	clearImage(black);
	for (x = 0; x < 5; x++) {
		drawLine3D(x, 0, 2, 
		           x, 4, 0, red);
	}
	setVoxel((voxel) {2, 0, 3}, green);
	fade(5, 5);
	swapAndWait(400);
	setVoxel((voxel) {2, 0, 3}, black);
	setVoxel((voxel) {2, 1, 2}, green);
	swapAndWait(200);
	setVoxel((voxel) {2, 1, 2}, black);
	setVoxel((voxel) {2, 2, 2}, green);
	swapAndWait(200);	
	setVoxel((voxel) {2, 2, 2}, black);
	setVoxel((voxel) {2, 3, 1}, green);
	swapAndWait(200);
	setVoxel((voxel) {2, 3, 1}, black);
	setVoxel((voxel) {2, 4, 1}, green);
	swapAndWait(200);
	setVoxel((voxel) {2, 2, 2}, black);
	setVoxel((voxel) {2, 3, 1}, green);
	swapAndWait(200);
	setVoxel((voxel) {2, 3, 1}, black);
	setVoxel((voxel) {2, 4, 1}, green);
	swapAndWait(200);
	
	swapAndWait(1000);
	clearImage(black);
	
	for (x = 0; x < 5; x++) {
		drawLine3D(x, 0, 1, 
		           x, 4, 1, red);
	}
	setVoxel((voxel) {2, 4, 2}, green);
	fade(5, 5);
}

void movingCubes() {
	// Startpoint of the cube
	voxel cube1 = {0, 0, 0}, cube2 = {3, 3, 3}, cube3 = {0, 3, 3};	
	direction way[] = {up, right, up, right, up, right, 
					   forward, forward, forward,
					   down, left, back, down, back, back,
					   down, left, left, up,  right, down, left, 0}; 
	unsigned char i, j; 
	for (j = 0; j < 5; j++) {
		i = 0;
		while(way[i]) {
			switch (way[i++]) {
				case up:      cube1.z++; 
							  cube2.x--;
							  cube3.z--;
							  if (cube1.z > MAX_Z-1) 
								cube1.z = 0;
							  if (cube2.x > MAX_X-1) 
								cube2.x = 0; 
							  if (cube3.z > MAX_Z-1) 
								cube3.z = 0;
							  break;
				case down:    cube1.z--; 
							  cube2.x++;
							  cube3.z++;
							  if (cube1.z > MAX_Z-1) 
								cube1.z = 0;
							  if (cube2.x > MAX_X-1) 
								cube2.x = 0; 
							  if (cube3.z > MAX_Z-1) 
								cube3.z = 0; 
							  break;
				case right:   cube1.x++; 
							  cube2.z--;
							  cube3.x++;
							  if (cube1.x > MAX_X-1) 
								cube1.z = 0;
							  if (cube2.z > MAX_Z-1) 
								cube2.x = 0; 
							  if (cube3.x > MAX_X-1) 
								cube3.x = 0;
							  break;
				case left:    cube1.x--; 
							  cube2.z++;
							  cube3.x--;
							  if (cube1.x > MAX_X-1) 
								cube1.x = 0;
							  if (cube2.z > MAX_Z-1) 
								cube2.z = 0; 
							  if (cube3.x > MAX_X-1) 
								cube3.x = 0;
							  break;
				case forward: cube1.y++; 
							  cube2.y--;
							  cube3.y--;
							  if (cube1.y > MAX_Y-1) 
								cube1.y = 0;
							  if (cube2.y > MAX_Y-1) 
								cube2.y = 0; 
							  if (cube3.y > MAX_Y-1) 
								cube3.y = 0;
							  break;
				case back:    cube1.y--; 
							  cube2.y++;
							  cube3.y++;
							  if (cube1.y > MAX_Y-1) 
								cube1.y = 0;
							  if (cube2.y > MAX_Y-1) 
								cube2.y = 0;
							  if (cube3.y > MAX_Y-1) 
								cube3.y = 0;
							  break;
				default: break;
			}
			
			drawCube(cube1, 0);
			drawCube(cube2, 1);
			drawCube(cube3, 2);
			swapAndWait(110);
			clearScreen(black);			
		}
	}
}

// a green Version of the Matrix of Borg 3D


#define SNAKE_LEN 100

void snake() {
	voxel pixels[SNAKE_LEN]; 
	voxel *head = &pixels[1];
	voxel *tail = &pixels[0];
	voxel old_head;
	color snakeColor = {100, 50, 220};
	voxel apples[10];
	unsigned char apple_num = 0;
	char addR = 2, addG = -1, addB = 1;
	pixels[0].x = 1; 
	pixels[0].y = 1;
	pixels[0].z = 0;
	pixels[1].x = 1; 
	pixels[1].y = 2;
	pixels[1].z = 0;
	
	direction dir = forward;

	clearScreen(black);

	unsigned char x = 0, dead = 0;
	while (1) {
		x++;
		old_head = *head;
		if (++head == pixels + SNAKE_LEN) 
			head = pixels;
		
		unsigned char dead_cnt=0;
		
		unsigned char apple_found = 0, j;
		for (j = 0; j < apple_num; j++) {
			unsigned char i;
			for (i = 1; i < 7; i++) {
				if ((getNextVoxel(old_head, (direction)i).x == apples[j].x) && 
					(getNextVoxel(old_head, (direction)i).y == apples[j].y) &&
				    (getNextVoxel(old_head, (direction)i).z == apples[j].z)) {
					apple_found = 1;
					dir = (direction)i+1; 
					for(; j < apple_num-1; j++) {
						apples[j] = apples[j+1];
					}
					apple_num--;
					goto apple_se;
				}
			}
		}
		apple_se:
		if (!apple_found) {
			while (isVoxelSet(getNextVoxel(old_head, dir))) {
				if ((dead_cnt++) == 4) {
					dead = 1;
					break;
				}
				dir = direction_r(dir);
			}
		}
		if (!dead) {
			*head = getNextVoxel(old_head, dir);
			setVoxel(*head, snakeColor);
			if (easyRandom() < 80) {
				dir = 1 + (direction) (easyRandom() % 6);
			}
			if ((apple_num<10) && (easyRandom()<10)) {
				voxel new_apple = (voxel) {easyRandom() % MAX_X,
										   easyRandom() % MAX_Y,
										   easyRandom() % MAX_Z};
				if (!isVoxelSet(new_apple)){
					apples[apple_num++] = new_apple;
				}
			}
			if (!apple_found) {
				setVoxel(*tail, black);
				if (++tail == pixels + SNAKE_LEN) 
					tail = pixels;
			}
		} else {
			while (tail != head) {
				setVoxel(*tail, black);
				if ((++tail) > pixels + SNAKE_LEN) 
					tail = pixels;
				wait(60);
			}
			break;
		}
		for (j = 0; j < apple_num; j++) {
			if (x & 1) { // let the apples blink
				setVoxel(apples[j], snakeColor);
			} else {
				setVoxel(apples[j], black);
			}
		}
		if (snakeColor.r < 5 || snakeColor.r > 250) 
			addR = -addR;
		if (snakeColor.g < 5 || snakeColor.g > 250) 
			addG = -addG;
		if (snakeColor.b < 5 || snakeColor.b > 250) 
			addB = -addB;
		snakeColor.r += addR;
		snakeColor.g += addG;
		snakeColor.b += addB;
		swapAndWait(60);
	}
}

void glowingBobbles() {
     e1e:	08 95       	ret

00000e20 <test1>:
     e20:	af 92       	push	r10
     e22:	bf 92       	push	r11
     e24:	cf 92       	push	r12
     e26:	df 92       	push	r13
     e28:	ef 92       	push	r14
     e2a:	ff 92       	push	r15
     e2c:	1f 93       	push	r17
     e2e:	cf 93       	push	r28
     e30:	df 93       	push	r29
     e32:	aa 24       	eor	r10, r10
     e34:	bb 24       	eor	r11, r11
     e36:	3d c0       	rjmp	.+122    	; 0xeb2 <test1+0x92>
     e38:	8f ef       	ldi	r24, 0xFF	; 255
     e3a:	89 93       	st	Y+, r24
     e3c:	84 e6       	ldi	r24, 0x64	; 100
     e3e:	0e 94 22 05 	call	0xa44 <swapAndWait>
     e42:	1f 5f       	subi	r17, 0xFF	; 255
     e44:	13 30       	cpi	r17, 0x03	; 3
     e46:	c1 f7       	brne	.-16     	; 0xe38 <test1+0x18>
     e48:	08 94       	sec
     e4a:	e1 1c       	adc	r14, r1
     e4c:	f1 1c       	adc	r15, r1
     e4e:	85 e0       	ldi	r24, 0x05	; 5
     e50:	e8 16       	cp	r14, r24
     e52:	f1 04       	cpc	r15, r1
     e54:	79 f4       	brne	.+30     	; 0xe74 <test1+0x54>
     e56:	08 94       	sec
     e58:	c1 1c       	adc	r12, r1
     e5a:	d1 1c       	adc	r13, r1
     e5c:	85 e0       	ldi	r24, 0x05	; 5
     e5e:	c8 16       	cp	r12, r24
     e60:	d1 04       	cpc	r13, r1
     e62:	21 f5       	brne	.+72     	; 0xeac <test1+0x8c>
     e64:	08 94       	sec
     e66:	a1 1c       	adc	r10, r1
     e68:	b1 1c       	adc	r11, r1
     e6a:	85 e0       	ldi	r24, 0x05	; 5
     e6c:	a8 16       	cp	r10, r24
     e6e:	b1 04       	cpc	r11, r1
     e70:	19 f1       	breq	.+70     	; 0xeb8 <test1+0x98>
     e72:	1f c0       	rjmp	.+62     	; 0xeb2 <test1+0x92>
     e74:	9f 2d       	mov	r25, r15
     e76:	8e 2d       	mov	r24, r14
     e78:	63 e0       	ldi	r22, 0x03	; 3
     e7a:	70 e0       	ldi	r23, 0x00	; 0
     e7c:	0e 94 ae 16 	call	0x2d5c <__mulhi3>
     e80:	d9 2f       	mov	r29, r25
     e82:	c8 2f       	mov	r28, r24
     e84:	9d 2d       	mov	r25, r13
     e86:	8c 2d       	mov	r24, r12
     e88:	6f e0       	ldi	r22, 0x0F	; 15
     e8a:	70 e0       	ldi	r23, 0x00	; 0
     e8c:	0e 94 ae 16 	call	0x2d5c <__mulhi3>
     e90:	c8 0f       	add	r28, r24
     e92:	d9 1f       	adc	r29, r25
     e94:	9b 2d       	mov	r25, r11
     e96:	8a 2d       	mov	r24, r10
     e98:	6b e4       	ldi	r22, 0x4B	; 75
     e9a:	70 e0       	ldi	r23, 0x00	; 0
     e9c:	0e 94 ae 16 	call	0x2d5c <__mulhi3>
     ea0:	c8 0f       	add	r28, r24
     ea2:	d9 1f       	adc	r29, r25
     ea4:	c7 56       	subi	r28, 0x67	; 103
     ea6:	de 4f       	sbci	r29, 0xFE	; 254
     ea8:	10 e0       	ldi	r17, 0x00	; 0
     eaa:	c6 cf       	rjmp	.-116    	; 0xe38 <test1+0x18>
     eac:	ee 24       	eor	r14, r14
     eae:	ff 24       	eor	r15, r15
     eb0:	e1 cf       	rjmp	.-62     	; 0xe74 <test1+0x54>
     eb2:	cc 24       	eor	r12, r12
     eb4:	dd 24       	eor	r13, r13
     eb6:	fa cf       	rjmp	.-12     	; 0xeac <test1+0x8c>
     eb8:	df 91       	pop	r29
     eba:	cf 91       	pop	r28
     ebc:	1f 91       	pop	r17
     ebe:	ff 90       	pop	r15
     ec0:	ef 90       	pop	r14
     ec2:	df 90       	pop	r13
     ec4:	cf 90       	pop	r12
     ec6:	bf 90       	pop	r11
     ec8:	af 90       	pop	r10
     eca:	08 95       	ret

00000ecc <brightnesTest>:
     ecc:	3f 92       	push	r3
     ece:	4f 92       	push	r4
     ed0:	5f 92       	push	r5
     ed2:	6f 92       	push	r6
     ed4:	7f 92       	push	r7
     ed6:	8f 92       	push	r8
     ed8:	9f 92       	push	r9
     eda:	af 92       	push	r10
     edc:	bf 92       	push	r11
     ede:	cf 92       	push	r12
     ee0:	df 92       	push	r13
     ee2:	ef 92       	push	r14
     ee4:	ff 92       	push	r15
     ee6:	0f 93       	push	r16
     ee8:	1f 93       	push	r17
     eea:	cf 93       	push	r28
     eec:	df 93       	push	r29
     eee:	66 24       	eor	r6, r6
     ef0:	77 24       	eor	r7, r7
     ef2:	78 c0       	rjmp	.+240    	; 0xfe4 <brightnesTest+0x118>
     ef4:	3e 14       	cp	r3, r14
     ef6:	31 f4       	brne	.+12     	; 0xf04 <brightnesTest+0x38>
     ef8:	84 2d       	mov	r24, r4
     efa:	8c 0d       	add	r24, r12
     efc:	f1 2f       	mov	r31, r17
     efe:	e0 2f       	mov	r30, r16
     f00:	80 83       	st	Z, r24
     f02:	01 c0       	rjmp	.+2      	; 0xf06 <brightnesTest+0x3a>
     f04:	18 82       	st	Y, r1
     f06:	84 e1       	ldi	r24, 0x14	; 20
     f08:	0e 94 22 05 	call	0xa44 <swapAndWait>
     f0c:	08 94       	sec
     f0e:	e1 1c       	adc	r14, r1
     f10:	f1 1c       	adc	r15, r1
     f12:	21 96       	adiw	r28, 0x01	; 1
     f14:	f3 e0       	ldi	r31, 0x03	; 3
     f16:	ef 16       	cp	r14, r31
     f18:	f1 04       	cpc	r15, r1
     f1a:	61 f7       	brne	.-40     	; 0xef4 <brightnesTest+0x28>
     f1c:	08 94       	sec
     f1e:	c1 1c       	adc	r12, r1
     f20:	d1 1c       	adc	r13, r1
     f22:	0d 5f       	subi	r16, 0xFD	; 253
     f24:	1f 4f       	sbci	r17, 0xFF	; 255
     f26:	85 e0       	ldi	r24, 0x05	; 5
     f28:	c8 16       	cp	r12, r24
     f2a:	d1 04       	cpc	r13, r1
     f2c:	f9 f4       	brne	.+62     	; 0xf6c <brightnesTest+0xa0>
     f2e:	08 94       	sec
     f30:	a1 1c       	adc	r10, r1
     f32:	b1 1c       	adc	r11, r1
     f34:	e5 e0       	ldi	r30, 0x05	; 5
     f36:	ae 16       	cp	r10, r30
     f38:	b1 04       	cpc	r11, r1
     f3a:	a9 f5       	brne	.+106    	; 0xfa6 <brightnesTest+0xda>
     f3c:	08 94       	sec
     f3e:	81 1c       	adc	r8, r1
     f40:	91 1c       	adc	r9, r1
     f42:	f5 e0       	ldi	r31, 0x05	; 5
     f44:	8f 16       	cp	r8, r31
     f46:	91 04       	cpc	r9, r1
     f48:	09 f0       	breq	.+2      	; 0xf4c <brightnesTest+0x80>
     f4a:	44 c0       	rjmp	.+136    	; 0xfd4 <brightnesTest+0x108>
     f4c:	53 94       	inc	r5
     f4e:	22 e8       	ldi	r18, 0x82	; 130
     f50:	42 2e       	mov	r4, r18
     f52:	82 e0       	ldi	r24, 0x02	; 2
     f54:	58 16       	cp	r5, r24
     f56:	09 f0       	breq	.+2      	; 0xf5a <brightnesTest+0x8e>
     f58:	42 c0       	rjmp	.+132    	; 0xfde <brightnesTest+0x112>
     f5a:	08 94       	sec
     f5c:	61 1c       	adc	r6, r1
     f5e:	71 1c       	adc	r7, r1
     f60:	e3 e0       	ldi	r30, 0x03	; 3
     f62:	6e 16       	cp	r6, r30
     f64:	71 04       	cpc	r7, r1
     f66:	09 f4       	brne	.+2      	; 0xf6a <brightnesTest+0x9e>
     f68:	42 c0       	rjmp	.+132    	; 0xfee <brightnesTest+0x122>
     f6a:	3c c0       	rjmp	.+120    	; 0xfe4 <brightnesTest+0x118>
     f6c:	9d 2d       	mov	r25, r13
     f6e:	8c 2d       	mov	r24, r12
     f70:	63 e0       	ldi	r22, 0x03	; 3
     f72:	70 e0       	ldi	r23, 0x00	; 0
     f74:	0e 94 ae 16 	call	0x2d5c <__mulhi3>
     f78:	d9 2f       	mov	r29, r25
     f7a:	c8 2f       	mov	r28, r24
     f7c:	9b 2d       	mov	r25, r11
     f7e:	8a 2d       	mov	r24, r10
     f80:	6f e0       	ldi	r22, 0x0F	; 15
     f82:	70 e0       	ldi	r23, 0x00	; 0
     f84:	0e 94 ae 16 	call	0x2d5c <__mulhi3>
     f88:	c8 0f       	add	r28, r24
     f8a:	d9 1f       	adc	r29, r25
     f8c:	99 2d       	mov	r25, r9
     f8e:	88 2d       	mov	r24, r8
     f90:	6b e4       	ldi	r22, 0x4B	; 75
     f92:	70 e0       	ldi	r23, 0x00	; 0
     f94:	0e 94 ae 16 	call	0x2d5c <__mulhi3>
     f98:	c8 0f       	add	r28, r24
     f9a:	d9 1f       	adc	r29, r25
     f9c:	c7 56       	subi	r28, 0x67	; 103
     f9e:	de 4f       	sbci	r29, 0xFE	; 254
     fa0:	ee 24       	eor	r14, r14
     fa2:	ff 24       	eor	r15, r15
     fa4:	a7 cf       	rjmp	.-178    	; 0xef4 <brightnesTest+0x28>
     fa6:	99 2d       	mov	r25, r9
     fa8:	88 2d       	mov	r24, r8
     faa:	6b e4       	ldi	r22, 0x4B	; 75
     fac:	70 e0       	ldi	r23, 0x00	; 0
     fae:	0e 94 ae 16 	call	0x2d5c <__mulhi3>
     fb2:	08 2f       	mov	r16, r24
     fb4:	19 2f       	mov	r17, r25
     fb6:	9b 2d       	mov	r25, r11
     fb8:	8a 2d       	mov	r24, r10
     fba:	6f e0       	ldi	r22, 0x0F	; 15
     fbc:	70 e0       	ldi	r23, 0x00	; 0
     fbe:	0e 94 ae 16 	call	0x2d5c <__mulhi3>
     fc2:	08 0f       	add	r16, r24
     fc4:	19 1f       	adc	r17, r25
     fc6:	06 0d       	add	r16, r6
     fc8:	17 1d       	adc	r17, r7
     fca:	07 56       	subi	r16, 0x67	; 103
     fcc:	1e 4f       	sbci	r17, 0xFE	; 254
     fce:	cc 24       	eor	r12, r12
     fd0:	dd 24       	eor	r13, r13
     fd2:	cc cf       	rjmp	.-104    	; 0xf6c <brightnesTest+0xa0>
     fd4:	f9 e1       	ldi	r31, 0x19	; 25
     fd6:	4f 0e       	add	r4, r31
     fd8:	aa 24       	eor	r10, r10
     fda:	bb 24       	eor	r11, r11
     fdc:	e4 cf       	rjmp	.-56     	; 0xfa6 <brightnesTest+0xda>
     fde:	88 24       	eor	r8, r8
     fe0:	99 24       	eor	r9, r9
     fe2:	fa cf       	rjmp	.-12     	; 0xfd8 <brightnesTest+0x10c>
     fe4:	36 2c       	mov	r3, r6
     fe6:	91 e0       	ldi	r25, 0x01	; 1
     fe8:	49 2e       	mov	r4, r25
     fea:	55 24       	eor	r5, r5
     fec:	f8 cf       	rjmp	.-16     	; 0xfde <brightnesTest+0x112>
     fee:	df 91       	pop	r29
     ff0:	cf 91       	pop	r28
     ff2:	1f 91       	pop	r17
     ff4:	0f 91       	pop	r16
     ff6:	ff 90       	pop	r15
     ff8:	ef 90       	pop	r14
     ffa:	df 90       	pop	r13
     ffc:	cf 90       	pop	r12
     ffe:	bf 90       	pop	r11
    1000:	af 90       	pop	r10
    1002:	9f 90       	pop	r9
    1004:	8f 90       	pop	r8
    1006:	7f 90       	pop	r7
    1008:	6f 90       	pop	r6
    100a:	5f 90       	pop	r5
    100c:	4f 90       	pop	r4
    100e:	3f 90       	pop	r3
    1010:	08 95       	ret

00001012 <wobbeln>:
	
}

void wobbeln() {
    1012:	7f 92       	push	r7
    1014:	8f 92       	push	r8
    1016:	9f 92       	push	r9
    1018:	af 92       	push	r10
    101a:	bf 92       	push	r11
    101c:	cf 92       	push	r12
    101e:	df 92       	push	r13
    1020:	ef 92       	push	r14
    1022:	ff 92       	push	r15
    1024:	0f 93       	push	r16
    1026:	1f 93       	push	r17
    1028:	cf 93       	push	r28
    102a:	df 93       	push	r29
    102c:	cd b7       	in	r28, 0x3d	; 61
    102e:	de b7       	in	r29, 0x3e	; 62
    1030:	a7 97       	sbiw	r28, 0x27	; 39
    1032:	0f b6       	in	r0, 0x3f	; 63
    1034:	f8 94       	cli
    1036:	de bf       	out	0x3e, r29	; 62
    1038:	0f be       	out	0x3f, r0	; 63
    103a:	cd bf       	out	0x3d, r28	; 61
	unsigned char i, j, z, y, x;
	color colors[5] = {{0,   0,  250},
				   { 250,  150,    0},
				   {0xef, 0xae, 0x30},
				   {   0  ,250,   18},
				   { 255,   0,     0}
				  };
    103c:	ac 2f       	mov	r26, r28
    103e:	bd 2f       	mov	r27, r29
    1040:	59 96       	adiw	r26, 0x19	; 25
    1042:	ee e6       	ldi	r30, 0x6E	; 110
    1044:	f0 e0       	ldi	r31, 0x00	; 0
    1046:	8f e0       	ldi	r24, 0x0F	; 15
    1048:	01 90       	ld	r0, Z+
    104a:	0d 92       	st	X+, r0
    104c:	81 50       	subi	r24, 0x01	; 1
    104e:	e1 f7       	brne	.-8      	; 0x1048 <wobbeln+0x36>
    1050:	aa 24       	eor	r10, r10
    1052:	bb 24       	eor	r11, r11
    1054:	ca c0       	rjmp	.+404    	; 0x11ea <wobbeln+0x1d8>
	for (j = 0; j < 30; j++) {
		for (i = 1; i < 6; i++) {
			for (z = 0; z < i; z++) {
				for (y = 0; y < i; y++) {
					for (x = 0; x < i; x++) {
						switch (j % 8) {
    1056:	9b 2d       	mov	r25, r11
    1058:	8a 2d       	mov	r24, r10
    105a:	87 70       	andi	r24, 0x07	; 7
    105c:	90 70       	andi	r25, 0x00	; 0
    105e:	83 30       	cpi	r24, 0x03	; 3
    1060:	91 05       	cpc	r25, r1
    1062:	09 f4       	brne	.+2      	; 0x1066 <wobbeln+0x54>
    1064:	4b c0       	rjmp	.+150    	; 0x10fc <wobbeln+0xea>
    1066:	84 30       	cpi	r24, 0x04	; 4
    1068:	91 05       	cpc	r25, r1
    106a:	4c f4       	brge	.+18     	; 0x107e <wobbeln+0x6c>
    106c:	81 30       	cpi	r24, 0x01	; 1
    106e:	91 05       	cpc	r25, r1
    1070:	71 f1       	breq	.+92     	; 0x10ce <wobbeln+0xbc>
    1072:	82 30       	cpi	r24, 0x02	; 2
    1074:	91 05       	cpc	r25, r1
    1076:	bc f5       	brge	.+110    	; 0x10e6 <wobbeln+0xd4>
    1078:	89 2b       	or	r24, r25
    107a:	89 f0       	breq	.+34     	; 0x109e <wobbeln+0x8c>
    107c:	83 c0       	rjmp	.+262    	; 0x1184 <wobbeln+0x172>
    107e:	85 30       	cpi	r24, 0x05	; 5
    1080:	91 05       	cpc	r25, r1
    1082:	09 f4       	brne	.+2      	; 0x1086 <wobbeln+0x74>
    1084:	55 c0       	rjmp	.+170    	; 0x1130 <wobbeln+0x11e>
    1086:	85 30       	cpi	r24, 0x05	; 5
    1088:	91 05       	cpc	r25, r1
    108a:	0c f4       	brge	.+2      	; 0x108e <wobbeln+0x7c>
    108c:	44 c0       	rjmp	.+136    	; 0x1116 <wobbeln+0x104>
    108e:	86 30       	cpi	r24, 0x06	; 6
    1090:	91 05       	cpc	r25, r1
    1092:	09 f4       	brne	.+2      	; 0x1096 <wobbeln+0x84>
    1094:	5b c0       	rjmp	.+182    	; 0x114c <wobbeln+0x13a>
    1096:	07 97       	sbiw	r24, 0x07	; 7
    1098:	09 f0       	breq	.+2      	; 0x109c <wobbeln+0x8a>
    109a:	74 c0       	rjmp	.+232    	; 0x1184 <wobbeln+0x172>
    109c:	64 c0       	rjmp	.+200    	; 0x1166 <wobbeln+0x154>
							case 0: 
								setVoxel((voxel) {x, y, z}, colors[j%5]);
    109e:	0e 8b       	std	Y+22, r16	; 0x16
    10a0:	ff 8a       	std	Y+23, r15	; 0x17
    10a2:	18 8f       	std	Y+24, r17	; 0x18
    10a4:	99 2d       	mov	r25, r9
    10a6:	88 2d       	mov	r24, r8
    10a8:	63 e0       	ldi	r22, 0x03	; 3
    10aa:	70 e0       	ldi	r23, 0x00	; 0
    10ac:	0e 94 ae 16 	call	0x2d5c <__mulhi3>
    10b0:	fd 2f       	mov	r31, r29
    10b2:	ec 2f       	mov	r30, r28
    10b4:	31 96       	adiw	r30, 0x01	; 1
    10b6:	e8 0f       	add	r30, r24
    10b8:	f9 1f       	adc	r31, r25
    10ba:	ae 2f       	mov	r26, r30
    10bc:	bf 2f       	mov	r27, r31
    10be:	58 96       	adiw	r26, 0x18	; 24
    10c0:	20 8d       	ldd	r18, Z+24	; 0x18
    10c2:	fb 2f       	mov	r31, r27
    10c4:	ea 2f       	mov	r30, r26
    10c6:	31 81       	ldd	r19, Z+1	; 0x01
    10c8:	42 81       	ldd	r20, Z+2	; 0x02
    10ca:	60 2f       	mov	r22, r16
    10cc:	0a c0       	rjmp	.+20     	; 0x10e2 <wobbeln+0xd0>
								break;
							case 1:
								setVoxel((voxel) {4-x, y, z}, blue);
    10ce:	eb 8a       	std	Y+19, r14	; 0x13
    10d0:	fc 8a       	std	Y+20, r15	; 0x14
    10d2:	1d 8b       	std	Y+21, r17	; 0x15
    10d4:	20 91 69 00 	lds	r18, 0x0069
    10d8:	30 91 6a 00 	lds	r19, 0x006A
    10dc:	40 91 6b 00 	lds	r20, 0x006B
    10e0:	6e 2d       	mov	r22, r14
    10e2:	7f 2d       	mov	r23, r15
    10e4:	16 c0       	rjmp	.+44     	; 0x1112 <wobbeln+0x100>
								break;
							case 2:
								setVoxel((voxel) {x, 4-y, z}, red);
    10e6:	08 8b       	std	Y+16, r16	; 0x10
    10e8:	d9 8a       	std	Y+17, r13	; 0x11
    10ea:	1a 8b       	std	Y+18, r17	; 0x12
    10ec:	20 91 63 00 	lds	r18, 0x0063
    10f0:	30 91 64 00 	lds	r19, 0x0064
    10f4:	40 91 65 00 	lds	r20, 0x0065
    10f8:	60 2f       	mov	r22, r16
    10fa:	0a c0       	rjmp	.+20     	; 0x1110 <wobbeln+0xfe>
								break;
							case 3:
								setVoxel((voxel) {4-x, 4-y, z}, green);
    10fc:	ed 86       	std	Y+13, r14	; 0x0d
    10fe:	de 86       	std	Y+14, r13	; 0x0e
    1100:	1f 87       	std	Y+15, r17	; 0x0f
    1102:	20 91 66 00 	lds	r18, 0x0066
    1106:	30 91 67 00 	lds	r19, 0x0067
    110a:	40 91 68 00 	lds	r20, 0x0068
    110e:	6e 2d       	mov	r22, r14
    1110:	7d 2d       	mov	r23, r13
    1112:	81 2f       	mov	r24, r17
    1114:	35 c0       	rjmp	.+106    	; 0x1180 <wobbeln+0x16e>
								break;
							case 4: 
								setVoxel((voxel) {x, y, 4-z}, white);
    1116:	0a 87       	std	Y+10, r16	; 0x0a
    1118:	fb 86       	std	Y+11, r15	; 0x0b
    111a:	84 e0       	ldi	r24, 0x04	; 4
    111c:	81 1b       	sub	r24, r17
    111e:	8c 87       	std	Y+12, r24	; 0x0c
    1120:	20 91 60 00 	lds	r18, 0x0060
    1124:	30 91 61 00 	lds	r19, 0x0061
    1128:	40 91 62 00 	lds	r20, 0x0062
    112c:	60 2f       	mov	r22, r16
    112e:	0c c0       	rjmp	.+24     	; 0x1148 <wobbeln+0x136>
								break;
							case 5:
								setVoxel((voxel) {4-x, y, 4-z}, red);
    1130:	ef 82       	std	Y+7, r14	; 0x07
    1132:	f8 86       	std	Y+8, r15	; 0x08
    1134:	84 e0       	ldi	r24, 0x04	; 4
    1136:	81 1b       	sub	r24, r17
    1138:	89 87       	std	Y+9, r24	; 0x09
    113a:	20 91 63 00 	lds	r18, 0x0063
    113e:	30 91 64 00 	lds	r19, 0x0064
    1142:	40 91 65 00 	lds	r20, 0x0065
    1146:	6e 2d       	mov	r22, r14
    1148:	7f 2d       	mov	r23, r15
    114a:	1a c0       	rjmp	.+52     	; 0x1180 <wobbeln+0x16e>
								break;
							case 6:
								setVoxel((voxel) {x, 4-y, 4-z}, blue);
    114c:	0c 83       	std	Y+4, r16	; 0x04
    114e:	dd 82       	std	Y+5, r13	; 0x05
    1150:	84 e0       	ldi	r24, 0x04	; 4
    1152:	81 1b       	sub	r24, r17
    1154:	8e 83       	std	Y+6, r24	; 0x06
    1156:	20 91 69 00 	lds	r18, 0x0069
    115a:	30 91 6a 00 	lds	r19, 0x006A
    115e:	40 91 6b 00 	lds	r20, 0x006B
    1162:	60 2f       	mov	r22, r16
    1164:	0c c0       	rjmp	.+24     	; 0x117e <wobbeln+0x16c>
								break;
							case 7:
								setVoxel((voxel) {4-x, 4-y, 4-z}, green);
    1166:	e9 82       	std	Y+1, r14	; 0x01
    1168:	da 82       	std	Y+2, r13	; 0x02
    116a:	84 e0       	ldi	r24, 0x04	; 4
    116c:	81 1b       	sub	r24, r17
    116e:	8b 83       	std	Y+3, r24	; 0x03
    1170:	20 91 66 00 	lds	r18, 0x0066
    1174:	30 91 67 00 	lds	r19, 0x0067
    1178:	40 91 68 00 	lds	r20, 0x0068
    117c:	6e 2d       	mov	r22, r14
    117e:	7d 2d       	mov	r23, r13
    1180:	0e 94 37 01 	call	0x26e <setVoxel>
    1184:	0f 5f       	subi	r16, 0xFF	; 255
    1186:	ea 94       	dec	r14
    1188:	0c 15       	cp	r16, r12
    118a:	09 f0       	breq	.+2      	; 0x118e <wobbeln+0x17c>
    118c:	64 cf       	rjmp	.-312    	; 0x1056 <wobbeln+0x44>
    118e:	f3 94       	inc	r15
    1190:	da 94       	dec	r13
    1192:	fc 14       	cp	r15, r12
    1194:	21 f0       	breq	.+8      	; 0x119e <wobbeln+0x18c>
    1196:	00 e0       	ldi	r16, 0x00	; 0
    1198:	54 e0       	ldi	r21, 0x04	; 4
    119a:	e5 2e       	mov	r14, r21
    119c:	f5 cf       	rjmp	.-22     	; 0x1188 <wobbeln+0x176>
    119e:	1f 5f       	subi	r17, 0xFF	; 255
    11a0:	1c 15       	cp	r17, r12
    11a2:	20 f4       	brcc	.+8      	; 0x11ac <wobbeln+0x19a>
    11a4:	ff 24       	eor	r15, r15
    11a6:	44 e0       	ldi	r20, 0x04	; 4
    11a8:	d4 2e       	mov	r13, r20
    11aa:	f3 cf       	rjmp	.-26     	; 0x1192 <wobbeln+0x180>
								break;
							
						}
					}
				}
			}
			fade(5, 9);
    11ac:	69 e0       	ldi	r22, 0x09	; 9
    11ae:	85 e0       	ldi	r24, 0x05	; 5
    11b0:	0e 94 47 05 	call	0xa8e <fade>
    11b4:	c3 94       	inc	r12
    11b6:	f5 e0       	ldi	r31, 0x05	; 5
    11b8:	fc 15       	cp	r31, r12
    11ba:	10 f0       	brcs	.+4      	; 0x11c0 <wobbeln+0x1ae>
    11bc:	10 e0       	ldi	r17, 0x00	; 0
    11be:	f0 cf       	rjmp	.-32     	; 0x11a0 <wobbeln+0x18e>
		}
		swapAndWait(300);
    11c0:	8c e2       	ldi	r24, 0x2C	; 44
    11c2:	0e 94 22 05 	call	0xa44 <swapAndWait>
		if (j < 20)
    11c6:	83 e1       	ldi	r24, 0x13	; 19
    11c8:	87 15       	cp	r24, r7
    11ca:	40 f0       	brcs	.+16     	; 0x11dc <wobbeln+0x1ca>
			clearImage(black);	
    11cc:	60 91 96 01 	lds	r22, 0x0196
    11d0:	70 91 97 01 	lds	r23, 0x0197
    11d4:	80 91 98 01 	lds	r24, 0x0198
    11d8:	0e 94 9e 03 	call	0x73c <clearImage>
    11dc:	08 94       	sec
    11de:	a1 1c       	adc	r10, r1
    11e0:	b1 1c       	adc	r11, r1
    11e2:	ee e1       	ldi	r30, 0x1E	; 30
    11e4:	ae 16       	cp	r10, r30
    11e6:	b1 04       	cpc	r11, r1
    11e8:	59 f0       	breq	.+22     	; 0x1200 <wobbeln+0x1ee>
	}
	clearImage(black);
	fade(10, 30);
	swapAndWait(1000);
}
    11ea:	7a 2c       	mov	r7, r10
    11ec:	8a 2d       	mov	r24, r10
    11ee:	65 e0       	ldi	r22, 0x05	; 5
    11f0:	0e 94 c0 16 	call	0x2d80 <__udivmodqi4>
    11f4:	89 2e       	mov	r8, r25
    11f6:	99 24       	eor	r9, r9
    11f8:	10 e0       	ldi	r17, 0x00	; 0
    11fa:	31 e0       	ldi	r19, 0x01	; 1
    11fc:	c3 2e       	mov	r12, r19
    11fe:	d0 cf       	rjmp	.-96     	; 0x11a0 <wobbeln+0x18e>
    1200:	60 91 96 01 	lds	r22, 0x0196
    1204:	70 91 97 01 	lds	r23, 0x0197
    1208:	80 91 98 01 	lds	r24, 0x0198
    120c:	0e 94 9e 03 	call	0x73c <clearImage>
    1210:	6e e1       	ldi	r22, 0x1E	; 30
    1212:	8a e0       	ldi	r24, 0x0A	; 10
    1214:	0e 94 47 05 	call	0xa8e <fade>
    1218:	88 ee       	ldi	r24, 0xE8	; 232
    121a:	0e 94 22 05 	call	0xa44 <swapAndWait>
    121e:	a7 96       	adiw	r28, 0x27	; 39
    1220:	0f b6       	in	r0, 0x3f	; 63
    1222:	f8 94       	cli
    1224:	de bf       	out	0x3e, r29	; 62
    1226:	0f be       	out	0x3f, r0	; 63
    1228:	cd bf       	out	0x3d, r28	; 61
    122a:	df 91       	pop	r29
    122c:	cf 91       	pop	r28
    122e:	1f 91       	pop	r17
    1230:	0f 91       	pop	r16
    1232:	ff 90       	pop	r15
    1234:	ef 90       	pop	r14
    1236:	df 90       	pop	r13
    1238:	cf 90       	pop	r12
    123a:	bf 90       	pop	r11
    123c:	af 90       	pop	r10
    123e:	9f 90       	pop	r9
    1240:	8f 90       	pop	r8
    1242:	7f 90       	pop	r7
    1244:	08 95       	ret

00001246 <fnordLicht>:
    1246:	1f 93       	push	r17
    1248:	cf 93       	push	r28
    124a:	df 93       	push	r29
    124c:	60 91 63 00 	lds	r22, 0x0063
    1250:	70 91 64 00 	lds	r23, 0x0064
    1254:	80 91 65 00 	lds	r24, 0x0065
    1258:	0e 94 9e 03 	call	0x73c <clearImage>
    125c:	68 e2       	ldi	r22, 0x28	; 40
    125e:	8a e0       	ldi	r24, 0x0A	; 10
    1260:	0e 94 47 05 	call	0xa8e <fade>
    1264:	10 e0       	ldi	r17, 0x00	; 0
    1266:	41 c0       	rjmp	.+130    	; 0x12ea <fnordLicht+0xa4>
    1268:	8c 2f       	mov	r24, r28
    126a:	e9 e9       	ldi	r30, 0x99	; 153
    126c:	f1 e0       	ldi	r31, 0x01	; 1
    126e:	9c 2f       	mov	r25, r28
    1270:	90 95       	com	r25
    1272:	90 83       	st	Z, r25
    1274:	81 83       	std	Z+1, r24	; 0x01
    1276:	12 82       	std	Z+2, r1	; 0x02
    1278:	33 96       	adiw	r30, 0x03	; 3
    127a:	23 e0       	ldi	r18, 0x03	; 3
    127c:	e0 31       	cpi	r30, 0x10	; 16
    127e:	f2 07       	cpc	r31, r18
    1280:	c1 f7       	brne	.-16     	; 0x1272 <fnordLicht+0x2c>
    1282:	84 e1       	ldi	r24, 0x14	; 20
    1284:	0e 94 22 05 	call	0xa44 <swapAndWait>
    1288:	21 96       	adiw	r28, 0x01	; 1
    128a:	cf 3f       	cpi	r28, 0xFF	; 255
    128c:	d1 05       	cpc	r29, r1
    128e:	61 f7       	brne	.-40     	; 0x1268 <fnordLicht+0x22>
    1290:	c0 e0       	ldi	r28, 0x00	; 0
    1292:	d0 e0       	ldi	r29, 0x00	; 0
    1294:	8c 2f       	mov	r24, r28
    1296:	e9 e9       	ldi	r30, 0x99	; 153
    1298:	f1 e0       	ldi	r31, 0x01	; 1
    129a:	9c 2f       	mov	r25, r28
    129c:	90 95       	com	r25
    129e:	91 83       	std	Z+1, r25	; 0x01
    12a0:	82 83       	std	Z+2, r24	; 0x02
    12a2:	33 96       	adiw	r30, 0x03	; 3
    12a4:	23 e0       	ldi	r18, 0x03	; 3
    12a6:	e0 31       	cpi	r30, 0x10	; 16
    12a8:	f2 07       	cpc	r31, r18
    12aa:	c9 f7       	brne	.-14     	; 0x129e <fnordLicht+0x58>
    12ac:	84 e1       	ldi	r24, 0x14	; 20
    12ae:	0e 94 22 05 	call	0xa44 <swapAndWait>
    12b2:	21 96       	adiw	r28, 0x01	; 1
    12b4:	cf 3f       	cpi	r28, 0xFF	; 255
    12b6:	d1 05       	cpc	r29, r1
    12b8:	69 f7       	brne	.-38     	; 0x1294 <fnordLicht+0x4e>
    12ba:	c0 e0       	ldi	r28, 0x00	; 0
    12bc:	d0 e0       	ldi	r29, 0x00	; 0
    12be:	8c 2f       	mov	r24, r28
    12c0:	e9 e9       	ldi	r30, 0x99	; 153
    12c2:	f1 e0       	ldi	r31, 0x01	; 1
    12c4:	9c 2f       	mov	r25, r28
    12c6:	90 95       	com	r25
    12c8:	80 83       	st	Z, r24
    12ca:	92 83       	std	Z+2, r25	; 0x02
    12cc:	33 96       	adiw	r30, 0x03	; 3
    12ce:	23 e0       	ldi	r18, 0x03	; 3
    12d0:	e0 31       	cpi	r30, 0x10	; 16
    12d2:	f2 07       	cpc	r31, r18
    12d4:	c9 f7       	brne	.-14     	; 0x12c8 <fnordLicht+0x82>
    12d6:	84 e1       	ldi	r24, 0x14	; 20
    12d8:	0e 94 22 05 	call	0xa44 <swapAndWait>
    12dc:	21 96       	adiw	r28, 0x01	; 1
    12de:	cf 3f       	cpi	r28, 0xFF	; 255
    12e0:	d1 05       	cpc	r29, r1
    12e2:	69 f7       	brne	.-38     	; 0x12be <fnordLicht+0x78>
    12e4:	1f 5f       	subi	r17, 0xFF	; 255
    12e6:	12 30       	cpi	r17, 0x02	; 2
    12e8:	19 f0       	breq	.+6      	; 0x12f0 <fnordLicht+0xaa>
    12ea:	c0 e0       	ldi	r28, 0x00	; 0
    12ec:	d0 e0       	ldi	r29, 0x00	; 0
    12ee:	bc cf       	rjmp	.-136    	; 0x1268 <fnordLicht+0x22>
    12f0:	df 91       	pop	r29
    12f2:	cf 91       	pop	r28
    12f4:	1f 91       	pop	r17
    12f6:	08 95       	ret

000012f8 <testAnim>:
    12f8:	2f 92       	push	r2
    12fa:	3f 92       	push	r3
    12fc:	4f 92       	push	r4
    12fe:	5f 92       	push	r5
    1300:	6f 92       	push	r6
    1302:	7f 92       	push	r7
    1304:	8f 92       	push	r8
    1306:	9f 92       	push	r9
    1308:	af 92       	push	r10
    130a:	bf 92       	push	r11
    130c:	cf 92       	push	r12
    130e:	df 92       	push	r13
    1310:	ef 92       	push	r14
    1312:	ff 92       	push	r15
    1314:	0f 93       	push	r16
    1316:	1f 93       	push	r17
    1318:	cf 93       	push	r28
    131a:	df 93       	push	r29
    131c:	cd b7       	in	r28, 0x3d	; 61
    131e:	de b7       	in	r29, 0x3e	; 62
    1320:	2f 97       	sbiw	r28, 0x0f	; 15
    1322:	0f b6       	in	r0, 0x3f	; 63
    1324:	f8 94       	cli
    1326:	de bf       	out	0x3e, r29	; 62
    1328:	0f be       	out	0x3f, r0	; 63
    132a:	cd bf       	out	0x3d, r28	; 61
    132c:	1a 82       	std	Y+2, r1	; 0x02
    132e:	19 82       	std	Y+1, r1	; 0x01
    1330:	fd c0       	rjmp	.+506    	; 0x152c <testAnim+0x234>
    1332:	42 30       	cpi	r20, 0x02	; 2
    1334:	79 f1       	breq	.+94     	; 0x1394 <testAnim+0x9c>
    1336:	43 30       	cpi	r20, 0x03	; 3
    1338:	30 f4       	brcc	.+12     	; 0x1346 <testAnim+0x4e>
    133a:	44 23       	and	r20, r20
    133c:	61 f0       	breq	.+24     	; 0x1356 <testAnim+0x5e>
    133e:	41 30       	cpi	r20, 0x01	; 1
    1340:	09 f0       	breq	.+2      	; 0x1344 <testAnim+0x4c>
    1342:	5d c0       	rjmp	.+186    	; 0x13fe <testAnim+0x106>
    1344:	17 c0       	rjmp	.+46     	; 0x1374 <testAnim+0x7c>
    1346:	44 30       	cpi	r20, 0x04	; 4
    1348:	e1 f1       	breq	.+120    	; 0x13c2 <testAnim+0xca>
    134a:	44 30       	cpi	r20, 0x04	; 4
    134c:	90 f1       	brcs	.+100    	; 0x13b2 <testAnim+0xba>
    134e:	45 30       	cpi	r20, 0x05	; 5
    1350:	09 f0       	breq	.+2      	; 0x1354 <testAnim+0x5c>
    1352:	55 c0       	rjmp	.+170    	; 0x13fe <testAnim+0x106>
    1354:	45 c0       	rjmp	.+138    	; 0x13e0 <testAnim+0xe8>
    1356:	93 2f       	mov	r25, r19
    1358:	82 2f       	mov	r24, r18
    135a:	63 e3       	ldi	r22, 0x33	; 51
    135c:	70 e0       	ldi	r23, 0x00	; 0
    135e:	0e 94 ae 16 	call	0x2d5c <__mulhi3>
    1362:	ee 85       	ldd	r30, Y+14	; 0x0e
    1364:	ff 85       	ldd	r31, Y+15	; 0x0f
    1366:	80 83       	st	Z, r24
    1368:	8b 85       	ldd	r24, Y+11	; 0x0b
    136a:	fb 2d       	mov	r31, r11
    136c:	ea 2d       	mov	r30, r10
    136e:	81 83       	std	Z+1, r24	; 0x01
    1370:	9a 85       	ldd	r25, Y+10	; 0x0a
    1372:	0e c0       	rjmp	.+28     	; 0x1390 <testAnim+0x98>
    1374:	93 2f       	mov	r25, r19
    1376:	82 2f       	mov	r24, r18
    1378:	63 e3       	ldi	r22, 0x33	; 51
    137a:	70 e0       	ldi	r23, 0x00	; 0
    137c:	0e 94 ae 16 	call	0x2d5c <__mulhi3>
    1380:	ef 81       	ldd	r30, Y+7	; 0x07
    1382:	f8 85       	ldd	r31, Y+8	; 0x08
    1384:	80 83       	st	Z, r24
    1386:	8a 85       	ldd	r24, Y+10	; 0x0a
    1388:	fd 2d       	mov	r31, r13
    138a:	ec 2d       	mov	r30, r12
    138c:	81 83       	std	Z+1, r24	; 0x01
    138e:	9b 85       	ldd	r25, Y+11	; 0x0b
    1390:	92 83       	std	Z+2, r25	; 0x02
    1392:	35 c0       	rjmp	.+106    	; 0x13fe <testAnim+0x106>
    1394:	8b 85       	ldd	r24, Y+11	; 0x0b
    1396:	ed 81       	ldd	r30, Y+5	; 0x05
    1398:	fe 81       	ldd	r31, Y+6	; 0x06
    139a:	80 83       	st	Z, r24
    139c:	93 2f       	mov	r25, r19
    139e:	82 2f       	mov	r24, r18
    13a0:	63 e3       	ldi	r22, 0x33	; 51
    13a2:	70 e0       	ldi	r23, 0x00	; 0
    13a4:	0e 94 ae 16 	call	0x2d5c <__mulhi3>
    13a8:	ff 2d       	mov	r31, r15
    13aa:	ee 2d       	mov	r30, r14
    13ac:	81 83       	std	Z+1, r24	; 0x01
    13ae:	8a 85       	ldd	r24, Y+10	; 0x0a
    13b0:	25 c0       	rjmp	.+74     	; 0x13fc <testAnim+0x104>
    13b2:	8b 85       	ldd	r24, Y+11	; 0x0b
    13b4:	eb 81       	ldd	r30, Y+3	; 0x03
    13b6:	fc 81       	ldd	r31, Y+4	; 0x04
    13b8:	80 83       	st	Z, r24
    13ba:	8a 85       	ldd	r24, Y+10	; 0x0a
    13bc:	f1 2f       	mov	r31, r17
    13be:	e0 2f       	mov	r30, r16
    13c0:	16 c0       	rjmp	.+44     	; 0x13ee <testAnim+0xf6>
    13c2:	8a 85       	ldd	r24, Y+10	; 0x0a
    13c4:	f3 2d       	mov	r31, r3
    13c6:	e2 2d       	mov	r30, r2
    13c8:	80 83       	st	Z, r24
    13ca:	93 2f       	mov	r25, r19
    13cc:	82 2f       	mov	r24, r18
    13ce:	63 e3       	ldi	r22, 0x33	; 51
    13d0:	70 e0       	ldi	r23, 0x00	; 0
    13d2:	0e 94 ae 16 	call	0x2d5c <__mulhi3>
    13d6:	ec 85       	ldd	r30, Y+12	; 0x0c
    13d8:	fd 85       	ldd	r31, Y+13	; 0x0d
    13da:	81 83       	std	Z+1, r24	; 0x01
    13dc:	8b 85       	ldd	r24, Y+11	; 0x0b
    13de:	0e c0       	rjmp	.+28     	; 0x13fc <testAnim+0x104>
    13e0:	8a 85       	ldd	r24, Y+10	; 0x0a
    13e2:	f5 2d       	mov	r31, r5
    13e4:	e4 2d       	mov	r30, r4
    13e6:	80 83       	st	Z, r24
    13e8:	8b 85       	ldd	r24, Y+11	; 0x0b
    13ea:	fb 2f       	mov	r31, r27
    13ec:	ea 2f       	mov	r30, r26
    13ee:	81 83       	std	Z+1, r24	; 0x01
    13f0:	93 2f       	mov	r25, r19
    13f2:	82 2f       	mov	r24, r18
    13f4:	63 e3       	ldi	r22, 0x33	; 51
    13f6:	70 e0       	ldi	r23, 0x00	; 0
    13f8:	0e 94 ae 16 	call	0x2d5c <__mulhi3>
    13fc:	82 83       	std	Z+2, r24	; 0x02
    13fe:	2f 5f       	subi	r18, 0xFF	; 255
    1400:	3f 4f       	sbci	r19, 0xFF	; 255
    1402:	ee 85       	ldd	r30, Y+14	; 0x0e
    1404:	ff 85       	ldd	r31, Y+15	; 0x0f
    1406:	33 96       	adiw	r30, 0x03	; 3
    1408:	ff 87       	std	Y+15, r31	; 0x0f
    140a:	ee 87       	std	Y+14, r30	; 0x0e
    140c:	83 e0       	ldi	r24, 0x03	; 3
    140e:	90 e0       	ldi	r25, 0x00	; 0
    1410:	a8 0e       	add	r10, r24
    1412:	b9 1e       	adc	r11, r25
    1414:	ef 81       	ldd	r30, Y+7	; 0x07
    1416:	f8 85       	ldd	r31, Y+8	; 0x08
    1418:	33 96       	adiw	r30, 0x03	; 3
    141a:	f8 87       	std	Y+8, r31	; 0x08
    141c:	ef 83       	std	Y+7, r30	; 0x07
    141e:	c8 0e       	add	r12, r24
    1420:	d9 1e       	adc	r13, r25
    1422:	8d 81       	ldd	r24, Y+5	; 0x05
    1424:	9e 81       	ldd	r25, Y+6	; 0x06
    1426:	03 96       	adiw	r24, 0x03	; 3
    1428:	9e 83       	std	Y+6, r25	; 0x06
    142a:	8d 83       	std	Y+5, r24	; 0x05
    142c:	e3 e0       	ldi	r30, 0x03	; 3
    142e:	f0 e0       	ldi	r31, 0x00	; 0
    1430:	ee 0e       	add	r14, r30
    1432:	ff 1e       	adc	r15, r31
    1434:	8b 81       	ldd	r24, Y+3	; 0x03
    1436:	9c 81       	ldd	r25, Y+4	; 0x04
    1438:	03 96       	adiw	r24, 0x03	; 3
    143a:	9c 83       	std	Y+4, r25	; 0x04
    143c:	8b 83       	std	Y+3, r24	; 0x03
    143e:	0d 5f       	subi	r16, 0xFD	; 253
    1440:	1f 4f       	sbci	r17, 0xFF	; 255
    1442:	2e 0e       	add	r2, r30
    1444:	3f 1e       	adc	r3, r31
    1446:	ec 85       	ldd	r30, Y+12	; 0x0c
    1448:	fd 85       	ldd	r31, Y+13	; 0x0d
    144a:	33 96       	adiw	r30, 0x03	; 3
    144c:	fd 87       	std	Y+13, r31	; 0x0d
    144e:	ec 87       	std	Y+12, r30	; 0x0c
    1450:	83 e0       	ldi	r24, 0x03	; 3
    1452:	90 e0       	ldi	r25, 0x00	; 0
    1454:	48 0e       	add	r4, r24
    1456:	59 1e       	adc	r5, r25
    1458:	13 96       	adiw	r26, 0x03	; 3
    145a:	25 30       	cpi	r18, 0x05	; 5
    145c:	31 05       	cpc	r19, r1
    145e:	09 f0       	breq	.+2      	; 0x1462 <testAnim+0x16a>
    1460:	68 cf       	rjmp	.-304    	; 0x1332 <testAnim+0x3a>
    1462:	08 94       	sec
    1464:	81 1c       	adc	r8, r1
    1466:	91 1c       	adc	r9, r1
    1468:	95 e0       	ldi	r25, 0x05	; 5
    146a:	89 16       	cp	r8, r25
    146c:	91 04       	cpc	r9, r1
    146e:	f1 f4       	brne	.+60     	; 0x14ac <testAnim+0x1b4>
    1470:	08 94       	sec
    1472:	61 1c       	adc	r6, r1
    1474:	71 1c       	adc	r7, r1
    1476:	e5 e0       	ldi	r30, 0x05	; 5
    1478:	6e 16       	cp	r6, r30
    147a:	71 04       	cpc	r7, r1
    147c:	09 f0       	breq	.+2      	; 0x1480 <testAnim+0x188>
    147e:	4c c0       	rjmp	.+152    	; 0x1518 <testAnim+0x220>
    1480:	f9 85       	ldd	r31, Y+9	; 0x09
    1482:	fa 31       	cpi	r31, 0x1A	; 26
    1484:	20 f0       	brcs	.+8      	; 0x148e <testAnim+0x196>
    1486:	8c e2       	ldi	r24, 0x2C	; 44
    1488:	0e 94 22 05 	call	0xa44 <swapAndWait>
    148c:	04 c0       	rjmp	.+8      	; 0x1496 <testAnim+0x19e>
    148e:	68 e2       	ldi	r22, 0x28	; 40
    1490:	8a e0       	ldi	r24, 0x0A	; 10
    1492:	0e 94 47 05 	call	0xa8e <fade>
    1496:	29 81       	ldd	r18, Y+1	; 0x01
    1498:	3a 81       	ldd	r19, Y+2	; 0x02
    149a:	2f 5f       	subi	r18, 0xFF	; 255
    149c:	3f 4f       	sbci	r19, 0xFF	; 255
    149e:	3a 83       	std	Y+2, r19	; 0x02
    14a0:	29 83       	std	Y+1, r18	; 0x01
    14a2:	22 33       	cpi	r18, 0x32	; 50
    14a4:	31 05       	cpc	r19, r1
    14a6:	09 f0       	breq	.+2      	; 0x14aa <testAnim+0x1b2>
    14a8:	41 c0       	rjmp	.+130    	; 0x152c <testAnim+0x234>
    14aa:	4a c0       	rjmp	.+148    	; 0x1540 <testAnim+0x248>
    14ac:	99 2d       	mov	r25, r9
    14ae:	88 2d       	mov	r24, r8
    14b0:	63 e3       	ldi	r22, 0x33	; 51
    14b2:	70 e0       	ldi	r23, 0x00	; 0
    14b4:	0e 94 ae 16 	call	0x2d5c <__mulhi3>
    14b8:	8b 87       	std	Y+11, r24	; 0x0b
    14ba:	99 2d       	mov	r25, r9
    14bc:	88 2d       	mov	r24, r8
    14be:	6f e0       	ldi	r22, 0x0F	; 15
    14c0:	70 e0       	ldi	r23, 0x00	; 0
    14c2:	0e 94 ae 16 	call	0x2d5c <__mulhi3>
    14c6:	9f 87       	std	Y+15, r25	; 0x0f
    14c8:	8e 87       	std	Y+14, r24	; 0x0e
    14ca:	97 2d       	mov	r25, r7
    14cc:	86 2d       	mov	r24, r6
    14ce:	6b e4       	ldi	r22, 0x4B	; 75
    14d0:	70 e0       	ldi	r23, 0x00	; 0
    14d2:	0e 94 ae 16 	call	0x2d5c <__mulhi3>
    14d6:	ee 85       	ldd	r30, Y+14	; 0x0e
    14d8:	ff 85       	ldd	r31, Y+15	; 0x0f
    14da:	e8 0f       	add	r30, r24
    14dc:	f9 1f       	adc	r31, r25
    14de:	e7 56       	subi	r30, 0x67	; 103
    14e0:	fe 4f       	sbci	r31, 0xFE	; 254
    14e2:	ff 87       	std	Y+15, r31	; 0x0f
    14e4:	ee 87       	std	Y+14, r30	; 0x0e
    14e6:	ae 2e       	mov	r10, r30
    14e8:	bf 2e       	mov	r11, r31
    14ea:	ce 2e       	mov	r12, r30
    14ec:	df 2e       	mov	r13, r31
    14ee:	f8 87       	std	Y+8, r31	; 0x08
    14f0:	ef 83       	std	Y+7, r30	; 0x07
    14f2:	ee 2e       	mov	r14, r30
    14f4:	ff 2e       	mov	r15, r31
    14f6:	fe 83       	std	Y+6, r31	; 0x06
    14f8:	ed 83       	std	Y+5, r30	; 0x05
    14fa:	0e 2f       	mov	r16, r30
    14fc:	1f 2f       	mov	r17, r31
    14fe:	fc 83       	std	Y+4, r31	; 0x04
    1500:	eb 83       	std	Y+3, r30	; 0x03
    1502:	fd 87       	std	Y+13, r31	; 0x0d
    1504:	ec 87       	std	Y+12, r30	; 0x0c
    1506:	2e 2e       	mov	r2, r30
    1508:	3f 2e       	mov	r3, r31
    150a:	ae 2f       	mov	r26, r30
    150c:	bf 2f       	mov	r27, r31
    150e:	4e 2e       	mov	r4, r30
    1510:	5f 2e       	mov	r5, r31
    1512:	20 e0       	ldi	r18, 0x00	; 0
    1514:	30 e0       	ldi	r19, 0x00	; 0
    1516:	0d cf       	rjmp	.-486    	; 0x1332 <testAnim+0x3a>
    1518:	97 2d       	mov	r25, r7
    151a:	86 2d       	mov	r24, r6
    151c:	63 e3       	ldi	r22, 0x33	; 51
    151e:	70 e0       	ldi	r23, 0x00	; 0
    1520:	0e 94 ae 16 	call	0x2d5c <__mulhi3>
    1524:	8a 87       	std	Y+10, r24	; 0x0a
    1526:	88 24       	eor	r8, r8
    1528:	99 24       	eor	r9, r9
    152a:	c0 cf       	rjmp	.-128    	; 0x14ac <testAnim+0x1b4>
    152c:	f9 81       	ldd	r31, Y+1	; 0x01
    152e:	f9 87       	std	Y+9, r31	; 0x09
    1530:	8f 2f       	mov	r24, r31
    1532:	66 e0       	ldi	r22, 0x06	; 6
    1534:	0e 94 c0 16 	call	0x2d80 <__udivmodqi4>
    1538:	49 2f       	mov	r20, r25
    153a:	66 24       	eor	r6, r6
    153c:	77 24       	eor	r7, r7
    153e:	ec cf       	rjmp	.-40     	; 0x1518 <testAnim+0x220>
    1540:	60 91 96 01 	lds	r22, 0x0196
    1544:	70 91 97 01 	lds	r23, 0x0197
    1548:	80 91 98 01 	lds	r24, 0x0198
    154c:	0e 94 9e 03 	call	0x73c <clearImage>
    1550:	62 e3       	ldi	r22, 0x32	; 50
    1552:	8a e0       	ldi	r24, 0x0A	; 10
    1554:	0e 94 47 05 	call	0xa8e <fade>
    1558:	2f 96       	adiw	r28, 0x0f	; 15
    155a:	0f b6       	in	r0, 0x3f	; 63
    155c:	f8 94       	cli
    155e:	de bf       	out	0x3e, r29	; 62
    1560:	0f be       	out	0x3f, r0	; 63
    1562:	cd bf       	out	0x3d, r28	; 61
    1564:	df 91       	pop	r29
    1566:	cf 91       	pop	r28
    1568:	1f 91       	pop	r17
    156a:	0f 91       	pop	r16
    156c:	ff 90       	pop	r15
    156e:	ef 90       	pop	r14
    1570:	df 90       	pop	r13
    1572:	cf 90       	pop	r12
    1574:	bf 90       	pop	r11
    1576:	af 90       	pop	r10
    1578:	9f 90       	pop	r9
    157a:	8f 90       	pop	r8
    157c:	7f 90       	pop	r7
    157e:	6f 90       	pop	r6
    1580:	5f 90       	pop	r5
    1582:	4f 90       	pop	r4
    1584:	3f 90       	pop	r3
    1586:	2f 90       	pop	r2
    1588:	08 95       	ret

0000158a <funkyBeat>:
    158a:	cf 92       	push	r12
    158c:	df 92       	push	r13
    158e:	ef 92       	push	r14
    1590:	ff 92       	push	r15
    1592:	0f 93       	push	r16
    1594:	1f 93       	push	r17
    1596:	cf 93       	push	r28
    1598:	df 93       	push	r29
    159a:	cd b7       	in	r28, 0x3d	; 61
    159c:	de b7       	in	r29, 0x3e	; 62
    159e:	cf 56       	subi	r28, 0x6F	; 111
    15a0:	d0 40       	sbci	r29, 0x00	; 0
    15a2:	0f b6       	in	r0, 0x3f	; 63
    15a4:	f8 94       	cli
    15a6:	de bf       	out	0x3e, r29	; 62
    15a8:	0f be       	out	0x3f, r0	; 63
    15aa:	cd bf       	out	0x3d, r28	; 61
    15ac:	ac 2f       	mov	r26, r28
    15ae:	bd 2f       	mov	r27, r29
    15b0:	53 96       	adiw	r26, 0x13	; 19
    15b2:	e8 e3       	ldi	r30, 0x38	; 56
    15b4:	f1 e0       	ldi	r31, 0x01	; 1
    15b6:	8d e5       	ldi	r24, 0x5D	; 93
    15b8:	01 90       	ld	r0, Z+
    15ba:	0d 92       	st	X+, r0
    15bc:	81 50       	subi	r24, 0x01	; 1
    15be:	e1 f7       	brne	.-8      	; 0x15b8 <funkyBeat+0x2e>
    15c0:	ee 24       	eor	r14, r14
    15c2:	e8 c0       	rjmp	.+464    	; 0x1794 <funkyBeat+0x20a>
    15c4:	fd 2d       	mov	r31, r13
    15c6:	ec 2d       	mov	r30, r12
    15c8:	81 81       	ldd	r24, Z+1	; 0x01
    15ca:	84 30       	cpi	r24, 0x04	; 4
    15cc:	61 f1       	breq	.+88     	; 0x1626 <funkyBeat+0x9c>
    15ce:	85 30       	cpi	r24, 0x05	; 5
    15d0:	50 f4       	brcc	.+20     	; 0x15e6 <funkyBeat+0x5c>
    15d2:	81 30       	cpi	r24, 0x01	; 1
    15d4:	d1 f0       	breq	.+52     	; 0x160a <funkyBeat+0x80>
    15d6:	81 30       	cpi	r24, 0x01	; 1
    15d8:	88 f0       	brcs	.+34     	; 0x15fc <funkyBeat+0x72>
    15da:	82 30       	cpi	r24, 0x02	; 2
    15dc:	e9 f0       	breq	.+58     	; 0x1618 <funkyBeat+0x8e>
    15de:	83 30       	cpi	r24, 0x03	; 3
    15e0:	09 f0       	breq	.+2      	; 0x15e4 <funkyBeat+0x5a>
    15e2:	66 c0       	rjmp	.+204    	; 0x16b0 <funkyBeat+0x126>
    15e4:	27 c0       	rjmp	.+78     	; 0x1634 <funkyBeat+0xaa>
    15e6:	86 30       	cpi	r24, 0x06	; 6
    15e8:	d1 f1       	breq	.+116    	; 0x165e <funkyBeat+0xd4>
    15ea:	86 30       	cpi	r24, 0x06	; 6
    15ec:	50 f1       	brcs	.+84     	; 0x1642 <funkyBeat+0xb8>
    15ee:	87 30       	cpi	r24, 0x07	; 7
    15f0:	09 f4       	brne	.+2      	; 0x15f4 <funkyBeat+0x6a>
    15f2:	43 c0       	rjmp	.+134    	; 0x167a <funkyBeat+0xf0>
    15f4:	88 30       	cpi	r24, 0x08	; 8
    15f6:	09 f0       	breq	.+2      	; 0x15fa <funkyBeat+0x70>
    15f8:	5b c0       	rjmp	.+182    	; 0x16b0 <funkyBeat+0x126>
    15fa:	4d c0       	rjmp	.+154    	; 0x1696 <funkyBeat+0x10c>
    15fc:	f0 90 98 01 	lds	r15, 0x0198
    1600:	00 91 97 01 	lds	r16, 0x0197
    1604:	10 91 96 01 	lds	r17, 0x0196
    1608:	53 c0       	rjmp	.+166    	; 0x16b0 <funkyBeat+0x126>
    160a:	f0 90 62 00 	lds	r15, 0x0062
    160e:	00 91 61 00 	lds	r16, 0x0061
    1612:	10 91 60 00 	lds	r17, 0x0060
    1616:	4c c0       	rjmp	.+152    	; 0x16b0 <funkyBeat+0x126>
    1618:	f0 90 65 00 	lds	r15, 0x0065
    161c:	00 91 64 00 	lds	r16, 0x0064
    1620:	10 91 63 00 	lds	r17, 0x0063
    1624:	45 c0       	rjmp	.+138    	; 0x16b0 <funkyBeat+0x126>
    1626:	f0 90 68 00 	lds	r15, 0x0068
    162a:	00 91 67 00 	lds	r16, 0x0067
    162e:	10 91 66 00 	lds	r17, 0x0066
    1632:	3e c0       	rjmp	.+124    	; 0x16b0 <funkyBeat+0x126>
    1634:	f0 90 6b 00 	lds	r15, 0x006B
    1638:	00 91 6a 00 	lds	r16, 0x006A
    163c:	10 91 69 00 	lds	r17, 0x0069
    1640:	37 c0       	rjmp	.+110    	; 0x16b0 <funkyBeat+0x126>
    1642:	ac 2f       	mov	r26, r28
    1644:	bd 2f       	mov	r27, r29
    1646:	1d 96       	adiw	r26, 0x0d	; 13
    1648:	e5 e3       	ldi	r30, 0x35	; 53
    164a:	f1 e0       	ldi	r31, 0x01	; 1
    164c:	83 e0       	ldi	r24, 0x03	; 3
    164e:	01 90       	ld	r0, Z+
    1650:	0d 92       	st	X+, r0
    1652:	81 50       	subi	r24, 0x01	; 1
    1654:	e1 f7       	brne	.-8      	; 0x164e <funkyBeat+0xc4>
    1656:	ff 84       	ldd	r15, Y+15	; 0x0f
    1658:	0e 85       	ldd	r16, Y+14	; 0x0e
    165a:	1d 85       	ldd	r17, Y+13	; 0x0d
    165c:	29 c0       	rjmp	.+82     	; 0x16b0 <funkyBeat+0x126>
    165e:	ac 2f       	mov	r26, r28
    1660:	bd 2f       	mov	r27, r29
    1662:	1a 96       	adiw	r26, 0x0a	; 10
    1664:	e2 e3       	ldi	r30, 0x32	; 50
    1666:	f1 e0       	ldi	r31, 0x01	; 1
    1668:	83 e0       	ldi	r24, 0x03	; 3
    166a:	01 90       	ld	r0, Z+
    166c:	0d 92       	st	X+, r0
    166e:	81 50       	subi	r24, 0x01	; 1
    1670:	e1 f7       	brne	.-8      	; 0x166a <funkyBeat+0xe0>
    1672:	fc 84       	ldd	r15, Y+12	; 0x0c
    1674:	0b 85       	ldd	r16, Y+11	; 0x0b
    1676:	1a 85       	ldd	r17, Y+10	; 0x0a
    1678:	1b c0       	rjmp	.+54     	; 0x16b0 <funkyBeat+0x126>
    167a:	ac 2f       	mov	r26, r28
    167c:	bd 2f       	mov	r27, r29
    167e:	17 96       	adiw	r26, 0x07	; 7
    1680:	ef e2       	ldi	r30, 0x2F	; 47
    1682:	f1 e0       	ldi	r31, 0x01	; 1
    1684:	83 e0       	ldi	r24, 0x03	; 3
    1686:	01 90       	ld	r0, Z+
    1688:	0d 92       	st	X+, r0
    168a:	81 50       	subi	r24, 0x01	; 1
    168c:	e1 f7       	brne	.-8      	; 0x1686 <funkyBeat+0xfc>
    168e:	f9 84       	ldd	r15, Y+9	; 0x09
    1690:	08 85       	ldd	r16, Y+8	; 0x08
    1692:	1f 81       	ldd	r17, Y+7	; 0x07
    1694:	0d c0       	rjmp	.+26     	; 0x16b0 <funkyBeat+0x126>
    1696:	ac 2f       	mov	r26, r28
    1698:	bd 2f       	mov	r27, r29
    169a:	14 96       	adiw	r26, 0x04	; 4
    169c:	ec e2       	ldi	r30, 0x2C	; 44
    169e:	f1 e0       	ldi	r31, 0x01	; 1
    16a0:	83 e0       	ldi	r24, 0x03	; 3
    16a2:	01 90       	ld	r0, Z+
    16a4:	0d 92       	st	X+, r0
    16a6:	81 50       	subi	r24, 0x01	; 1
    16a8:	e1 f7       	brne	.-8      	; 0x16a2 <funkyBeat+0x118>
    16aa:	fe 80       	ldd	r15, Y+6	; 0x06
    16ac:	0d 81       	ldd	r16, Y+5	; 0x05
    16ae:	1c 81       	ldd	r17, Y+4	; 0x04
    16b0:	fd 2d       	mov	r31, r13
    16b2:	ec 2d       	mov	r30, r12
    16b4:	80 81       	ld	r24, Z
    16b6:	81 30       	cpi	r24, 0x01	; 1
    16b8:	e1 f1       	breq	.+120    	; 0x1732 <funkyBeat+0x1a8>
    16ba:	81 30       	cpi	r24, 0x01	; 1
    16bc:	f8 f0       	brcs	.+62     	; 0x16fc <funkyBeat+0x172>
    16be:	82 30       	cpi	r24, 0x02	; 2
    16c0:	a1 f0       	breq	.+40     	; 0x16ea <funkyBeat+0x160>
    16c2:	83 30       	cpi	r24, 0x03	; 3
    16c4:	09 f0       	breq	.+2      	; 0x16c8 <funkyBeat+0x13e>
    16c6:	4f c0       	rjmp	.+158    	; 0x1766 <funkyBeat+0x1dc>
    16c8:	91 e0       	ldi	r25, 0x01	; 1
    16ca:	99 83       	std	Y+1, r25	; 0x01
    16cc:	82 e0       	ldi	r24, 0x02	; 2
    16ce:	8a 83       	std	Y+2, r24	; 0x02
    16d0:	9b 83       	std	Y+3, r25	; 0x03
    16d2:	fa 8a       	std	Y+18, r15	; 0x12
    16d4:	09 8b       	std	Y+17, r16	; 0x11
    16d6:	18 8b       	std	Y+16, r17	; 0x10
    16d8:	21 2f       	mov	r18, r17
    16da:	30 2f       	mov	r19, r16
    16dc:	4f 2d       	mov	r20, r15
    16de:	61 e0       	ldi	r22, 0x01	; 1
    16e0:	72 e0       	ldi	r23, 0x02	; 2
    16e2:	81 e0       	ldi	r24, 0x01	; 1
    16e4:	0e 94 37 01 	call	0x26e <setVoxel>
    16e8:	3e c0       	rjmp	.+124    	; 0x1766 <funkyBeat+0x1dc>
    16ea:	fa 8a       	std	Y+18, r15	; 0x12
    16ec:	09 8b       	std	Y+17, r16	; 0x11
    16ee:	18 8b       	std	Y+16, r17	; 0x10
    16f0:	61 2f       	mov	r22, r17
    16f2:	70 2f       	mov	r23, r16
    16f4:	8f 2d       	mov	r24, r15
    16f6:	0e 94 9e 03 	call	0x73c <clearImage>
    16fa:	35 c0       	rjmp	.+106    	; 0x1766 <funkyBeat+0x1dc>
    16fc:	a9 e9       	ldi	r26, 0x99	; 153
    16fe:	b1 e0       	ldi	r27, 0x01	; 1
    1700:	80 e0       	ldi	r24, 0x00	; 0
    1702:	90 e0       	ldi	r25, 0x00	; 0
    1704:	80 ff       	sbrs	r24, 0
    1706:	0f c0       	rjmp	.+30     	; 0x1726 <funkyBeat+0x19c>
    1708:	fb 2f       	mov	r31, r27
    170a:	ea 2f       	mov	r30, r26
    170c:	11 93       	st	Z+, r17
    170e:	2e 2f       	mov	r18, r30
    1710:	3f 2f       	mov	r19, r31
    1712:	fb 2f       	mov	r31, r27
    1714:	ea 2f       	mov	r30, r26
    1716:	01 83       	std	Z+1, r16	; 0x01
    1718:	f3 2f       	mov	r31, r19
    171a:	e2 2f       	mov	r30, r18
    171c:	f1 82       	std	Z+1, r15	; 0x01
    171e:	b3 2f       	mov	r27, r19
    1720:	a2 2f       	mov	r26, r18
    1722:	12 96       	adiw	r26, 0x02	; 2
    1724:	01 c0       	rjmp	.+2      	; 0x1728 <funkyBeat+0x19e>
    1726:	13 96       	adiw	r26, 0x03	; 3
    1728:	01 96       	adiw	r24, 0x01	; 1
    172a:	8d 37       	cpi	r24, 0x7D	; 125
    172c:	91 05       	cpc	r25, r1
    172e:	d9 f0       	breq	.+54     	; 0x1766 <funkyBeat+0x1dc>
    1730:	e9 cf       	rjmp	.-46     	; 0x1704 <funkyBeat+0x17a>
    1732:	a9 e9       	ldi	r26, 0x99	; 153
    1734:	b1 e0       	ldi	r27, 0x01	; 1
    1736:	80 e0       	ldi	r24, 0x00	; 0
    1738:	90 e0       	ldi	r25, 0x00	; 0
    173a:	80 fd       	sbrc	r24, 0
    173c:	0f c0       	rjmp	.+30     	; 0x175c <funkyBeat+0x1d2>
    173e:	fb 2f       	mov	r31, r27
    1740:	ea 2f       	mov	r30, r26
    1742:	11 93       	st	Z+, r17
    1744:	2e 2f       	mov	r18, r30
    1746:	3f 2f       	mov	r19, r31
    1748:	fb 2f       	mov	r31, r27
    174a:	ea 2f       	mov	r30, r26
    174c:	01 83       	std	Z+1, r16	; 0x01
    174e:	f3 2f       	mov	r31, r19
    1750:	e2 2f       	mov	r30, r18
    1752:	f1 82       	std	Z+1, r15	; 0x01
    1754:	b3 2f       	mov	r27, r19
    1756:	a2 2f       	mov	r26, r18
    1758:	12 96       	adiw	r26, 0x02	; 2
    175a:	01 c0       	rjmp	.+2      	; 0x175e <funkyBeat+0x1d4>
    175c:	13 96       	adiw	r26, 0x03	; 3
    175e:	01 96       	adiw	r24, 0x01	; 1
    1760:	8d 37       	cpi	r24, 0x7D	; 125
    1762:	91 05       	cpc	r25, r1
    1764:	51 f7       	brne	.-44     	; 0x173a <funkyBeat+0x1b0>
    1766:	fd 2d       	mov	r31, r13
    1768:	ec 2d       	mov	r30, r12
    176a:	82 81       	ldd	r24, Z+2	; 0x02
    176c:	82 95       	swap	r24
    176e:	80 7f       	andi	r24, 0xF0	; 240
    1770:	0e 94 22 05 	call	0xa44 <swapAndWait>
    1774:	83 e0       	ldi	r24, 0x03	; 3
    1776:	90 e0       	ldi	r25, 0x00	; 0
    1778:	c8 0e       	add	r12, r24
    177a:	d9 1e       	adc	r13, r25
    177c:	8c 2f       	mov	r24, r28
    177e:	9d 2f       	mov	r25, r29
    1780:	80 59       	subi	r24, 0x90	; 144
    1782:	9f 4f       	sbci	r25, 0xFF	; 255
    1784:	c8 16       	cp	r12, r24
    1786:	d9 06       	cpc	r13, r25
    1788:	09 f0       	breq	.+2      	; 0x178c <funkyBeat+0x202>
    178a:	1c cf       	rjmp	.-456    	; 0x15c4 <funkyBeat+0x3a>
    178c:	e3 94       	inc	r14
    178e:	9a e0       	ldi	r25, 0x0A	; 10
    1790:	e9 16       	cp	r14, r25
    1792:	31 f0       	breq	.+12     	; 0x17a0 <funkyBeat+0x216>
    1794:	63 e1       	ldi	r22, 0x13	; 19
    1796:	c6 2e       	mov	r12, r22
    1798:	d1 2c       	mov	r13, r1
    179a:	cc 0e       	add	r12, r28
    179c:	dd 1e       	adc	r13, r29
    179e:	12 cf       	rjmp	.-476    	; 0x15c4 <funkyBeat+0x3a>
    17a0:	c1 59       	subi	r28, 0x91	; 145
    17a2:	df 4f       	sbci	r29, 0xFF	; 255
    17a4:	0f b6       	in	r0, 0x3f	; 63
    17a6:	f8 94       	cli
    17a8:	de bf       	out	0x3e, r29	; 62
    17aa:	0f be       	out	0x3f, r0	; 63
    17ac:	cd bf       	out	0x3d, r28	; 61
    17ae:	df 91       	pop	r29
    17b0:	cf 91       	pop	r28
    17b2:	1f 91       	pop	r17
    17b4:	0f 91       	pop	r16
    17b6:	ff 90       	pop	r15
    17b8:	ef 90       	pop	r14
    17ba:	df 90       	pop	r13
    17bc:	cf 90       	pop	r12
    17be:	08 95       	ret

000017c0 <movingCubes>:
    17c0:	7f 92       	push	r7
    17c2:	8f 92       	push	r8
    17c4:	9f 92       	push	r9
    17c6:	af 92       	push	r10
    17c8:	bf 92       	push	r11
    17ca:	cf 92       	push	r12
    17cc:	df 92       	push	r13
    17ce:	ef 92       	push	r14
    17d0:	ff 92       	push	r15
    17d2:	0f 93       	push	r16
    17d4:	1f 93       	push	r17
    17d6:	cf 93       	push	r28
    17d8:	df 93       	push	r29
    17da:	cd b7       	in	r28, 0x3d	; 61
    17dc:	de b7       	in	r29, 0x3e	; 62
    17de:	a0 97       	sbiw	r28, 0x20	; 32
    17e0:	0f b6       	in	r0, 0x3f	; 63
    17e2:	f8 94       	cli
    17e4:	de bf       	out	0x3e, r29	; 62
    17e6:	0f be       	out	0x3f, r0	; 63
    17e8:	cd bf       	out	0x3d, r28	; 61
    17ea:	ac 2f       	mov	r26, r28
    17ec:	bd 2f       	mov	r27, r29
    17ee:	1a 96       	adiw	r26, 0x0a	; 10
    17f0:	ed e7       	ldi	r30, 0x7D	; 125
    17f2:	f0 e0       	ldi	r31, 0x00	; 0
    17f4:	87 e1       	ldi	r24, 0x17	; 23
    17f6:	01 90       	ld	r0, Z+
    17f8:	0d 92       	st	X+, r0
    17fa:	81 50       	subi	r24, 0x01	; 1
    17fc:	e1 f7       	brne	.-8      	; 0x17f6 <movingCubes+0x36>
    17fe:	88 24       	eor	r8, r8
    1800:	77 24       	eor	r7, r7
    1802:	ee 24       	eor	r14, r14
    1804:	99 24       	eor	r9, r9
    1806:	00 e0       	ldi	r16, 0x00	; 0
    1808:	a3 e0       	ldi	r26, 0x03	; 3
    180a:	fa 2e       	mov	r15, r26
    180c:	f3 e0       	ldi	r31, 0x03	; 3
    180e:	af 2e       	mov	r10, r31
    1810:	13 e0       	ldi	r17, 0x03	; 3
    1812:	e3 e0       	ldi	r30, 0x03	; 3
    1814:	be 2e       	mov	r11, r30
    1816:	cc 24       	eor	r12, r12
    1818:	73 e0       	ldi	r23, 0x03	; 3
    181a:	d7 2e       	mov	r13, r23
    181c:	7d c0       	rjmp	.+250    	; 0x1918 <movingCubes+0x158>
    181e:	83 30       	cpi	r24, 0x03	; 3
    1820:	09 f1       	breq	.+66     	; 0x1864 <movingCubes+0xa4>
    1822:	84 30       	cpi	r24, 0x04	; 4
    1824:	30 f4       	brcc	.+12     	; 0x1832 <movingCubes+0x72>
    1826:	81 30       	cpi	r24, 0x01	; 1
    1828:	61 f0       	breq	.+24     	; 0x1842 <movingCubes+0x82>
    182a:	82 30       	cpi	r24, 0x02	; 2
    182c:	09 f0       	breq	.+2      	; 0x1830 <movingCubes+0x70>
    182e:	4d c0       	rjmp	.+154    	; 0x18ca <movingCubes+0x10a>
    1830:	0c c0       	rjmp	.+24     	; 0x184a <movingCubes+0x8a>
    1832:	85 30       	cpi	r24, 0x05	; 5
    1834:	91 f1       	breq	.+100    	; 0x189a <movingCubes+0xda>
    1836:	85 30       	cpi	r24, 0x05	; 5
    1838:	08 f1       	brcs	.+66     	; 0x187c <movingCubes+0xbc>
    183a:	86 30       	cpi	r24, 0x06	; 6
    183c:	09 f0       	breq	.+2      	; 0x1840 <movingCubes+0x80>
    183e:	45 c0       	rjmp	.+138    	; 0x18ca <movingCubes+0x10a>
    1840:	30 c0       	rjmp	.+96     	; 0x18a2 <movingCubes+0xe2>
    1842:	0f 5f       	subi	r16, 0xFF	; 255
    1844:	11 50       	subi	r17, 0x01	; 1
    1846:	da 94       	dec	r13
    1848:	03 c0       	rjmp	.+6      	; 0x1850 <movingCubes+0x90>
    184a:	01 50       	subi	r16, 0x01	; 1
    184c:	1f 5f       	subi	r17, 0xFF	; 255
    184e:	d3 94       	inc	r13
    1850:	05 30       	cpi	r16, 0x05	; 5
    1852:	08 f0       	brcs	.+2      	; 0x1856 <movingCubes+0x96>
    1854:	00 e0       	ldi	r16, 0x00	; 0
    1856:	15 30       	cpi	r17, 0x05	; 5
    1858:	08 f0       	brcs	.+2      	; 0x185c <movingCubes+0x9c>
    185a:	10 e0       	ldi	r17, 0x00	; 0
    185c:	84 e0       	ldi	r24, 0x04	; 4
    185e:	8d 15       	cp	r24, r13
    1860:	78 f1       	brcs	.+94     	; 0x18c0 <movingCubes+0x100>
    1862:	33 c0       	rjmp	.+102    	; 0x18ca <movingCubes+0x10a>
    1864:	93 94       	inc	r9
    1866:	aa 94       	dec	r10
    1868:	c3 94       	inc	r12
    186a:	84 e0       	ldi	r24, 0x04	; 4
    186c:	89 15       	cp	r24, r9
    186e:	08 f4       	brcc	.+2      	; 0x1872 <movingCubes+0xb2>
    1870:	00 e0       	ldi	r16, 0x00	; 0
    1872:	84 e0       	ldi	r24, 0x04	; 4
    1874:	8a 15       	cp	r24, r10
    1876:	68 f4       	brcc	.+26     	; 0x1892 <movingCubes+0xd2>
    1878:	10 e0       	ldi	r17, 0x00	; 0
    187a:	0b c0       	rjmp	.+22     	; 0x1892 <movingCubes+0xd2>
    187c:	9a 94       	dec	r9
    187e:	a3 94       	inc	r10
    1880:	ca 94       	dec	r12
    1882:	84 e0       	ldi	r24, 0x04	; 4
    1884:	89 15       	cp	r24, r9
    1886:	08 f4       	brcc	.+2      	; 0x188a <movingCubes+0xca>
    1888:	99 24       	eor	r9, r9
    188a:	84 e0       	ldi	r24, 0x04	; 4
    188c:	8a 15       	cp	r24, r10
    188e:	08 f4       	brcc	.+2      	; 0x1892 <movingCubes+0xd2>
    1890:	aa 24       	eor	r10, r10
    1892:	84 e0       	ldi	r24, 0x04	; 4
    1894:	8c 15       	cp	r24, r12
    1896:	b0 f0       	brcs	.+44     	; 0x18c4 <movingCubes+0x104>
    1898:	18 c0       	rjmp	.+48     	; 0x18ca <movingCubes+0x10a>
    189a:	e3 94       	inc	r14
    189c:	fa 94       	dec	r15
    189e:	ba 94       	dec	r11
    18a0:	03 c0       	rjmp	.+6      	; 0x18a8 <movingCubes+0xe8>
    18a2:	ea 94       	dec	r14
    18a4:	f3 94       	inc	r15
    18a6:	b3 94       	inc	r11
    18a8:	84 e0       	ldi	r24, 0x04	; 4
    18aa:	8e 15       	cp	r24, r14
    18ac:	08 f4       	brcc	.+2      	; 0x18b0 <movingCubes+0xf0>
    18ae:	ee 24       	eor	r14, r14
    18b0:	84 e0       	ldi	r24, 0x04	; 4
    18b2:	8f 15       	cp	r24, r15
    18b4:	08 f4       	brcc	.+2      	; 0x18b8 <movingCubes+0xf8>
    18b6:	ff 24       	eor	r15, r15
    18b8:	84 e0       	ldi	r24, 0x04	; 4
    18ba:	8b 15       	cp	r24, r11
    18bc:	28 f0       	brcs	.+10     	; 0x18c8 <movingCubes+0x108>
    18be:	05 c0       	rjmp	.+10     	; 0x18ca <movingCubes+0x10a>
    18c0:	dd 24       	eor	r13, r13
    18c2:	03 c0       	rjmp	.+6      	; 0x18ca <movingCubes+0x10a>
    18c4:	cc 24       	eor	r12, r12
    18c6:	01 c0       	rjmp	.+2      	; 0x18ca <movingCubes+0x10a>
    18c8:	bb 24       	eor	r11, r11
    18ca:	83 94       	inc	r8
    18cc:	ea 82       	std	Y+2, r14	; 0x02
    18ce:	99 82       	std	Y+1, r9	; 0x01
    18d0:	0b 83       	std	Y+3, r16	; 0x03
    18d2:	40 e0       	ldi	r20, 0x00	; 0
    18d4:	69 2d       	mov	r22, r9
    18d6:	7e 2d       	mov	r23, r14
    18d8:	80 2f       	mov	r24, r16
    18da:	0e 94 4e 06 	call	0xc9c <drawCube>
    18de:	fd 82       	std	Y+5, r15	; 0x05
    18e0:	ae 82       	std	Y+6, r10	; 0x06
    18e2:	1c 83       	std	Y+4, r17	; 0x04
    18e4:	41 e0       	ldi	r20, 0x01	; 1
    18e6:	61 2f       	mov	r22, r17
    18e8:	7f 2d       	mov	r23, r15
    18ea:	8a 2d       	mov	r24, r10
    18ec:	0e 94 4e 06 	call	0xc9c <drawCube>
    18f0:	b8 86       	std	Y+8, r11	; 0x08
    18f2:	cf 82       	std	Y+7, r12	; 0x07
    18f4:	d9 86       	std	Y+9, r13	; 0x09
    18f6:	42 e0       	ldi	r20, 0x02	; 2
    18f8:	6c 2d       	mov	r22, r12
    18fa:	7b 2d       	mov	r23, r11
    18fc:	8d 2d       	mov	r24, r13
    18fe:	0e 94 4e 06 	call	0xc9c <drawCube>
    1902:	8e e6       	ldi	r24, 0x6E	; 110
    1904:	0e 94 22 05 	call	0xa44 <swapAndWait>
    1908:	60 91 96 01 	lds	r22, 0x0196
    190c:	70 91 97 01 	lds	r23, 0x0197
    1910:	80 91 98 01 	lds	r24, 0x0198
    1914:	0e 94 4f 03 	call	0x69e <clearScreen>
    1918:	fd 2f       	mov	r31, r29
    191a:	ec 2f       	mov	r30, r28
    191c:	e8 0d       	add	r30, r8
    191e:	f1 1d       	adc	r31, r1
    1920:	82 85       	ldd	r24, Z+10	; 0x0a
    1922:	88 23       	and	r24, r24
    1924:	09 f0       	breq	.+2      	; 0x1928 <movingCubes+0x168>
    1926:	7b cf       	rjmp	.-266    	; 0x181e <movingCubes+0x5e>
    1928:	73 94       	inc	r7
    192a:	84 e0       	ldi	r24, 0x04	; 4
    192c:	87 15       	cp	r24, r7
    192e:	10 f0       	brcs	.+4      	; 0x1934 <movingCubes+0x174>
    1930:	88 24       	eor	r8, r8
    1932:	f2 cf       	rjmp	.-28     	; 0x1918 <movingCubes+0x158>
    1934:	a0 96       	adiw	r28, 0x20	; 32
    1936:	0f b6       	in	r0, 0x3f	; 63
    1938:	f8 94       	cli
    193a:	de bf       	out	0x3e, r29	; 62
    193c:	0f be       	out	0x3f, r0	; 63
    193e:	cd bf       	out	0x3d, r28	; 61
    1940:	df 91       	pop	r29
    1942:	cf 91       	pop	r28
    1944:	1f 91       	pop	r17
    1946:	0f 91       	pop	r16
    1948:	ff 90       	pop	r15
    194a:	ef 90       	pop	r14
    194c:	df 90       	pop	r13
    194e:	cf 90       	pop	r12
    1950:	bf 90       	pop	r11
    1952:	af 90       	pop	r10
    1954:	9f 90       	pop	r9
    1956:	8f 90       	pop	r8
    1958:	7f 90       	pop	r7
    195a:	08 95       	ret

0000195c <snake>:
    195c:	2f 92       	push	r2
    195e:	3f 92       	push	r3
    1960:	4f 92       	push	r4
    1962:	5f 92       	push	r5
    1964:	6f 92       	push	r6
    1966:	7f 92       	push	r7
    1968:	8f 92       	push	r8
    196a:	9f 92       	push	r9
    196c:	af 92       	push	r10
    196e:	bf 92       	push	r11
    1970:	cf 92       	push	r12
    1972:	df 92       	push	r13
    1974:	ef 92       	push	r14
    1976:	ff 92       	push	r15
    1978:	0f 93       	push	r16
    197a:	1f 93       	push	r17
    197c:	cf 93       	push	r28
    197e:	df 93       	push	r29
    1980:	cd b7       	in	r28, 0x3d	; 61
    1982:	de b7       	in	r29, 0x3e	; 62
    1984:	c3 56       	subi	r28, 0x63	; 99
    1986:	d1 40       	sbci	r29, 0x01	; 1
    1988:	0f b6       	in	r0, 0x3f	; 63
    198a:	f8 94       	cli
    198c:	de bf       	out	0x3e, r29	; 62
    198e:	0f be       	out	0x3f, r0	; 63
    1990:	cd bf       	out	0x3d, r28	; 61
    1992:	81 e0       	ldi	r24, 0x01	; 1
    1994:	8c ab       	std	Y+52, r24	; 0x34
    1996:	8d ab       	std	Y+53, r24	; 0x35
    1998:	1e aa       	std	Y+54, r1	; 0x36
    199a:	8f ab       	std	Y+55, r24	; 0x37
    199c:	82 e0       	ldi	r24, 0x02	; 2
    199e:	88 af       	std	Y+56, r24	; 0x38
    19a0:	19 ae       	std	Y+57, r1	; 0x39
    19a2:	60 91 96 01 	lds	r22, 0x0196
    19a6:	70 91 97 01 	lds	r23, 0x0197
    19aa:	80 91 98 01 	lds	r24, 0x0198
    19ae:	0e 94 4f 03 	call	0x69e <clearScreen>
    19b2:	f7 e3       	ldi	r31, 0x37	; 55
    19b4:	af 2e       	mov	r10, r31
    19b6:	b1 2c       	mov	r11, r1
    19b8:	ac 0e       	add	r10, r28
    19ba:	bd 1e       	adc	r11, r29
    19bc:	e4 e3       	ldi	r30, 0x34	; 52
    19be:	ee 2e       	mov	r14, r30
    19c0:	f1 2c       	mov	r15, r1
    19c2:	ec 0e       	add	r14, r28
    19c4:	fd 1e       	adc	r15, r29
    19c6:	99 24       	eor	r9, r9
    19c8:	82 e0       	ldi	r24, 0x02	; 2
    19ca:	cd 59       	subi	r28, 0x9D	; 157
    19cc:	de 4f       	sbci	r29, 0xFE	; 254
    19ce:	88 83       	st	Y, r24
    19d0:	c3 56       	subi	r28, 0x63	; 99
    19d2:	d1 40       	sbci	r29, 0x01	; 1
    19d4:	7f ef       	ldi	r23, 0xFF	; 255
    19d6:	27 2e       	mov	r2, r23
    19d8:	61 e0       	ldi	r22, 0x01	; 1
    19da:	36 2e       	mov	r3, r22
    19dc:	55 e0       	ldi	r21, 0x05	; 5
    19de:	55 2e       	mov	r5, r21
    19e0:	44 24       	eor	r4, r4
    19e2:	4c ed       	ldi	r20, 0xDC	; 220
    19e4:	64 2e       	mov	r6, r20
    19e6:	32 e3       	ldi	r19, 0x32	; 50
    19e8:	73 2e       	mov	r7, r19
    19ea:	24 e6       	ldi	r18, 0x64	; 100
    19ec:	82 2e       	mov	r8, r18
    19ee:	43 94       	inc	r4
    19f0:	ac 2f       	mov	r26, r28
    19f2:	bd 2f       	mov	r27, r29
    19f4:	1d 96       	adiw	r26, 0x0d	; 13
    19f6:	fb 2d       	mov	r31, r11
    19f8:	ea 2d       	mov	r30, r10
    19fa:	83 e0       	ldi	r24, 0x03	; 3
    19fc:	01 90       	ld	r0, Z+
    19fe:	0d 92       	st	X+, r0
    1a00:	81 50       	subi	r24, 0x01	; 1
    1a02:	e1 f7       	brne	.-8      	; 0x19fc <snake+0xa0>
    1a04:	e3 e0       	ldi	r30, 0x03	; 3
    1a06:	f0 e0       	ldi	r31, 0x00	; 0
    1a08:	ae 0e       	add	r10, r30
    1a0a:	bf 1e       	adc	r11, r31
    1a0c:	8c 2f       	mov	r24, r28
    1a0e:	9d 2f       	mov	r25, r29
    1a10:	80 5a       	subi	r24, 0xA0	; 160
    1a12:	9e 4f       	sbci	r25, 0xFE	; 254
    1a14:	a8 16       	cp	r10, r24
    1a16:	b9 06       	cpc	r11, r25
    1a18:	29 f4       	brne	.+10     	; 0x1a24 <snake+0xc8>
    1a1a:	94 e3       	ldi	r25, 0x34	; 52
    1a1c:	a9 2e       	mov	r10, r25
    1a1e:	b1 2c       	mov	r11, r1
    1a20:	ac 0e       	add	r10, r28
    1a22:	bd 1e       	adc	r11, r29
    1a24:	cc 24       	eor	r12, r12
    1a26:	b4 c0       	rjmp	.+360    	; 0x1b90 <snake+0x234>
    1a28:	81 e0       	ldi	r24, 0x01	; 1
    1a2a:	d8 2e       	mov	r13, r24
    1a2c:	4d 2d       	mov	r20, r13
    1a2e:	6d 85       	ldd	r22, Y+13	; 0x0d
    1a30:	7e 85       	ldd	r23, Y+14	; 0x0e
    1a32:	8f 85       	ldd	r24, Y+15	; 0x0f
    1a34:	0e 94 ea 02 	call	0x5d4 <getNextVoxel>
    1a38:	fd 2f       	mov	r31, r29
    1a3a:	ec 2f       	mov	r30, r28
    1a3c:	e0 5a       	subi	r30, 0xA0	; 160
    1a3e:	fe 4f       	sbci	r31, 0xFE	; 254
    1a40:	60 83       	st	Z, r22
    1a42:	ac 2f       	mov	r26, r28
    1a44:	bd 2f       	mov	r27, r29
    1a46:	af 59       	subi	r26, 0x9F	; 159
    1a48:	be 4f       	sbci	r27, 0xFE	; 254
    1a4a:	7c 93       	st	X, r23
    1a4c:	ac 2f       	mov	r26, r28
    1a4e:	bd 2f       	mov	r27, r29
    1a50:	ae 59       	subi	r26, 0x9E	; 158
    1a52:	be 4f       	sbci	r27, 0xFE	; 254
    1a54:	8c 93       	st	X, r24
    1a56:	ac 2f       	mov	r26, r28
    1a58:	bd 2f       	mov	r27, r29
    1a5a:	1a 96       	adiw	r26, 0x0a	; 10
    1a5c:	83 e0       	ldi	r24, 0x03	; 3
    1a5e:	01 90       	ld	r0, Z+
    1a60:	0d 92       	st	X+, r0
    1a62:	81 50       	subi	r24, 0x01	; 1
    1a64:	e1 f7       	brne	.-8      	; 0x1a5e <snake+0x102>
    1a66:	0c 2d       	mov	r16, r12
    1a68:	11 27       	eor	r17, r17
    1a6a:	91 2f       	mov	r25, r17
    1a6c:	80 2f       	mov	r24, r16
    1a6e:	63 e0       	ldi	r22, 0x03	; 3
    1a70:	70 e0       	ldi	r23, 0x00	; 0
    1a72:	0e 94 ae 16 	call	0x2d5c <__mulhi3>
    1a76:	fd 2f       	mov	r31, r29
    1a78:	ec 2f       	mov	r30, r28
    1a7a:	e8 0f       	add	r30, r24
    1a7c:	f9 1f       	adc	r31, r25
    1a7e:	9a 85       	ldd	r25, Y+10	; 0x0a
    1a80:	86 89       	ldd	r24, Z+22	; 0x16
    1a82:	98 17       	cp	r25, r24
    1a84:	09 f0       	breq	.+2      	; 0x1a88 <snake+0x12c>
    1a86:	7e c0       	rjmp	.+252    	; 0x1b84 <snake+0x228>
    1a88:	4d 2d       	mov	r20, r13
    1a8a:	6d 85       	ldd	r22, Y+13	; 0x0d
    1a8c:	7e 85       	ldd	r23, Y+14	; 0x0e
    1a8e:	8f 85       	ldd	r24, Y+15	; 0x0f
    1a90:	0e 94 ea 02 	call	0x5d4 <getNextVoxel>
    1a94:	fd 2f       	mov	r31, r29
    1a96:	ec 2f       	mov	r30, r28
    1a98:	e0 5a       	subi	r30, 0xA0	; 160
    1a9a:	fe 4f       	sbci	r31, 0xFE	; 254
    1a9c:	60 83       	st	Z, r22
    1a9e:	ac 2f       	mov	r26, r28
    1aa0:	bd 2f       	mov	r27, r29
    1aa2:	af 59       	subi	r26, 0x9F	; 159
    1aa4:	be 4f       	sbci	r27, 0xFE	; 254
    1aa6:	7c 93       	st	X, r23
    1aa8:	ac 2f       	mov	r26, r28
    1aaa:	bd 2f       	mov	r27, r29
    1aac:	ae 59       	subi	r26, 0x9E	; 158
    1aae:	be 4f       	sbci	r27, 0xFE	; 254
    1ab0:	8c 93       	st	X, r24
    1ab2:	ac 2f       	mov	r26, r28
    1ab4:	bd 2f       	mov	r27, r29
    1ab6:	17 96       	adiw	r26, 0x07	; 7
    1ab8:	83 e0       	ldi	r24, 0x03	; 3
    1aba:	01 90       	ld	r0, Z+
    1abc:	0d 92       	st	X+, r0
    1abe:	81 50       	subi	r24, 0x01	; 1
    1ac0:	e1 f7       	brne	.-8      	; 0x1aba <snake+0x15e>
    1ac2:	91 2f       	mov	r25, r17
    1ac4:	80 2f       	mov	r24, r16
    1ac6:	63 e0       	ldi	r22, 0x03	; 3
    1ac8:	70 e0       	ldi	r23, 0x00	; 0
    1aca:	0e 94 ae 16 	call	0x2d5c <__mulhi3>
    1ace:	fd 2f       	mov	r31, r29
    1ad0:	ec 2f       	mov	r30, r28
    1ad2:	e8 0f       	add	r30, r24
    1ad4:	f9 1f       	adc	r31, r25
    1ad6:	98 85       	ldd	r25, Y+8	; 0x08
    1ad8:	87 89       	ldd	r24, Z+23	; 0x17
    1ada:	98 17       	cp	r25, r24
    1adc:	09 f0       	breq	.+2      	; 0x1ae0 <snake+0x184>
    1ade:	52 c0       	rjmp	.+164    	; 0x1b84 <snake+0x228>
    1ae0:	4d 2d       	mov	r20, r13
    1ae2:	6d 85       	ldd	r22, Y+13	; 0x0d
    1ae4:	7e 85       	ldd	r23, Y+14	; 0x0e
    1ae6:	8f 85       	ldd	r24, Y+15	; 0x0f
    1ae8:	0e 94 ea 02 	call	0x5d4 <getNextVoxel>
    1aec:	fd 2f       	mov	r31, r29
    1aee:	ec 2f       	mov	r30, r28
    1af0:	e0 5a       	subi	r30, 0xA0	; 160
    1af2:	fe 4f       	sbci	r31, 0xFE	; 254
    1af4:	60 83       	st	Z, r22
    1af6:	ac 2f       	mov	r26, r28
    1af8:	bd 2f       	mov	r27, r29
    1afa:	af 59       	subi	r26, 0x9F	; 159
    1afc:	be 4f       	sbci	r27, 0xFE	; 254
    1afe:	7c 93       	st	X, r23
    1b00:	ac 2f       	mov	r26, r28
    1b02:	bd 2f       	mov	r27, r29
    1b04:	ae 59       	subi	r26, 0x9E	; 158
    1b06:	be 4f       	sbci	r27, 0xFE	; 254
    1b08:	8c 93       	st	X, r24
    1b0a:	ac 2f       	mov	r26, r28
    1b0c:	bd 2f       	mov	r27, r29
    1b0e:	14 96       	adiw	r26, 0x04	; 4
    1b10:	83 e0       	ldi	r24, 0x03	; 3
    1b12:	01 90       	ld	r0, Z+
    1b14:	0d 92       	st	X+, r0
    1b16:	81 50       	subi	r24, 0x01	; 1
    1b18:	e1 f7       	brne	.-8      	; 0x1b12 <snake+0x1b6>
    1b1a:	91 2f       	mov	r25, r17
    1b1c:	80 2f       	mov	r24, r16
    1b1e:	63 e0       	ldi	r22, 0x03	; 3
    1b20:	70 e0       	ldi	r23, 0x00	; 0
    1b22:	0e 94 ae 16 	call	0x2d5c <__mulhi3>
    1b26:	fd 2f       	mov	r31, r29
    1b28:	ec 2f       	mov	r30, r28
    1b2a:	e8 0f       	add	r30, r24
    1b2c:	f9 1f       	adc	r31, r25
    1b2e:	9e 81       	ldd	r25, Y+6	; 0x06
    1b30:	80 8d       	ldd	r24, Z+24	; 0x18
    1b32:	98 17       	cp	r25, r24
    1b34:	39 f5       	brne	.+78     	; 0x1b84 <snake+0x228>
    1b36:	18 c0       	rjmp	.+48     	; 0x1b68 <snake+0x20c>
    1b38:	93 2f       	mov	r25, r19
    1b3a:	82 2f       	mov	r24, r18
    1b3c:	63 e0       	ldi	r22, 0x03	; 3
    1b3e:	70 e0       	ldi	r23, 0x00	; 0
    1b40:	0e 94 ae 16 	call	0x2d5c <__mulhi3>
    1b44:	2c 2f       	mov	r18, r28
    1b46:	3d 2f       	mov	r19, r29
    1b48:	2f 5f       	subi	r18, 0xFF	; 255
    1b4a:	3f 4f       	sbci	r19, 0xFF	; 255
    1b4c:	28 0f       	add	r18, r24
    1b4e:	39 1f       	adc	r19, r25
    1b50:	b3 2f       	mov	r27, r19
    1b52:	a2 2f       	mov	r26, r18
    1b54:	55 96       	adiw	r26, 0x15	; 21
    1b56:	f3 2f       	mov	r31, r19
    1b58:	e2 2f       	mov	r30, r18
    1b5a:	78 96       	adiw	r30, 0x18	; 24
    1b5c:	83 e0       	ldi	r24, 0x03	; 3
    1b5e:	01 90       	ld	r0, Z+
    1b60:	0d 92       	st	X+, r0
    1b62:	81 50       	subi	r24, 0x01	; 1
    1b64:	e1 f7       	brne	.-8      	; 0x1b5e <snake+0x202>
    1b66:	c3 94       	inc	r12
    1b68:	2c 2d       	mov	r18, r12
    1b6a:	33 27       	eor	r19, r19
    1b6c:	89 2d       	mov	r24, r9
    1b6e:	99 27       	eor	r25, r25
    1b70:	01 97       	sbiw	r24, 0x01	; 1
    1b72:	28 17       	cp	r18, r24
    1b74:	39 07       	cpc	r19, r25
    1b76:	04 f3       	brlt	.-64     	; 0x1b38 <snake+0x1dc>
    1b78:	5d 2c       	mov	r5, r13
    1b7a:	53 94       	inc	r5
    1b7c:	9a 94       	dec	r9
    1b7e:	01 e0       	ldi	r16, 0x01	; 1
    1b80:	d0 2e       	mov	r13, r16
    1b82:	38 c0       	rjmp	.+112    	; 0x1bf4 <snake+0x298>
    1b84:	d3 94       	inc	r13
    1b86:	f7 e0       	ldi	r31, 0x07	; 7
    1b88:	df 16       	cp	r13, r31
    1b8a:	09 f0       	breq	.+2      	; 0x1b8e <snake+0x232>
    1b8c:	4f cf       	rjmp	.-354    	; 0x1a2c <snake+0xd0>
    1b8e:	c3 94       	inc	r12
    1b90:	c9 14       	cp	r12, r9
    1b92:	09 f0       	breq	.+2      	; 0x1b96 <snake+0x23a>
    1b94:	49 cf       	rjmp	.-366    	; 0x1a28 <snake+0xcc>
    1b96:	10 e0       	ldi	r17, 0x00	; 0
    1b98:	08 c0       	rjmp	.+16     	; 0x1baa <snake+0x24e>
    1b9a:	1f 5f       	subi	r17, 0xFF	; 255
    1b9c:	15 30       	cpi	r17, 0x05	; 5
    1b9e:	09 f4       	brne	.+2      	; 0x1ba2 <snake+0x246>
    1ba0:	d2 c0       	rjmp	.+420    	; 0x1d46 <snake+0x3ea>
    1ba2:	85 2d       	mov	r24, r5
    1ba4:	0e 94 2c 03 	call	0x658 <direction_r>
    1ba8:	58 2e       	mov	r5, r24
    1baa:	45 2d       	mov	r20, r5
    1bac:	6d 85       	ldd	r22, Y+13	; 0x0d
    1bae:	7e 85       	ldd	r23, Y+14	; 0x0e
    1bb0:	8f 85       	ldd	r24, Y+15	; 0x0f
    1bb2:	0e 94 ea 02 	call	0x5d4 <getNextVoxel>
    1bb6:	fd 2f       	mov	r31, r29
    1bb8:	ec 2f       	mov	r30, r28
    1bba:	e0 5a       	subi	r30, 0xA0	; 160
    1bbc:	fe 4f       	sbci	r31, 0xFE	; 254
    1bbe:	60 83       	st	Z, r22
    1bc0:	ac 2f       	mov	r26, r28
    1bc2:	bd 2f       	mov	r27, r29
    1bc4:	af 59       	subi	r26, 0x9F	; 159
    1bc6:	be 4f       	sbci	r27, 0xFE	; 254
    1bc8:	7c 93       	st	X, r23
    1bca:	ac 2f       	mov	r26, r28
    1bcc:	bd 2f       	mov	r27, r29
    1bce:	ae 59       	subi	r26, 0x9E	; 158
    1bd0:	be 4f       	sbci	r27, 0xFE	; 254
    1bd2:	8c 93       	st	X, r24
    1bd4:	ac 2f       	mov	r26, r28
    1bd6:	bd 2f       	mov	r27, r29
    1bd8:	11 96       	adiw	r26, 0x01	; 1
    1bda:	83 e0       	ldi	r24, 0x03	; 3
    1bdc:	01 90       	ld	r0, Z+
    1bde:	0d 92       	st	X+, r0
    1be0:	81 50       	subi	r24, 0x01	; 1
    1be2:	e1 f7       	brne	.-8      	; 0x1bdc <snake+0x280>
    1be4:	69 81       	ldd	r22, Y+1	; 0x01
    1be6:	7a 81       	ldd	r23, Y+2	; 0x02
    1be8:	8b 81       	ldd	r24, Y+3	; 0x03
    1bea:	0e 94 8b 02 	call	0x516 <isVoxelSet>
    1bee:	88 23       	and	r24, r24
    1bf0:	a1 f6       	brne	.-88     	; 0x1b9a <snake+0x23e>
    1bf2:	dd 24       	eor	r13, r13
    1bf4:	45 2d       	mov	r20, r5
    1bf6:	6d 85       	ldd	r22, Y+13	; 0x0d
    1bf8:	7e 85       	ldd	r23, Y+14	; 0x0e
    1bfa:	8f 85       	ldd	r24, Y+15	; 0x0f
    1bfc:	0e 94 ea 02 	call	0x5d4 <getNextVoxel>
    1c00:	fd 2f       	mov	r31, r29
    1c02:	ec 2f       	mov	r30, r28
    1c04:	e0 5a       	subi	r30, 0xA0	; 160
    1c06:	fe 4f       	sbci	r31, 0xFE	; 254
    1c08:	60 83       	st	Z, r22
    1c0a:	ac 2f       	mov	r26, r28
    1c0c:	bd 2f       	mov	r27, r29
    1c0e:	af 59       	subi	r26, 0x9F	; 159
    1c10:	be 4f       	sbci	r27, 0xFE	; 254
    1c12:	7c 93       	st	X, r23
    1c14:	ac 2f       	mov	r26, r28
    1c16:	bd 2f       	mov	r27, r29
    1c18:	ae 59       	subi	r26, 0x9E	; 158
    1c1a:	be 4f       	sbci	r27, 0xFE	; 254
    1c1c:	8c 93       	st	X, r24
    1c1e:	bb 2d       	mov	r27, r11
    1c20:	aa 2d       	mov	r26, r10
    1c22:	83 e0       	ldi	r24, 0x03	; 3
    1c24:	01 90       	ld	r0, Z+
    1c26:	0d 92       	st	X+, r0
    1c28:	81 50       	subi	r24, 0x01	; 1
    1c2a:	e1 f7       	brne	.-8      	; 0x1c24 <snake+0x2c8>
    1c2c:	6a 8a       	std	Y+18, r6	; 0x12
    1c2e:	79 8a       	std	Y+17, r7	; 0x11
    1c30:	88 8a       	std	Y+16, r8	; 0x10
    1c32:	28 2d       	mov	r18, r8
    1c34:	37 2d       	mov	r19, r7
    1c36:	46 2d       	mov	r20, r6
    1c38:	fb 2d       	mov	r31, r11
    1c3a:	ea 2d       	mov	r30, r10
    1c3c:	60 81       	ld	r22, Z
    1c3e:	71 81       	ldd	r23, Z+1	; 0x01
    1c40:	82 81       	ldd	r24, Z+2	; 0x02
    1c42:	0e 94 37 01 	call	0x26e <setVoxel>
    1c46:	0e 94 c1 03 	call	0x782 <easyRandom>
    1c4a:	80 35       	cpi	r24, 0x50	; 80
    1c4c:	38 f4       	brcc	.+14     	; 0x1c5c <snake+0x300>
    1c4e:	0e 94 c1 03 	call	0x782 <easyRandom>
    1c52:	66 e0       	ldi	r22, 0x06	; 6
    1c54:	0e 94 c0 16 	call	0x2d80 <__udivmodqi4>
    1c58:	59 2e       	mov	r5, r25
    1c5a:	53 94       	inc	r5
    1c5c:	f9 e0       	ldi	r31, 0x09	; 9
    1c5e:	f9 15       	cp	r31, r9
    1c60:	a8 f1       	brcs	.+106    	; 0x1ccc <snake+0x370>
    1c62:	0e 94 c1 03 	call	0x782 <easyRandom>
    1c66:	8a 30       	cpi	r24, 0x0A	; 10
    1c68:	88 f5       	brcc	.+98     	; 0x1ccc <snake+0x370>
    1c6a:	0e 94 c1 03 	call	0x782 <easyRandom>
    1c6e:	08 2f       	mov	r16, r24
    1c70:	0e 94 c1 03 	call	0x782 <easyRandom>
    1c74:	18 2f       	mov	r17, r24
    1c76:	0e 94 c1 03 	call	0x782 <easyRandom>
    1c7a:	65 e0       	ldi	r22, 0x05	; 5
    1c7c:	0e 94 c0 16 	call	0x2d80 <__udivmodqi4>
    1c80:	39 2f       	mov	r19, r25
    1c82:	9d 8b       	std	Y+21, r25	; 0x15
    1c84:	81 2f       	mov	r24, r17
    1c86:	0e 94 c0 16 	call	0x2d80 <__udivmodqi4>
    1c8a:	29 2f       	mov	r18, r25
    1c8c:	9c 8b       	std	Y+20, r25	; 0x14
    1c8e:	80 2f       	mov	r24, r16
    1c90:	0e 94 c0 16 	call	0x2d80 <__udivmodqi4>
    1c94:	9b 8b       	std	Y+19, r25	; 0x13
    1c96:	69 2f       	mov	r22, r25
    1c98:	72 2f       	mov	r23, r18
    1c9a:	83 2f       	mov	r24, r19
    1c9c:	0e 94 8b 02 	call	0x516 <isVoxelSet>
    1ca0:	88 23       	and	r24, r24
    1ca2:	a1 f4       	brne	.+40     	; 0x1ccc <snake+0x370>
    1ca4:	89 2d       	mov	r24, r9
    1ca6:	99 27       	eor	r25, r25
    1ca8:	63 e0       	ldi	r22, 0x03	; 3
    1caa:	70 e0       	ldi	r23, 0x00	; 0
    1cac:	0e 94 ae 16 	call	0x2d5c <__mulhi3>
    1cb0:	fd 2f       	mov	r31, r29
    1cb2:	ec 2f       	mov	r30, r28
    1cb4:	e8 0f       	add	r30, r24
    1cb6:	f9 1f       	adc	r31, r25
    1cb8:	76 96       	adiw	r30, 0x16	; 22
    1cba:	ac 2f       	mov	r26, r28
    1cbc:	bd 2f       	mov	r27, r29
    1cbe:	53 96       	adiw	r26, 0x13	; 19
    1cc0:	83 e0       	ldi	r24, 0x03	; 3
    1cc2:	0d 90       	ld	r0, X+
    1cc4:	01 92       	st	Z+, r0
    1cc6:	81 50       	subi	r24, 0x01	; 1
    1cc8:	e1 f7       	brne	.-8      	; 0x1cc2 <snake+0x366>
    1cca:	93 94       	inc	r9
    1ccc:	dd 20       	and	r13, r13
    1cce:	09 f0       	breq	.+2      	; 0x1cd2 <snake+0x376>
    1cd0:	43 c0       	rjmp	.+134    	; 0x1d58 <snake+0x3fc>
    1cd2:	20 91 96 01 	lds	r18, 0x0196
    1cd6:	30 91 97 01 	lds	r19, 0x0197
    1cda:	40 91 98 01 	lds	r20, 0x0198
    1cde:	ff 2d       	mov	r31, r15
    1ce0:	ee 2d       	mov	r30, r14
    1ce2:	60 81       	ld	r22, Z
    1ce4:	71 81       	ldd	r23, Z+1	; 0x01
    1ce6:	82 81       	ldd	r24, Z+2	; 0x02
    1ce8:	0e 94 37 01 	call	0x26e <setVoxel>
    1cec:	83 e0       	ldi	r24, 0x03	; 3
    1cee:	90 e0       	ldi	r25, 0x00	; 0
    1cf0:	e8 0e       	add	r14, r24
    1cf2:	f9 1e       	adc	r15, r25
    1cf4:	8c 2f       	mov	r24, r28
    1cf6:	9d 2f       	mov	r25, r29
    1cf8:	80 5a       	subi	r24, 0xA0	; 160
    1cfa:	9e 4f       	sbci	r25, 0xFE	; 254
    1cfc:	e8 16       	cp	r14, r24
    1cfe:	f9 06       	cpc	r15, r25
    1d00:	59 f5       	brne	.+86     	; 0x1d58 <snake+0x3fc>
    1d02:	25 c0       	rjmp	.+74     	; 0x1d4e <snake+0x3f2>
    1d04:	20 91 96 01 	lds	r18, 0x0196
    1d08:	30 91 97 01 	lds	r19, 0x0197
    1d0c:	40 91 98 01 	lds	r20, 0x0198
    1d10:	ff 2d       	mov	r31, r15
    1d12:	ee 2d       	mov	r30, r14
    1d14:	60 81       	ld	r22, Z
    1d16:	71 81       	ldd	r23, Z+1	; 0x01
    1d18:	82 81       	ldd	r24, Z+2	; 0x02
    1d1a:	0e 94 37 01 	call	0x26e <setVoxel>
    1d1e:	83 e0       	ldi	r24, 0x03	; 3
    1d20:	90 e0       	ldi	r25, 0x00	; 0
    1d22:	e8 0e       	add	r14, r24
    1d24:	f9 1e       	adc	r15, r25
    1d26:	8c 2f       	mov	r24, r28
    1d28:	9d 2f       	mov	r25, r29
    1d2a:	80 5a       	subi	r24, 0xA0	; 160
    1d2c:	9e 4f       	sbci	r25, 0xFE	; 254
    1d2e:	8e 15       	cp	r24, r14
    1d30:	9f 05       	cpc	r25, r15
    1d32:	28 f4       	brcc	.+10     	; 0x1d3e <snake+0x3e2>
    1d34:	14 e3       	ldi	r17, 0x34	; 52
    1d36:	e1 2e       	mov	r14, r17
    1d38:	f1 2c       	mov	r15, r1
    1d3a:	ec 0e       	add	r14, r28
    1d3c:	fd 1e       	adc	r15, r29
    1d3e:	8c e3       	ldi	r24, 0x3C	; 60
    1d40:	90 e0       	ldi	r25, 0x00	; 0
    1d42:	0e 94 25 01 	call	0x24a <wait>
    1d46:	ea 14       	cp	r14, r10
    1d48:	fb 04       	cpc	r15, r11
    1d4a:	e1 f6       	brne	.-72     	; 0x1d04 <snake+0x3a8>
    1d4c:	61 c0       	rjmp	.+194    	; 0x1e10 <snake+0x4b4>
    1d4e:	b4 e3       	ldi	r27, 0x34	; 52
    1d50:	eb 2e       	mov	r14, r27
    1d52:	f1 2c       	mov	r15, r1
    1d54:	ec 0e       	add	r14, r28
    1d56:	fd 1e       	adc	r15, r29
    1d58:	10 e0       	ldi	r17, 0x00	; 0
    1d5a:	33 c0       	rjmp	.+102    	; 0x1dc2 <snake+0x466>
    1d5c:	2c 2f       	mov	r18, r28
    1d5e:	3d 2f       	mov	r19, r29
    1d60:	2f 5f       	subi	r18, 0xFF	; 255
    1d62:	3f 4f       	sbci	r19, 0xFF	; 255
    1d64:	81 2f       	mov	r24, r17
    1d66:	99 27       	eor	r25, r25
    1d68:	40 fe       	sbrs	r4, 0
    1d6a:	12 c0       	rjmp	.+36     	; 0x1d90 <snake+0x434>
    1d6c:	6a 8a       	std	Y+18, r6	; 0x12
    1d6e:	79 8a       	std	Y+17, r7	; 0x11
    1d70:	88 8a       	std	Y+16, r8	; 0x10
    1d72:	63 e0       	ldi	r22, 0x03	; 3
    1d74:	70 e0       	ldi	r23, 0x00	; 0
    1d76:	0e 94 ae 16 	call	0x2d5c <__mulhi3>
    1d7a:	f9 2f       	mov	r31, r25
    1d7c:	e8 2f       	mov	r30, r24
    1d7e:	e2 0f       	add	r30, r18
    1d80:	f3 1f       	adc	r31, r19
    1d82:	ae 2f       	mov	r26, r30
    1d84:	bf 2f       	mov	r27, r31
    1d86:	55 96       	adiw	r26, 0x15	; 21
    1d88:	28 2d       	mov	r18, r8
    1d8a:	37 2d       	mov	r19, r7
    1d8c:	46 2d       	mov	r20, r6
    1d8e:	11 c0       	rjmp	.+34     	; 0x1db2 <snake+0x456>
    1d90:	63 e0       	ldi	r22, 0x03	; 3
    1d92:	70 e0       	ldi	r23, 0x00	; 0
    1d94:	0e 94 ae 16 	call	0x2d5c <__mulhi3>
    1d98:	f9 2f       	mov	r31, r25
    1d9a:	e8 2f       	mov	r30, r24
    1d9c:	e2 0f       	add	r30, r18
    1d9e:	f3 1f       	adc	r31, r19
    1da0:	ae 2f       	mov	r26, r30
    1da2:	bf 2f       	mov	r27, r31
    1da4:	55 96       	adiw	r26, 0x15	; 21
    1da6:	20 91 96 01 	lds	r18, 0x0196
    1daa:	30 91 97 01 	lds	r19, 0x0197
    1dae:	40 91 98 01 	lds	r20, 0x0198
    1db2:	65 89       	ldd	r22, Z+21	; 0x15
    1db4:	fb 2f       	mov	r31, r27
    1db6:	ea 2f       	mov	r30, r26
    1db8:	71 81       	ldd	r23, Z+1	; 0x01
    1dba:	82 81       	ldd	r24, Z+2	; 0x02
    1dbc:	0e 94 37 01 	call	0x26e <setVoxel>
    1dc0:	1f 5f       	subi	r17, 0xFF	; 255
    1dc2:	19 15       	cp	r17, r9
    1dc4:	59 f6       	brne	.-106    	; 0x1d5c <snake+0x400>
    1dc6:	88 2d       	mov	r24, r8
    1dc8:	85 50       	subi	r24, 0x05	; 5
    1dca:	86 3f       	cpi	r24, 0xF6	; 246
    1dcc:	58 f0       	brcs	.+22     	; 0x1de4 <snake+0x488>
    1dce:	cd 59       	subi	r28, 0x9D	; 157
    1dd0:	de 4f       	sbci	r29, 0xFE	; 254
    1dd2:	f8 81       	ld	r31, Y
    1dd4:	c3 56       	subi	r28, 0x63	; 99
    1dd6:	d1 40       	sbci	r29, 0x01	; 1
    1dd8:	f1 95       	neg	r31
    1dda:	cd 59       	subi	r28, 0x9D	; 157
    1ddc:	de 4f       	sbci	r29, 0xFE	; 254
    1dde:	f8 83       	st	Y, r31
    1de0:	c3 56       	subi	r28, 0x63	; 99
    1de2:	d1 40       	sbci	r29, 0x01	; 1
    1de4:	87 2d       	mov	r24, r7
    1de6:	85 50       	subi	r24, 0x05	; 5
    1de8:	86 3f       	cpi	r24, 0xF6	; 246
    1dea:	08 f0       	brcs	.+2      	; 0x1dee <snake+0x492>
    1dec:	21 94       	neg	r2
    1dee:	86 2d       	mov	r24, r6
    1df0:	85 50       	subi	r24, 0x05	; 5
    1df2:	86 3f       	cpi	r24, 0xF6	; 246
    1df4:	08 f0       	brcs	.+2      	; 0x1df8 <snake+0x49c>
    1df6:	31 94       	neg	r3
    1df8:	cd 59       	subi	r28, 0x9D	; 157
    1dfa:	de 4f       	sbci	r29, 0xFE	; 254
    1dfc:	88 81       	ld	r24, Y
    1dfe:	c3 56       	subi	r28, 0x63	; 99
    1e00:	d1 40       	sbci	r29, 0x01	; 1
    1e02:	88 0e       	add	r8, r24
    1e04:	72 0c       	add	r7, r2
    1e06:	63 0c       	add	r6, r3
    1e08:	8c e3       	ldi	r24, 0x3C	; 60
    1e0a:	0e 94 22 05 	call	0xa44 <swapAndWait>
    1e0e:	ef cd       	rjmp	.-1058   	; 0x19ee <snake+0x92>
    1e10:	cd 59       	subi	r28, 0x9D	; 157
    1e12:	de 4f       	sbci	r29, 0xFE	; 254
    1e14:	0f b6       	in	r0, 0x3f	; 63
    1e16:	f8 94       	cli
    1e18:	de bf       	out	0x3e, r29	; 62
    1e1a:	0f be       	out	0x3f, r0	; 63
    1e1c:	cd bf       	out	0x3d, r28	; 61
    1e1e:	df 91       	pop	r29
    1e20:	cf 91       	pop	r28
    1e22:	1f 91       	pop	r17
    1e24:	0f 91       	pop	r16
    1e26:	ff 90       	pop	r15
    1e28:	ef 90       	pop	r14
    1e2a:	df 90       	pop	r13
    1e2c:	cf 90       	pop	r12
    1e2e:	bf 90       	pop	r11
    1e30:	af 90       	pop	r10
    1e32:	9f 90       	pop	r9
    1e34:	8f 90       	pop	r8
    1e36:	7f 90       	pop	r7
    1e38:	6f 90       	pop	r6
    1e3a:	5f 90       	pop	r5
    1e3c:	4f 90       	pop	r4
    1e3e:	3f 90       	pop	r3
    1e40:	2f 90       	pop	r2
    1e42:	08 95       	ret

00001e44 <planeBall>:
    1e44:	8f 92       	push	r8
    1e46:	9f 92       	push	r9
    1e48:	af 92       	push	r10
    1e4a:	bf 92       	push	r11
    1e4c:	cf 92       	push	r12
    1e4e:	ef 92       	push	r14
    1e50:	0f 93       	push	r16
    1e52:	cf 93       	push	r28
    1e54:	df 93       	push	r29
    1e56:	cd b7       	in	r28, 0x3d	; 61
    1e58:	de b7       	in	r29, 0x3e	; 62
    1e5a:	ca 55       	subi	r28, 0x5A	; 90
    1e5c:	d0 40       	sbci	r29, 0x00	; 0
    1e5e:	0f b6       	in	r0, 0x3f	; 63
    1e60:	f8 94       	cli
    1e62:	de bf       	out	0x3e, r29	; 62
    1e64:	0f be       	out	0x3f, r0	; 63
    1e66:	cd bf       	out	0x3d, r28	; 61
    1e68:	60 91 96 01 	lds	r22, 0x0196
    1e6c:	70 91 97 01 	lds	r23, 0x0197
    1e70:	80 91 98 01 	lds	r24, 0x0198
    1e74:	0e 94 4f 03 	call	0x69e <clearScreen>
    1e78:	88 24       	eor	r8, r8
    1e7a:	99 24       	eor	r9, r9
    1e7c:	a0 90 63 00 	lds	r10, 0x0063
    1e80:	b0 90 64 00 	lds	r11, 0x0064
    1e84:	c0 90 65 00 	lds	r12, 0x0065
    1e88:	81 e0       	ldi	r24, 0x01	; 1
    1e8a:	e8 2e       	mov	r14, r24
    1e8c:	04 e0       	ldi	r16, 0x04	; 4
    1e8e:	28 2d       	mov	r18, r8
    1e90:	41 e0       	ldi	r20, 0x01	; 1
    1e92:	60 e0       	ldi	r22, 0x00	; 0
    1e94:	88 2d       	mov	r24, r8
    1e96:	0e 94 24 04 	call	0x848 <drawLine3D>
    1e9a:	08 94       	sec
    1e9c:	81 1c       	adc	r8, r1
    1e9e:	91 1c       	adc	r9, r1
    1ea0:	85 e0       	ldi	r24, 0x05	; 5
    1ea2:	88 16       	cp	r8, r24
    1ea4:	91 04       	cpc	r9, r1
    1ea6:	51 f7       	brne	.-44     	; 0x1e7c <planeBall+0x38>
    1ea8:	6a e0       	ldi	r22, 0x0A	; 10
    1eaa:	85 e0       	ldi	r24, 0x05	; 5
    1eac:	0e 94 47 05 	call	0xa8e <fade>
    1eb0:	88 e8       	ldi	r24, 0x88	; 136
    1eb2:	0e 94 22 05 	call	0xa44 <swapAndWait>
    1eb6:	ac 2f       	mov	r26, r28
    1eb8:	bd 2f       	mov	r27, r29
    1eba:	a8 5a       	subi	r26, 0xA8	; 168
    1ebc:	bf 4f       	sbci	r27, 0xFF	; 255
    1ebe:	eb ee       	ldi	r30, 0xEB	; 235
    1ec0:	f0 e0       	ldi	r31, 0x00	; 0
    1ec2:	83 e0       	ldi	r24, 0x03	; 3
    1ec4:	01 90       	ld	r0, Z+
    1ec6:	0d 92       	st	X+, r0
    1ec8:	81 50       	subi	r24, 0x01	; 1
    1eca:	e1 f7       	brne	.-8      	; 0x1ec4 <planeBall+0x80>
    1ecc:	fd 2f       	mov	r31, r29
    1ece:	ec 2f       	mov	r30, r28
    1ed0:	e8 5a       	subi	r30, 0xA8	; 168
    1ed2:	ff 4f       	sbci	r31, 0xFF	; 255
    1ed4:	20 91 66 00 	lds	r18, 0x0066
    1ed8:	30 91 67 00 	lds	r19, 0x0067
    1edc:	40 91 68 00 	lds	r20, 0x0068
    1ee0:	60 81       	ld	r22, Z
    1ee2:	71 81       	ldd	r23, Z+1	; 0x01
    1ee4:	82 81       	ldd	r24, Z+2	; 0x02
    1ee6:	0e 94 37 01 	call	0x26e <setVoxel>
    1eea:	84 e6       	ldi	r24, 0x64	; 100
    1eec:	0e 94 22 05 	call	0xa44 <swapAndWait>
    1ef0:	ac 2f       	mov	r26, r28
    1ef2:	bd 2f       	mov	r27, r29
    1ef4:	ab 5a       	subi	r26, 0xAB	; 171
    1ef6:	bf 4f       	sbci	r27, 0xFF	; 255
    1ef8:	e8 ee       	ldi	r30, 0xE8	; 232
    1efa:	f0 e0       	ldi	r31, 0x00	; 0
    1efc:	83 e0       	ldi	r24, 0x03	; 3
    1efe:	01 90       	ld	r0, Z+
    1f00:	0d 92       	st	X+, r0
    1f02:	81 50       	subi	r24, 0x01	; 1
    1f04:	e1 f7       	brne	.-8      	; 0x1efe <planeBall+0xba>
    1f06:	fd 2f       	mov	r31, r29
    1f08:	ec 2f       	mov	r30, r28
    1f0a:	eb 5a       	subi	r30, 0xAB	; 171
    1f0c:	ff 4f       	sbci	r31, 0xFF	; 255
    1f0e:	20 91 96 01 	lds	r18, 0x0196
    1f12:	30 91 97 01 	lds	r19, 0x0197
    1f16:	40 91 98 01 	lds	r20, 0x0198
    1f1a:	60 81       	ld	r22, Z
    1f1c:	71 81       	ldd	r23, Z+1	; 0x01
    1f1e:	82 81       	ldd	r24, Z+2	; 0x02
    1f20:	0e 94 37 01 	call	0x26e <setVoxel>
    1f24:	ac 2f       	mov	r26, r28
    1f26:	bd 2f       	mov	r27, r29
    1f28:	ae 5a       	subi	r26, 0xAE	; 174
    1f2a:	bf 4f       	sbci	r27, 0xFF	; 255
    1f2c:	e5 ee       	ldi	r30, 0xE5	; 229
    1f2e:	f0 e0       	ldi	r31, 0x00	; 0
    1f30:	83 e0       	ldi	r24, 0x03	; 3
    1f32:	01 90       	ld	r0, Z+
    1f34:	0d 92       	st	X+, r0
    1f36:	81 50       	subi	r24, 0x01	; 1
    1f38:	e1 f7       	brne	.-8      	; 0x1f32 <planeBall+0xee>
    1f3a:	fd 2f       	mov	r31, r29
    1f3c:	ec 2f       	mov	r30, r28
    1f3e:	ee 5a       	subi	r30, 0xAE	; 174
    1f40:	ff 4f       	sbci	r31, 0xFF	; 255
    1f42:	20 91 66 00 	lds	r18, 0x0066
    1f46:	30 91 67 00 	lds	r19, 0x0067
    1f4a:	40 91 68 00 	lds	r20, 0x0068
    1f4e:	60 81       	ld	r22, Z
    1f50:	71 81       	ldd	r23, Z+1	; 0x01
    1f52:	82 81       	ldd	r24, Z+2	; 0x02
    1f54:	0e 94 37 01 	call	0x26e <setVoxel>
    1f58:	84 e6       	ldi	r24, 0x64	; 100
    1f5a:	0e 94 22 05 	call	0xa44 <swapAndWait>
    1f5e:	ac 2f       	mov	r26, r28
    1f60:	bd 2f       	mov	r27, r29
    1f62:	a1 5b       	subi	r26, 0xB1	; 177
    1f64:	bf 4f       	sbci	r27, 0xFF	; 255
    1f66:	e2 ee       	ldi	r30, 0xE2	; 226
    1f68:	f0 e0       	ldi	r31, 0x00	; 0
    1f6a:	83 e0       	ldi	r24, 0x03	; 3
    1f6c:	01 90       	ld	r0, Z+
    1f6e:	0d 92       	st	X+, r0
    1f70:	81 50       	subi	r24, 0x01	; 1
    1f72:	e1 f7       	brne	.-8      	; 0x1f6c <planeBall+0x128>
    1f74:	fd 2f       	mov	r31, r29
    1f76:	ec 2f       	mov	r30, r28
    1f78:	e1 5b       	subi	r30, 0xB1	; 177
    1f7a:	ff 4f       	sbci	r31, 0xFF	; 255
    1f7c:	20 91 96 01 	lds	r18, 0x0196
    1f80:	30 91 97 01 	lds	r19, 0x0197
    1f84:	40 91 98 01 	lds	r20, 0x0198
    1f88:	60 81       	ld	r22, Z
    1f8a:	71 81       	ldd	r23, Z+1	; 0x01
    1f8c:	82 81       	ldd	r24, Z+2	; 0x02
    1f8e:	0e 94 37 01 	call	0x26e <setVoxel>
    1f92:	ac 2f       	mov	r26, r28
    1f94:	bd 2f       	mov	r27, r29
    1f96:	a4 5b       	subi	r26, 0xB4	; 180
    1f98:	bf 4f       	sbci	r27, 0xFF	; 255
    1f9a:	ef ed       	ldi	r30, 0xDF	; 223
    1f9c:	f0 e0       	ldi	r31, 0x00	; 0
    1f9e:	83 e0       	ldi	r24, 0x03	; 3
    1fa0:	01 90       	ld	r0, Z+
    1fa2:	0d 92       	st	X+, r0
    1fa4:	81 50       	subi	r24, 0x01	; 1
    1fa6:	e1 f7       	brne	.-8      	; 0x1fa0 <planeBall+0x15c>
    1fa8:	fd 2f       	mov	r31, r29
    1faa:	ec 2f       	mov	r30, r28
    1fac:	e4 5b       	subi	r30, 0xB4	; 180
    1fae:	ff 4f       	sbci	r31, 0xFF	; 255
    1fb0:	20 91 66 00 	lds	r18, 0x0066
    1fb4:	30 91 67 00 	lds	r19, 0x0067
    1fb8:	40 91 68 00 	lds	r20, 0x0068
    1fbc:	60 81       	ld	r22, Z
    1fbe:	71 81       	ldd	r23, Z+1	; 0x01
    1fc0:	82 81       	ldd	r24, Z+2	; 0x02
    1fc2:	0e 94 37 01 	call	0x26e <setVoxel>
    1fc6:	84 e6       	ldi	r24, 0x64	; 100
    1fc8:	0e 94 22 05 	call	0xa44 <swapAndWait>
    1fcc:	ac 2f       	mov	r26, r28
    1fce:	bd 2f       	mov	r27, r29
    1fd0:	a7 5b       	subi	r26, 0xB7	; 183
    1fd2:	bf 4f       	sbci	r27, 0xFF	; 255
    1fd4:	ec ed       	ldi	r30, 0xDC	; 220
    1fd6:	f0 e0       	ldi	r31, 0x00	; 0
    1fd8:	83 e0       	ldi	r24, 0x03	; 3
    1fda:	01 90       	ld	r0, Z+
    1fdc:	0d 92       	st	X+, r0
    1fde:	81 50       	subi	r24, 0x01	; 1
    1fe0:	e1 f7       	brne	.-8      	; 0x1fda <planeBall+0x196>
    1fe2:	fd 2f       	mov	r31, r29
    1fe4:	ec 2f       	mov	r30, r28
    1fe6:	e7 5b       	subi	r30, 0xB7	; 183
    1fe8:	ff 4f       	sbci	r31, 0xFF	; 255
    1fea:	20 91 96 01 	lds	r18, 0x0196
    1fee:	30 91 97 01 	lds	r19, 0x0197
    1ff2:	40 91 98 01 	lds	r20, 0x0198
    1ff6:	60 81       	ld	r22, Z
    1ff8:	71 81       	ldd	r23, Z+1	; 0x01
    1ffa:	82 81       	ldd	r24, Z+2	; 0x02
    1ffc:	0e 94 37 01 	call	0x26e <setVoxel>
    2000:	ac 2f       	mov	r26, r28
    2002:	bd 2f       	mov	r27, r29
    2004:	aa 5b       	subi	r26, 0xBA	; 186
    2006:	bf 4f       	sbci	r27, 0xFF	; 255
    2008:	e9 ed       	ldi	r30, 0xD9	; 217
    200a:	f0 e0       	ldi	r31, 0x00	; 0
    200c:	83 e0       	ldi	r24, 0x03	; 3
    200e:	01 90       	ld	r0, Z+
    2010:	0d 92       	st	X+, r0
    2012:	81 50       	subi	r24, 0x01	; 1
    2014:	e1 f7       	brne	.-8      	; 0x200e <planeBall+0x1ca>
    2016:	fd 2f       	mov	r31, r29
    2018:	ec 2f       	mov	r30, r28
    201a:	ea 5b       	subi	r30, 0xBA	; 186
    201c:	ff 4f       	sbci	r31, 0xFF	; 255
    201e:	20 91 66 00 	lds	r18, 0x0066
    2022:	30 91 67 00 	lds	r19, 0x0067
    2026:	40 91 68 00 	lds	r20, 0x0068
    202a:	60 81       	ld	r22, Z
    202c:	71 81       	ldd	r23, Z+1	; 0x01
    202e:	82 81       	ldd	r24, Z+2	; 0x02
    2030:	0e 94 37 01 	call	0x26e <setVoxel>
    2034:	84 e6       	ldi	r24, 0x64	; 100
    2036:	0e 94 22 05 	call	0xa44 <swapAndWait>
    203a:	ac 2f       	mov	r26, r28
    203c:	bd 2f       	mov	r27, r29
    203e:	ad 5b       	subi	r26, 0xBD	; 189
    2040:	bf 4f       	sbci	r27, 0xFF	; 255
    2042:	e6 ed       	ldi	r30, 0xD6	; 214
    2044:	f0 e0       	ldi	r31, 0x00	; 0
    2046:	83 e0       	ldi	r24, 0x03	; 3
    2048:	01 90       	ld	r0, Z+
    204a:	0d 92       	st	X+, r0
    204c:	81 50       	subi	r24, 0x01	; 1
    204e:	e1 f7       	brne	.-8      	; 0x2048 <planeBall+0x204>
    2050:	fd 2f       	mov	r31, r29
    2052:	ec 2f       	mov	r30, r28
    2054:	ed 5b       	subi	r30, 0xBD	; 189
    2056:	ff 4f       	sbci	r31, 0xFF	; 255
    2058:	20 91 96 01 	lds	r18, 0x0196
    205c:	30 91 97 01 	lds	r19, 0x0197
    2060:	40 91 98 01 	lds	r20, 0x0198
    2064:	60 81       	ld	r22, Z
    2066:	71 81       	ldd	r23, Z+1	; 0x01
    2068:	82 81       	ldd	r24, Z+2	; 0x02
    206a:	0e 94 37 01 	call	0x26e <setVoxel>
    206e:	ac 2f       	mov	r26, r28
    2070:	bd 2f       	mov	r27, r29
    2072:	a0 5c       	subi	r26, 0xC0	; 192
    2074:	bf 4f       	sbci	r27, 0xFF	; 255
    2076:	e3 ed       	ldi	r30, 0xD3	; 211
    2078:	f0 e0       	ldi	r31, 0x00	; 0
    207a:	83 e0       	ldi	r24, 0x03	; 3
    207c:	01 90       	ld	r0, Z+
    207e:	0d 92       	st	X+, r0
    2080:	81 50       	subi	r24, 0x01	; 1
    2082:	e1 f7       	brne	.-8      	; 0x207c <planeBall+0x238>
    2084:	20 91 66 00 	lds	r18, 0x0066
    2088:	30 91 67 00 	lds	r19, 0x0067
    208c:	40 91 68 00 	lds	r20, 0x0068
    2090:	fd 2f       	mov	r31, r29
    2092:	ec 2f       	mov	r30, r28
    2094:	e0 5c       	subi	r30, 0xC0	; 192
    2096:	ff 4f       	sbci	r31, 0xFF	; 255
    2098:	60 81       	ld	r22, Z
    209a:	fd 2f       	mov	r31, r29
    209c:	ec 2f       	mov	r30, r28
    209e:	ef 5b       	subi	r30, 0xBF	; 191
    20a0:	ff 4f       	sbci	r31, 0xFF	; 255
    20a2:	70 81       	ld	r23, Z
    20a4:	fd 2f       	mov	r31, r29
    20a6:	ec 2f       	mov	r30, r28
    20a8:	ee 5b       	subi	r30, 0xBE	; 190
    20aa:	ff 4f       	sbci	r31, 0xFF	; 255
    20ac:	80 81       	ld	r24, Z
    20ae:	0e 94 37 01 	call	0x26e <setVoxel>
    20b2:	84 e6       	ldi	r24, 0x64	; 100
    20b4:	0e 94 22 05 	call	0xa44 <swapAndWait>
    20b8:	ac 2f       	mov	r26, r28
    20ba:	bd 2f       	mov	r27, r29
    20bc:	dd 96       	adiw	r26, 0x3d	; 61
    20be:	e0 ed       	ldi	r30, 0xD0	; 208
    20c0:	f0 e0       	ldi	r31, 0x00	; 0
    20c2:	83 e0       	ldi	r24, 0x03	; 3
    20c4:	01 90       	ld	r0, Z+
    20c6:	0d 92       	st	X+, r0
    20c8:	81 50       	subi	r24, 0x01	; 1
    20ca:	e1 f7       	brne	.-8      	; 0x20c4 <planeBall+0x280>
    20cc:	20 91 96 01 	lds	r18, 0x0196
    20d0:	30 91 97 01 	lds	r19, 0x0197
    20d4:	40 91 98 01 	lds	r20, 0x0198
    20d8:	6d ad       	ldd	r22, Y+61	; 0x3d
    20da:	7e ad       	ldd	r23, Y+62	; 0x3e
    20dc:	8f ad       	ldd	r24, Y+63	; 0x3f
    20de:	0e 94 37 01 	call	0x26e <setVoxel>
    20e2:	ac 2f       	mov	r26, r28
    20e4:	bd 2f       	mov	r27, r29
    20e6:	da 96       	adiw	r26, 0x3a	; 58
    20e8:	ed ec       	ldi	r30, 0xCD	; 205
    20ea:	f0 e0       	ldi	r31, 0x00	; 0
    20ec:	83 e0       	ldi	r24, 0x03	; 3
    20ee:	01 90       	ld	r0, Z+
    20f0:	0d 92       	st	X+, r0
    20f2:	81 50       	subi	r24, 0x01	; 1
    20f4:	e1 f7       	brne	.-8      	; 0x20ee <planeBall+0x2aa>
    20f6:	20 91 66 00 	lds	r18, 0x0066
    20fa:	30 91 67 00 	lds	r19, 0x0067
    20fe:	40 91 68 00 	lds	r20, 0x0068
    2102:	6a ad       	ldd	r22, Y+58	; 0x3a
    2104:	7b ad       	ldd	r23, Y+59	; 0x3b
    2106:	8c ad       	ldd	r24, Y+60	; 0x3c
    2108:	0e 94 37 01 	call	0x26e <setVoxel>
    210c:	88 ee       	ldi	r24, 0xE8	; 232
    210e:	0e 94 22 05 	call	0xa44 <swapAndWait>
    2112:	60 91 96 01 	lds	r22, 0x0196
    2116:	70 91 97 01 	lds	r23, 0x0197
    211a:	80 91 98 01 	lds	r24, 0x0198
    211e:	0e 94 9e 03 	call	0x73c <clearImage>
    2122:	88 24       	eor	r8, r8
    2124:	99 24       	eor	r9, r9
    2126:	a0 90 63 00 	lds	r10, 0x0063
    212a:	b0 90 64 00 	lds	r11, 0x0064
    212e:	c0 90 65 00 	lds	r12, 0x0065
    2132:	02 e0       	ldi	r16, 0x02	; 2
    2134:	e0 2e       	mov	r14, r16
    2136:	04 e0       	ldi	r16, 0x04	; 4
    2138:	28 2d       	mov	r18, r8
    213a:	40 e0       	ldi	r20, 0x00	; 0
    213c:	60 e0       	ldi	r22, 0x00	; 0
    213e:	88 2d       	mov	r24, r8
    2140:	0e 94 24 04 	call	0x848 <drawLine3D>
    2144:	08 94       	sec
    2146:	81 1c       	adc	r8, r1
    2148:	91 1c       	adc	r9, r1
    214a:	85 e0       	ldi	r24, 0x05	; 5
    214c:	88 16       	cp	r8, r24
    214e:	91 04       	cpc	r9, r1
    2150:	51 f7       	brne	.-44     	; 0x2126 <planeBall+0x2e2>
    2152:	65 e0       	ldi	r22, 0x05	; 5
    2154:	85 e0       	ldi	r24, 0x05	; 5
    2156:	0e 94 47 05 	call	0xa8e <fade>
    215a:	80 e9       	ldi	r24, 0x90	; 144
    215c:	0e 94 22 05 	call	0xa44 <swapAndWait>
    2160:	ac 2f       	mov	r26, r28
    2162:	bd 2f       	mov	r27, r29
    2164:	d7 96       	adiw	r26, 0x37	; 55
    2166:	ea ec       	ldi	r30, 0xCA	; 202
    2168:	f0 e0       	ldi	r31, 0x00	; 0
    216a:	83 e0       	ldi	r24, 0x03	; 3
    216c:	01 90       	ld	r0, Z+
    216e:	0d 92       	st	X+, r0
    2170:	81 50       	subi	r24, 0x01	; 1
    2172:	e1 f7       	brne	.-8      	; 0x216c <planeBall+0x328>
    2174:	20 91 96 01 	lds	r18, 0x0196
    2178:	30 91 97 01 	lds	r19, 0x0197
    217c:	40 91 98 01 	lds	r20, 0x0198
    2180:	6f a9       	ldd	r22, Y+55	; 0x37
    2182:	78 ad       	ldd	r23, Y+56	; 0x38
    2184:	89 ad       	ldd	r24, Y+57	; 0x39
    2186:	0e 94 37 01 	call	0x26e <setVoxel>
    218a:	ac 2f       	mov	r26, r28
    218c:	bd 2f       	mov	r27, r29
    218e:	d4 96       	adiw	r26, 0x34	; 52
    2190:	e7 ec       	ldi	r30, 0xC7	; 199
    2192:	f0 e0       	ldi	r31, 0x00	; 0
    2194:	83 e0       	ldi	r24, 0x03	; 3
    2196:	01 90       	ld	r0, Z+
    2198:	0d 92       	st	X+, r0
    219a:	81 50       	subi	r24, 0x01	; 1
    219c:	e1 f7       	brne	.-8      	; 0x2196 <planeBall+0x352>
    219e:	20 91 66 00 	lds	r18, 0x0066
    21a2:	30 91 67 00 	lds	r19, 0x0067
    21a6:	40 91 68 00 	lds	r20, 0x0068
    21aa:	6c a9       	ldd	r22, Y+52	; 0x34
    21ac:	7d a9       	ldd	r23, Y+53	; 0x35
    21ae:	8e a9       	ldd	r24, Y+54	; 0x36
    21b0:	0e 94 37 01 	call	0x26e <setVoxel>
    21b4:	88 ec       	ldi	r24, 0xC8	; 200
    21b6:	0e 94 22 05 	call	0xa44 <swapAndWait>
    21ba:	ac 2f       	mov	r26, r28
    21bc:	bd 2f       	mov	r27, r29
    21be:	d1 96       	adiw	r26, 0x31	; 49
    21c0:	e4 ec       	ldi	r30, 0xC4	; 196
    21c2:	f0 e0       	ldi	r31, 0x00	; 0
    21c4:	83 e0       	ldi	r24, 0x03	; 3
    21c6:	01 90       	ld	r0, Z+
    21c8:	0d 92       	st	X+, r0
    21ca:	81 50       	subi	r24, 0x01	; 1
    21cc:	e1 f7       	brne	.-8      	; 0x21c6 <planeBall+0x382>
    21ce:	20 91 96 01 	lds	r18, 0x0196
    21d2:	30 91 97 01 	lds	r19, 0x0197
    21d6:	40 91 98 01 	lds	r20, 0x0198
    21da:	69 a9       	ldd	r22, Y+49	; 0x31
    21dc:	7a a9       	ldd	r23, Y+50	; 0x32
    21de:	8b a9       	ldd	r24, Y+51	; 0x33
    21e0:	0e 94 37 01 	call	0x26e <setVoxel>
    21e4:	ac 2f       	mov	r26, r28
    21e6:	bd 2f       	mov	r27, r29
    21e8:	9e 96       	adiw	r26, 0x2e	; 46
    21ea:	e1 ec       	ldi	r30, 0xC1	; 193
    21ec:	f0 e0       	ldi	r31, 0x00	; 0
    21ee:	83 e0       	ldi	r24, 0x03	; 3
    21f0:	01 90       	ld	r0, Z+
    21f2:	0d 92       	st	X+, r0
    21f4:	81 50       	subi	r24, 0x01	; 1
    21f6:	e1 f7       	brne	.-8      	; 0x21f0 <planeBall+0x3ac>
    21f8:	20 91 66 00 	lds	r18, 0x0066
    21fc:	30 91 67 00 	lds	r19, 0x0067
    2200:	40 91 68 00 	lds	r20, 0x0068
    2204:	6e a5       	ldd	r22, Y+46	; 0x2e
    2206:	7f a5       	ldd	r23, Y+47	; 0x2f
    2208:	88 a9       	ldd	r24, Y+48	; 0x30
    220a:	0e 94 37 01 	call	0x26e <setVoxel>
    220e:	88 ee       	ldi	r24, 0xE8	; 232
    2210:	0e 94 22 05 	call	0xa44 <swapAndWait>
    2214:	60 91 96 01 	lds	r22, 0x0196
    2218:	70 91 97 01 	lds	r23, 0x0197
    221c:	80 91 98 01 	lds	r24, 0x0198
    2220:	0e 94 9e 03 	call	0x73c <clearImage>
    2224:	88 24       	eor	r8, r8
    2226:	99 24       	eor	r9, r9
    2228:	a0 90 63 00 	lds	r10, 0x0063
    222c:	b0 90 64 00 	lds	r11, 0x0064
    2230:	c0 90 65 00 	lds	r12, 0x0065
    2234:	b1 e0       	ldi	r27, 0x01	; 1
    2236:	eb 2e       	mov	r14, r27
    2238:	04 e0       	ldi	r16, 0x04	; 4
    223a:	28 2d       	mov	r18, r8
    223c:	41 e0       	ldi	r20, 0x01	; 1
    223e:	60 e0       	ldi	r22, 0x00	; 0
    2240:	88 2d       	mov	r24, r8
    2242:	0e 94 24 04 	call	0x848 <drawLine3D>
    2246:	08 94       	sec
    2248:	81 1c       	adc	r8, r1
    224a:	91 1c       	adc	r9, r1
    224c:	85 e0       	ldi	r24, 0x05	; 5
    224e:	88 16       	cp	r8, r24
    2250:	91 04       	cpc	r9, r1
    2252:	51 f7       	brne	.-44     	; 0x2228 <planeBall+0x3e4>
    2254:	ac 2f       	mov	r26, r28
    2256:	bd 2f       	mov	r27, r29
    2258:	9b 96       	adiw	r26, 0x2b	; 43
    225a:	ee eb       	ldi	r30, 0xBE	; 190
    225c:	f0 e0       	ldi	r31, 0x00	; 0
    225e:	83 e0       	ldi	r24, 0x03	; 3
    2260:	01 90       	ld	r0, Z+
    2262:	0d 92       	st	X+, r0
    2264:	81 50       	subi	r24, 0x01	; 1
    2266:	e1 f7       	brne	.-8      	; 0x2260 <planeBall+0x41c>
    2268:	20 91 66 00 	lds	r18, 0x0066
    226c:	30 91 67 00 	lds	r19, 0x0067
    2270:	40 91 68 00 	lds	r20, 0x0068
    2274:	6b a5       	ldd	r22, Y+43	; 0x2b
    2276:	7c a5       	ldd	r23, Y+44	; 0x2c
    2278:	8d a5       	ldd	r24, Y+45	; 0x2d
    227a:	0e 94 37 01 	call	0x26e <setVoxel>
    227e:	65 e0       	ldi	r22, 0x05	; 5
    2280:	85 e0       	ldi	r24, 0x05	; 5
    2282:	0e 94 47 05 	call	0xa8e <fade>
    2286:	80 e9       	ldi	r24, 0x90	; 144
    2288:	0e 94 22 05 	call	0xa44 <swapAndWait>
    228c:	60 91 96 01 	lds	r22, 0x0196
    2290:	70 91 97 01 	lds	r23, 0x0197
    2294:	80 91 98 01 	lds	r24, 0x0198
    2298:	0e 94 9e 03 	call	0x73c <clearImage>
    229c:	88 24       	eor	r8, r8
    229e:	99 24       	eor	r9, r9
    22a0:	a0 90 63 00 	lds	r10, 0x0063
    22a4:	b0 90 64 00 	lds	r11, 0x0064
    22a8:	c0 90 65 00 	lds	r12, 0x0065
    22ac:	ee 24       	eor	r14, r14
    22ae:	04 e0       	ldi	r16, 0x04	; 4
    22b0:	28 2d       	mov	r18, r8
    22b2:	42 e0       	ldi	r20, 0x02	; 2
    22b4:	60 e0       	ldi	r22, 0x00	; 0
    22b6:	88 2d       	mov	r24, r8
    22b8:	0e 94 24 04 	call	0x848 <drawLine3D>
    22bc:	08 94       	sec
    22be:	81 1c       	adc	r8, r1
    22c0:	91 1c       	adc	r9, r1
    22c2:	85 e0       	ldi	r24, 0x05	; 5
    22c4:	88 16       	cp	r8, r24
    22c6:	91 04       	cpc	r9, r1
    22c8:	59 f7       	brne	.-42     	; 0x22a0 <planeBall+0x45c>
    22ca:	ac 2f       	mov	r26, r28
    22cc:	bd 2f       	mov	r27, r29
    22ce:	98 96       	adiw	r26, 0x28	; 40
    22d0:	eb eb       	ldi	r30, 0xBB	; 187
    22d2:	f0 e0       	ldi	r31, 0x00	; 0
    22d4:	83 e0       	ldi	r24, 0x03	; 3
    22d6:	01 90       	ld	r0, Z+
    22d8:	0d 92       	st	X+, r0
    22da:	81 50       	subi	r24, 0x01	; 1
    22dc:	e1 f7       	brne	.-8      	; 0x22d6 <planeBall+0x492>
    22de:	20 91 66 00 	lds	r18, 0x0066
    22e2:	30 91 67 00 	lds	r19, 0x0067
    22e6:	40 91 68 00 	lds	r20, 0x0068
    22ea:	68 a5       	ldd	r22, Y+40	; 0x28
    22ec:	79 a5       	ldd	r23, Y+41	; 0x29
    22ee:	8a a5       	ldd	r24, Y+42	; 0x2a
    22f0:	0e 94 37 01 	call	0x26e <setVoxel>
    22f4:	65 e0       	ldi	r22, 0x05	; 5
    22f6:	85 e0       	ldi	r24, 0x05	; 5
    22f8:	0e 94 47 05 	call	0xa8e <fade>
    22fc:	80 e9       	ldi	r24, 0x90	; 144
    22fe:	0e 94 22 05 	call	0xa44 <swapAndWait>
    2302:	ac 2f       	mov	r26, r28
    2304:	bd 2f       	mov	r27, r29
    2306:	95 96       	adiw	r26, 0x25	; 37
    2308:	e8 eb       	ldi	r30, 0xB8	; 184
    230a:	f0 e0       	ldi	r31, 0x00	; 0
    230c:	83 e0       	ldi	r24, 0x03	; 3
    230e:	01 90       	ld	r0, Z+
    2310:	0d 92       	st	X+, r0
    2312:	81 50       	subi	r24, 0x01	; 1
    2314:	e1 f7       	brne	.-8      	; 0x230e <planeBall+0x4ca>
    2316:	20 91 96 01 	lds	r18, 0x0196
    231a:	30 91 97 01 	lds	r19, 0x0197
    231e:	40 91 98 01 	lds	r20, 0x0198
    2322:	6d a1       	ldd	r22, Y+37	; 0x25
    2324:	7e a1       	ldd	r23, Y+38	; 0x26
    2326:	8f a1       	ldd	r24, Y+39	; 0x27
    2328:	0e 94 37 01 	call	0x26e <setVoxel>
    232c:	ac 2f       	mov	r26, r28
    232e:	bd 2f       	mov	r27, r29
    2330:	92 96       	adiw	r26, 0x22	; 34
    2332:	e5 eb       	ldi	r30, 0xB5	; 181
    2334:	f0 e0       	ldi	r31, 0x00	; 0
    2336:	83 e0       	ldi	r24, 0x03	; 3
    2338:	01 90       	ld	r0, Z+
    233a:	0d 92       	st	X+, r0
    233c:	81 50       	subi	r24, 0x01	; 1
    233e:	e1 f7       	brne	.-8      	; 0x2338 <planeBall+0x4f4>
    2340:	20 91 66 00 	lds	r18, 0x0066
    2344:	30 91 67 00 	lds	r19, 0x0067
    2348:	40 91 68 00 	lds	r20, 0x0068
    234c:	6a a1       	ldd	r22, Y+34	; 0x22
    234e:	7b a1       	ldd	r23, Y+35	; 0x23
    2350:	8c a1       	ldd	r24, Y+36	; 0x24
    2352:	0e 94 37 01 	call	0x26e <setVoxel>
    2356:	88 ec       	ldi	r24, 0xC8	; 200
    2358:	0e 94 22 05 	call	0xa44 <swapAndWait>
    235c:	ac 2f       	mov	r26, r28
    235e:	bd 2f       	mov	r27, r29
    2360:	5f 96       	adiw	r26, 0x1f	; 31
    2362:	e2 eb       	ldi	r30, 0xB2	; 178
    2364:	f0 e0       	ldi	r31, 0x00	; 0
    2366:	83 e0       	ldi	r24, 0x03	; 3
    2368:	01 90       	ld	r0, Z+
    236a:	0d 92       	st	X+, r0
    236c:	81 50       	subi	r24, 0x01	; 1
    236e:	e1 f7       	brne	.-8      	; 0x2368 <planeBall+0x524>
    2370:	20 91 96 01 	lds	r18, 0x0196
    2374:	30 91 97 01 	lds	r19, 0x0197
    2378:	40 91 98 01 	lds	r20, 0x0198
    237c:	6f 8d       	ldd	r22, Y+31	; 0x1f
    237e:	78 a1       	ldd	r23, Y+32	; 0x20
    2380:	89 a1       	ldd	r24, Y+33	; 0x21
    2382:	0e 94 37 01 	call	0x26e <setVoxel>
    2386:	ac 2f       	mov	r26, r28
    2388:	bd 2f       	mov	r27, r29
    238a:	5c 96       	adiw	r26, 0x1c	; 28
    238c:	ef ea       	ldi	r30, 0xAF	; 175
    238e:	f0 e0       	ldi	r31, 0x00	; 0
    2390:	83 e0       	ldi	r24, 0x03	; 3
    2392:	01 90       	ld	r0, Z+
    2394:	0d 92       	st	X+, r0
    2396:	81 50       	subi	r24, 0x01	; 1
    2398:	e1 f7       	brne	.-8      	; 0x2392 <planeBall+0x54e>
    239a:	20 91 66 00 	lds	r18, 0x0066
    239e:	30 91 67 00 	lds	r19, 0x0067
    23a2:	40 91 68 00 	lds	r20, 0x0068
    23a6:	6c 8d       	ldd	r22, Y+28	; 0x1c
    23a8:	7d 8d       	ldd	r23, Y+29	; 0x1d
    23aa:	8e 8d       	ldd	r24, Y+30	; 0x1e
    23ac:	0e 94 37 01 	call	0x26e <setVoxel>
    23b0:	88 ec       	ldi	r24, 0xC8	; 200
    23b2:	0e 94 22 05 	call	0xa44 <swapAndWait>
    23b6:	ac 2f       	mov	r26, r28
    23b8:	bd 2f       	mov	r27, r29
    23ba:	59 96       	adiw	r26, 0x19	; 25
    23bc:	ec ea       	ldi	r30, 0xAC	; 172
    23be:	f0 e0       	ldi	r31, 0x00	; 0
    23c0:	83 e0       	ldi	r24, 0x03	; 3
    23c2:	01 90       	ld	r0, Z+
    23c4:	0d 92       	st	X+, r0
    23c6:	81 50       	subi	r24, 0x01	; 1
    23c8:	e1 f7       	brne	.-8      	; 0x23c2 <planeBall+0x57e>
    23ca:	20 91 96 01 	lds	r18, 0x0196
    23ce:	30 91 97 01 	lds	r19, 0x0197
    23d2:	40 91 98 01 	lds	r20, 0x0198
    23d6:	69 8d       	ldd	r22, Y+25	; 0x19
    23d8:	7a 8d       	ldd	r23, Y+26	; 0x1a
    23da:	8b 8d       	ldd	r24, Y+27	; 0x1b
    23dc:	0e 94 37 01 	call	0x26e <setVoxel>
    23e0:	ac 2f       	mov	r26, r28
    23e2:	bd 2f       	mov	r27, r29
    23e4:	56 96       	adiw	r26, 0x16	; 22
    23e6:	e9 ea       	ldi	r30, 0xA9	; 169
    23e8:	f0 e0       	ldi	r31, 0x00	; 0
    23ea:	83 e0       	ldi	r24, 0x03	; 3
    23ec:	01 90       	ld	r0, Z+
    23ee:	0d 92       	st	X+, r0
    23f0:	81 50       	subi	r24, 0x01	; 1
    23f2:	e1 f7       	brne	.-8      	; 0x23ec <planeBall+0x5a8>
    23f4:	20 91 66 00 	lds	r18, 0x0066
    23f8:	30 91 67 00 	lds	r19, 0x0067
    23fc:	40 91 68 00 	lds	r20, 0x0068
    2400:	6e 89       	ldd	r22, Y+22	; 0x16
    2402:	7f 89       	ldd	r23, Y+23	; 0x17
    2404:	88 8d       	ldd	r24, Y+24	; 0x18
    2406:	0e 94 37 01 	call	0x26e <setVoxel>
    240a:	88 ec       	ldi	r24, 0xC8	; 200
    240c:	0e 94 22 05 	call	0xa44 <swapAndWait>
    2410:	ac 2f       	mov	r26, r28
    2412:	bd 2f       	mov	r27, r29
    2414:	53 96       	adiw	r26, 0x13	; 19
    2416:	e6 ea       	ldi	r30, 0xA6	; 166
    2418:	f0 e0       	ldi	r31, 0x00	; 0
    241a:	83 e0       	ldi	r24, 0x03	; 3
    241c:	01 90       	ld	r0, Z+
    241e:	0d 92       	st	X+, r0
    2420:	81 50       	subi	r24, 0x01	; 1
    2422:	e1 f7       	brne	.-8      	; 0x241c <planeBall+0x5d8>
    2424:	20 91 96 01 	lds	r18, 0x0196
    2428:	30 91 97 01 	lds	r19, 0x0197
    242c:	40 91 98 01 	lds	r20, 0x0198
    2430:	6b 89       	ldd	r22, Y+19	; 0x13
    2432:	7c 89       	ldd	r23, Y+20	; 0x14
    2434:	8d 89       	ldd	r24, Y+21	; 0x15
    2436:	0e 94 37 01 	call	0x26e <setVoxel>
    243a:	ac 2f       	mov	r26, r28
    243c:	bd 2f       	mov	r27, r29
    243e:	50 96       	adiw	r26, 0x10	; 16
    2440:	e3 ea       	ldi	r30, 0xA3	; 163
    2442:	f0 e0       	ldi	r31, 0x00	; 0
    2444:	83 e0       	ldi	r24, 0x03	; 3
    2446:	01 90       	ld	r0, Z+
    2448:	0d 92       	st	X+, r0
    244a:	81 50       	subi	r24, 0x01	; 1
    244c:	e1 f7       	brne	.-8      	; 0x2446 <planeBall+0x602>
    244e:	20 91 66 00 	lds	r18, 0x0066
    2452:	30 91 67 00 	lds	r19, 0x0067
    2456:	40 91 68 00 	lds	r20, 0x0068
    245a:	68 89       	ldd	r22, Y+16	; 0x10
    245c:	79 89       	ldd	r23, Y+17	; 0x11
    245e:	8a 89       	ldd	r24, Y+18	; 0x12
    2460:	0e 94 37 01 	call	0x26e <setVoxel>
    2464:	88 ec       	ldi	r24, 0xC8	; 200
    2466:	0e 94 22 05 	call	0xa44 <swapAndWait>
    246a:	ac 2f       	mov	r26, r28
    246c:	bd 2f       	mov	r27, r29
    246e:	1d 96       	adiw	r26, 0x0d	; 13
    2470:	e0 ea       	ldi	r30, 0xA0	; 160
    2472:	f0 e0       	ldi	r31, 0x00	; 0
    2474:	83 e0       	ldi	r24, 0x03	; 3
    2476:	01 90       	ld	r0, Z+
    2478:	0d 92       	st	X+, r0
    247a:	81 50       	subi	r24, 0x01	; 1
    247c:	e1 f7       	brne	.-8      	; 0x2476 <planeBall+0x632>
    247e:	20 91 96 01 	lds	r18, 0x0196
    2482:	30 91 97 01 	lds	r19, 0x0197
    2486:	40 91 98 01 	lds	r20, 0x0198
    248a:	6d 85       	ldd	r22, Y+13	; 0x0d
    248c:	7e 85       	ldd	r23, Y+14	; 0x0e
    248e:	8f 85       	ldd	r24, Y+15	; 0x0f
    2490:	0e 94 37 01 	call	0x26e <setVoxel>
    2494:	ac 2f       	mov	r26, r28
    2496:	bd 2f       	mov	r27, r29
    2498:	1a 96       	adiw	r26, 0x0a	; 10
    249a:	ed e9       	ldi	r30, 0x9D	; 157
    249c:	f0 e0       	ldi	r31, 0x00	; 0
    249e:	83 e0       	ldi	r24, 0x03	; 3
    24a0:	01 90       	ld	r0, Z+
    24a2:	0d 92       	st	X+, r0
    24a4:	81 50       	subi	r24, 0x01	; 1
    24a6:	e1 f7       	brne	.-8      	; 0x24a0 <planeBall+0x65c>
    24a8:	20 91 66 00 	lds	r18, 0x0066
    24ac:	30 91 67 00 	lds	r19, 0x0067
    24b0:	40 91 68 00 	lds	r20, 0x0068
    24b4:	6a 85       	ldd	r22, Y+10	; 0x0a
    24b6:	7b 85       	ldd	r23, Y+11	; 0x0b
    24b8:	8c 85       	ldd	r24, Y+12	; 0x0c
    24ba:	0e 94 37 01 	call	0x26e <setVoxel>
    24be:	88 ec       	ldi	r24, 0xC8	; 200
    24c0:	0e 94 22 05 	call	0xa44 <swapAndWait>
    24c4:	ac 2f       	mov	r26, r28
    24c6:	bd 2f       	mov	r27, r29
    24c8:	17 96       	adiw	r26, 0x07	; 7
    24ca:	ea e9       	ldi	r30, 0x9A	; 154
    24cc:	f0 e0       	ldi	r31, 0x00	; 0
    24ce:	83 e0       	ldi	r24, 0x03	; 3
    24d0:	01 90       	ld	r0, Z+
    24d2:	0d 92       	st	X+, r0
    24d4:	81 50       	subi	r24, 0x01	; 1
    24d6:	e1 f7       	brne	.-8      	; 0x24d0 <planeBall+0x68c>
    24d8:	20 91 96 01 	lds	r18, 0x0196
    24dc:	30 91 97 01 	lds	r19, 0x0197
    24e0:	40 91 98 01 	lds	r20, 0x0198
    24e4:	6f 81       	ldd	r22, Y+7	; 0x07
    24e6:	78 85       	ldd	r23, Y+8	; 0x08
    24e8:	89 85       	ldd	r24, Y+9	; 0x09
    24ea:	0e 94 37 01 	call	0x26e <setVoxel>
    24ee:	ac 2f       	mov	r26, r28
    24f0:	bd 2f       	mov	r27, r29
    24f2:	14 96       	adiw	r26, 0x04	; 4
    24f4:	e7 e9       	ldi	r30, 0x97	; 151
    24f6:	f0 e0       	ldi	r31, 0x00	; 0
    24f8:	83 e0       	ldi	r24, 0x03	; 3
    24fa:	01 90       	ld	r0, Z+
    24fc:	0d 92       	st	X+, r0
    24fe:	81 50       	subi	r24, 0x01	; 1
    2500:	e1 f7       	brne	.-8      	; 0x24fa <planeBall+0x6b6>
    2502:	20 91 66 00 	lds	r18, 0x0066
    2506:	30 91 67 00 	lds	r19, 0x0067
    250a:	40 91 68 00 	lds	r20, 0x0068
    250e:	6c 81       	ldd	r22, Y+4	; 0x04
    2510:	7d 81       	ldd	r23, Y+5	; 0x05
    2512:	8e 81       	ldd	r24, Y+6	; 0x06
    2514:	0e 94 37 01 	call	0x26e <setVoxel>
    2518:	88 ec       	ldi	r24, 0xC8	; 200
    251a:	0e 94 22 05 	call	0xa44 <swapAndWait>
    251e:	88 ee       	ldi	r24, 0xE8	; 232
    2520:	0e 94 22 05 	call	0xa44 <swapAndWait>
    2524:	60 91 96 01 	lds	r22, 0x0196
    2528:	70 91 97 01 	lds	r23, 0x0197
    252c:	80 91 98 01 	lds	r24, 0x0198
    2530:	0e 94 9e 03 	call	0x73c <clearImage>
    2534:	88 24       	eor	r8, r8
    2536:	99 24       	eor	r9, r9
    2538:	a0 90 63 00 	lds	r10, 0x0063
    253c:	b0 90 64 00 	lds	r11, 0x0064
    2540:	c0 90 65 00 	lds	r12, 0x0065
    2544:	a1 e0       	ldi	r26, 0x01	; 1
    2546:	ea 2e       	mov	r14, r26
    2548:	04 e0       	ldi	r16, 0x04	; 4
    254a:	28 2d       	mov	r18, r8
    254c:	41 e0       	ldi	r20, 0x01	; 1
    254e:	60 e0       	ldi	r22, 0x00	; 0
    2550:	88 2d       	mov	r24, r8
    2552:	0e 94 24 04 	call	0x848 <drawLine3D>
    2556:	08 94       	sec
    2558:	81 1c       	adc	r8, r1
    255a:	91 1c       	adc	r9, r1
    255c:	85 e0       	ldi	r24, 0x05	; 5
    255e:	88 16       	cp	r8, r24
    2560:	91 04       	cpc	r9, r1
    2562:	51 f7       	brne	.-44     	; 0x2538 <planeBall+0x6f4>
    2564:	ac 2f       	mov	r26, r28
    2566:	bd 2f       	mov	r27, r29
    2568:	11 96       	adiw	r26, 0x01	; 1
    256a:	e4 e9       	ldi	r30, 0x94	; 148
    256c:	f0 e0       	ldi	r31, 0x00	; 0
    256e:	83 e0       	ldi	r24, 0x03	; 3
    2570:	01 90       	ld	r0, Z+
    2572:	0d 92       	st	X+, r0
    2574:	81 50       	subi	r24, 0x01	; 1
    2576:	e1 f7       	brne	.-8      	; 0x2570 <planeBall+0x72c>
    2578:	20 91 66 00 	lds	r18, 0x0066
    257c:	30 91 67 00 	lds	r19, 0x0067
    2580:	40 91 68 00 	lds	r20, 0x0068
    2584:	69 81       	ldd	r22, Y+1	; 0x01
    2586:	7a 81       	ldd	r23, Y+2	; 0x02
    2588:	8b 81       	ldd	r24, Y+3	; 0x03
    258a:	0e 94 37 01 	call	0x26e <setVoxel>
    258e:	65 e0       	ldi	r22, 0x05	; 5
    2590:	85 e0       	ldi	r24, 0x05	; 5
    2592:	0e 94 47 05 	call	0xa8e <fade>
    2596:	c6 5a       	subi	r28, 0xA6	; 166
    2598:	df 4f       	sbci	r29, 0xFF	; 255
    259a:	0f b6       	in	r0, 0x3f	; 63
    259c:	f8 94       	cli
    259e:	de bf       	out	0x3e, r29	; 62
    25a0:	0f be       	out	0x3f, r0	; 63
    25a2:	cd bf       	out	0x3d, r28	; 61
    25a4:	df 91       	pop	r29
    25a6:	cf 91       	pop	r28
    25a8:	0f 91       	pop	r16
    25aa:	ef 90       	pop	r14
    25ac:	cf 90       	pop	r12
    25ae:	bf 90       	pop	r11
    25b0:	af 90       	pop	r10
    25b2:	9f 90       	pop	r9
    25b4:	8f 90       	pop	r8
    25b6:	08 95       	ret

000025b8 <spirale>:
    25b8:	2f 92       	push	r2
    25ba:	3f 92       	push	r3
    25bc:	4f 92       	push	r4
    25be:	5f 92       	push	r5
    25c0:	6f 92       	push	r6
    25c2:	7f 92       	push	r7
    25c4:	8f 92       	push	r8
    25c6:	9f 92       	push	r9
    25c8:	af 92       	push	r10
    25ca:	bf 92       	push	r11
    25cc:	cf 92       	push	r12
    25ce:	df 92       	push	r13
    25d0:	ef 92       	push	r14
    25d2:	ff 92       	push	r15
    25d4:	0f 93       	push	r16
    25d6:	1f 93       	push	r17
    25d8:	cf 93       	push	r28
    25da:	df 93       	push	r29
    25dc:	cd b7       	in	r28, 0x3d	; 61
    25de:	de b7       	in	r29, 0x3e	; 62
    25e0:	e5 97       	sbiw	r28, 0x35	; 53
    25e2:	0f b6       	in	r0, 0x3f	; 63
    25e4:	f8 94       	cli
    25e6:	de bf       	out	0x3e, r29	; 62
    25e8:	0f be       	out	0x3f, r0	; 63
    25ea:	cd bf       	out	0x3d, r28	; 61
    25ec:	ac 2f       	mov	r26, r28
    25ee:	bd 2f       	mov	r27, r29
    25f0:	94 96       	adiw	r26, 0x24	; 36
    25f2:	ee ee       	ldi	r30, 0xEE	; 238
    25f4:	f0 e0       	ldi	r31, 0x00	; 0
    25f6:	8f e0       	ldi	r24, 0x0F	; 15
    25f8:	01 90       	ld	r0, Z+
    25fa:	0d 92       	st	X+, r0
    25fc:	81 50       	subi	r24, 0x01	; 1
    25fe:	e1 f7       	brne	.-8      	; 0x25f8 <spirale+0x40>
    2600:	1b aa       	std	Y+51, r1	; 0x33
    2602:	dd 24       	eor	r13, r13
    2604:	44 24       	eor	r4, r4
    2606:	55 24       	eor	r5, r5
    2608:	04 2d       	mov	r16, r4
    260a:	24 2d       	mov	r18, r4
    260c:	22 95       	swap	r18
    260e:	2f 70       	andi	r18, 0x0F	; 15
    2610:	33 27       	eor	r19, r19
    2612:	93 2f       	mov	r25, r19
    2614:	82 2f       	mov	r24, r18
    2616:	01 96       	adiw	r24, 0x01	; 1
    2618:	63 e0       	ldi	r22, 0x03	; 3
    261a:	70 e0       	ldi	r23, 0x00	; 0
    261c:	0e 94 ae 16 	call	0x2d5c <__mulhi3>
    2620:	ac 2f       	mov	r26, r28
    2622:	bd 2f       	mov	r27, r29
    2624:	11 96       	adiw	r26, 0x01	; 1
    2626:	e8 2e       	mov	r14, r24
    2628:	f9 2e       	mov	r15, r25
    262a:	ea 0e       	add	r14, r26
    262c:	fb 1e       	adc	r15, r27
    262e:	ff 2d       	mov	r31, r15
    2630:	ee 2d       	mov	r30, r14
    2632:	83 a1       	ldd	r24, Z+35	; 0x23
    2634:	a8 2e       	mov	r10, r24
    2636:	bb 24       	eor	r11, r11
    2638:	93 2f       	mov	r25, r19
    263a:	82 2f       	mov	r24, r18
    263c:	63 e0       	ldi	r22, 0x03	; 3
    263e:	70 e0       	ldi	r23, 0x00	; 0
    2640:	0e 94 ae 16 	call	0x2d5c <__mulhi3>
    2644:	28 2f       	mov	r18, r24
    2646:	39 2f       	mov	r19, r25
    2648:	2a 0f       	add	r18, r26
    264a:	3b 1f       	adc	r19, r27
    264c:	f3 2f       	mov	r31, r19
    264e:	e2 2f       	mov	r30, r18
    2650:	43 a1       	ldd	r20, Z+35	; 0x23
    2652:	0f 70       	andi	r16, 0x0F	; 15
    2654:	11 27       	eor	r17, r17
    2656:	9b 2d       	mov	r25, r11
    2658:	8a 2d       	mov	r24, r10
    265a:	84 1b       	sub	r24, r20
    265c:	91 09       	sbc	r25, r1
    265e:	71 2f       	mov	r23, r17
    2660:	60 2f       	mov	r22, r16
    2662:	0e 94 ae 16 	call	0x2d5c <__mulhi3>
    2666:	60 e1       	ldi	r22, 0x10	; 16
    2668:	70 e0       	ldi	r23, 0x00	; 0
    266a:	0e 94 cc 16 	call	0x2d98 <__divmodhi4>
    266e:	24 2e       	mov	r2, r20
    2670:	26 0e       	add	r2, r22
    2672:	ff 2d       	mov	r31, r15
    2674:	ee 2d       	mov	r30, r14
    2676:	84 a1       	ldd	r24, Z+36	; 0x24
    2678:	99 27       	eor	r25, r25
    267a:	f3 2f       	mov	r31, r19
    267c:	e2 2f       	mov	r30, r18
    267e:	44 a1       	ldd	r20, Z+36	; 0x24
    2680:	84 1b       	sub	r24, r20
    2682:	91 09       	sbc	r25, r1
    2684:	71 2f       	mov	r23, r17
    2686:	60 2f       	mov	r22, r16
    2688:	0e 94 ae 16 	call	0x2d5c <__mulhi3>
    268c:	60 e1       	ldi	r22, 0x10	; 16
    268e:	70 e0       	ldi	r23, 0x00	; 0
    2690:	0e 94 cc 16 	call	0x2d98 <__divmodhi4>
    2694:	34 2e       	mov	r3, r20
    2696:	36 0e       	add	r3, r22
    2698:	ff 2d       	mov	r31, r15
    269a:	ee 2d       	mov	r30, r14
    269c:	85 a1       	ldd	r24, Z+37	; 0x25
    269e:	99 27       	eor	r25, r25
    26a0:	f3 2f       	mov	r31, r19
    26a2:	e2 2f       	mov	r30, r18
    26a4:	25 a1       	ldd	r18, Z+37	; 0x25
    26a6:	82 1b       	sub	r24, r18
    26a8:	91 09       	sbc	r25, r1
    26aa:	71 2f       	mov	r23, r17
    26ac:	60 2f       	mov	r22, r16
    26ae:	0e 94 ae 16 	call	0x2d5c <__mulhi3>
    26b2:	60 e1       	ldi	r22, 0x10	; 16
    26b4:	70 e0       	ldi	r23, 0x00	; 0
    26b6:	0e 94 cc 16 	call	0x2d98 <__divmodhi4>
    26ba:	f2 2e       	mov	r15, r18
    26bc:	f6 0e       	add	r15, r22
    26be:	66 24       	eor	r6, r6
    26c0:	77 24       	eor	r7, r7
    26c2:	76 c0       	rjmp	.+236    	; 0x27b0 <spirale+0x1f8>
    26c4:	fb 82       	std	Y+3, r15	; 0x03
    26c6:	3a 82       	std	Y+2, r3	; 0x02
    26c8:	29 82       	std	Y+1, r2	; 0x01
    26ca:	ac 2f       	mov	r26, r28
    26cc:	bd 2f       	mov	r27, r29
    26ce:	14 96       	adiw	r26, 0x04	; 4
    26d0:	e5 e1       	ldi	r30, 0x15	; 21
    26d2:	f1 e0       	ldi	r31, 0x01	; 1
    26d4:	88 e0       	ldi	r24, 0x08	; 8
    26d6:	01 90       	ld	r0, Z+
    26d8:	0d 92       	st	X+, r0
    26da:	81 50       	subi	r24, 0x01	; 1
    26dc:	e1 f7       	brne	.-8      	; 0x26d6 <spirale+0x11e>
    26de:	ac 2f       	mov	r26, r28
    26e0:	bd 2f       	mov	r27, r29
    26e2:	1c 96       	adiw	r26, 0x0c	; 12
    26e4:	ed e0       	ldi	r30, 0x0D	; 13
    26e6:	f1 e0       	ldi	r31, 0x01	; 1
    26e8:	88 e0       	ldi	r24, 0x08	; 8
    26ea:	01 90       	ld	r0, Z+
    26ec:	0d 92       	st	X+, r0
    26ee:	81 50       	subi	r24, 0x01	; 1
    26f0:	e1 f7       	brne	.-8      	; 0x26ea <spirale+0x132>
    26f2:	ac 2f       	mov	r26, r28
    26f4:	bd 2f       	mov	r27, r29
    26f6:	54 96       	adiw	r26, 0x14	; 20
    26f8:	e5 e0       	ldi	r30, 0x05	; 5
    26fa:	f1 e0       	ldi	r31, 0x01	; 1
    26fc:	88 e0       	ldi	r24, 0x08	; 8
    26fe:	01 90       	ld	r0, Z+
    2700:	0d 92       	st	X+, r0
    2702:	81 50       	subi	r24, 0x01	; 1
    2704:	e1 f7       	brne	.-8      	; 0x26fe <spirale+0x146>
    2706:	ac 2f       	mov	r26, r28
    2708:	bd 2f       	mov	r27, r29
    270a:	5c 96       	adiw	r26, 0x1c	; 28
    270c:	ed ef       	ldi	r30, 0xFD	; 253
    270e:	f0 e0       	ldi	r31, 0x00	; 0
    2710:	88 e0       	ldi	r24, 0x08	; 8
    2712:	01 90       	ld	r0, Z+
    2714:	0d 92       	st	X+, r0
    2716:	81 50       	subi	r24, 0x01	; 1
    2718:	e1 f7       	brne	.-8      	; 0x2712 <spirale+0x15a>
    271a:	8d 2d       	mov	r24, r13
    271c:	99 27       	eor	r25, r25
    271e:	79 2d       	mov	r23, r9
    2720:	68 2d       	mov	r22, r8
    2722:	0e 94 ae 16 	call	0x2d5c <__mulhi3>
    2726:	64 e0       	ldi	r22, 0x04	; 4
    2728:	70 e0       	ldi	r23, 0x00	; 0
    272a:	0e 94 cc 16 	call	0x2d98 <__divmodhi4>
    272e:	e1 2f       	mov	r30, r17
    2730:	e6 0f       	add	r30, r22
    2732:	e7 70       	andi	r30, 0x07	; 7
    2734:	2e 2f       	mov	r18, r30
    2736:	33 27       	eor	r19, r19
    2738:	b3 2f       	mov	r27, r19
    273a:	a2 2f       	mov	r26, r18
    273c:	ac 0f       	add	r26, r28
    273e:	bd 1f       	adc	r27, r29
    2740:	bd ab       	std	Y+53, r27	; 0x35
    2742:	ac ab       	std	Y+52, r26	; 0x34
    2744:	a9 80       	ldd	r10, Y+1	; 0x01
    2746:	ba 80       	ldd	r11, Y+2	; 0x02
    2748:	cb 80       	ldd	r12, Y+3	; 0x03
    274a:	e8 2c       	mov	r14, r8
    274c:	fb 2f       	mov	r31, r27
    274e:	ea 2f       	mov	r30, r26
    2750:	04 8d       	ldd	r16, Z+28	; 0x1c
    2752:	24 89       	ldd	r18, Z+20	; 0x14
    2754:	48 2d       	mov	r20, r8
    2756:	64 85       	ldd	r22, Z+12	; 0x0c
    2758:	84 81       	ldd	r24, Z+4	; 0x04
    275a:	0e 94 24 04 	call	0x848 <drawLine3D>
    275e:	08 94       	sec
    2760:	81 1c       	adc	r8, r1
    2762:	91 1c       	adc	r9, r1
    2764:	f5 e0       	ldi	r31, 0x05	; 5
    2766:	8f 16       	cp	r8, r31
    2768:	91 04       	cpc	r9, r1
    276a:	09 f0       	breq	.+2      	; 0x276e <spirale+0x1b6>
    276c:	ab cf       	rjmp	.-170    	; 0x26c4 <spirale+0x10c>
    276e:	8e e1       	ldi	r24, 0x1E	; 30
    2770:	0e 94 22 05 	call	0xa44 <swapAndWait>
    2774:	60 91 96 01 	lds	r22, 0x0196
    2778:	70 91 97 01 	lds	r23, 0x0197
    277c:	80 91 98 01 	lds	r24, 0x0198
    2780:	0e 94 4f 03 	call	0x69e <clearScreen>
    2784:	2b a9       	ldd	r18, Y+51	; 0x33
    2786:	26 30       	cpi	r18, 0x06	; 6
    2788:	10 f0       	brcs	.+4      	; 0x278e <spirale+0x1d6>
    278a:	d3 94       	inc	r13
    278c:	1b aa       	std	Y+51, r1	; 0x33
    278e:	08 94       	sec
    2790:	61 1c       	adc	r6, r1
    2792:	71 1c       	adc	r7, r1
    2794:	38 e0       	ldi	r19, 0x08	; 8
    2796:	63 16       	cp	r6, r19
    2798:	71 04       	cpc	r7, r1
    279a:	51 f4       	brne	.+20     	; 0x27b0 <spirale+0x1f8>
    279c:	08 94       	sec
    279e:	41 1c       	adc	r4, r1
    27a0:	51 1c       	adc	r5, r1
    27a2:	8b e0       	ldi	r24, 0x0B	; 11
    27a4:	8d 15       	cp	r24, r13
    27a6:	40 f0       	brcs	.+16     	; 0x27b8 <spirale+0x200>
    27a8:	9b a9       	ldd	r25, Y+51	; 0x33
    27aa:	9f 5f       	subi	r25, 0xFF	; 255
    27ac:	9b ab       	std	Y+51, r25	; 0x33
    27ae:	2c cf       	rjmp	.-424    	; 0x2608 <spirale+0x50>
    27b0:	16 2d       	mov	r17, r6
    27b2:	88 24       	eor	r8, r8
    27b4:	99 24       	eor	r9, r9
    27b6:	86 cf       	rjmp	.-244    	; 0x26c4 <spirale+0x10c>
    27b8:	60 91 96 01 	lds	r22, 0x0196
    27bc:	70 91 97 01 	lds	r23, 0x0197
    27c0:	80 91 98 01 	lds	r24, 0x0198
    27c4:	0e 94 9e 03 	call	0x73c <clearImage>
    27c8:	6e e1       	ldi	r22, 0x1E	; 30
    27ca:	8a e0       	ldi	r24, 0x0A	; 10
    27cc:	0e 94 47 05 	call	0xa8e <fade>
    27d0:	88 ee       	ldi	r24, 0xE8	; 232
    27d2:	0e 94 22 05 	call	0xa44 <swapAndWait>
    27d6:	e5 96       	adiw	r28, 0x35	; 53
    27d8:	0f b6       	in	r0, 0x3f	; 63
    27da:	f8 94       	cli
    27dc:	de bf       	out	0x3e, r29	; 62
    27de:	0f be       	out	0x3f, r0	; 63
    27e0:	cd bf       	out	0x3d, r28	; 61
    27e2:	df 91       	pop	r29
    27e4:	cf 91       	pop	r28
    27e6:	1f 91       	pop	r17
    27e8:	0f 91       	pop	r16
    27ea:	ff 90       	pop	r15
    27ec:	ef 90       	pop	r14
    27ee:	df 90       	pop	r13
    27f0:	cf 90       	pop	r12
    27f2:	bf 90       	pop	r11
    27f4:	af 90       	pop	r10
    27f6:	9f 90       	pop	r9
    27f8:	8f 90       	pop	r8
    27fa:	7f 90       	pop	r7
    27fc:	6f 90       	pop	r6
    27fe:	5f 90       	pop	r5
    2800:	4f 90       	pop	r4
    2802:	3f 90       	pop	r3
    2804:	2f 90       	pop	r2
    2806:	08 95       	ret

00002808 <upgoingRandom>:
    2808:	8f 92       	push	r8
    280a:	9f 92       	push	r9
    280c:	af 92       	push	r10
    280e:	bf 92       	push	r11
    2810:	cf 92       	push	r12
    2812:	df 92       	push	r13
    2814:	ef 92       	push	r14
    2816:	ff 92       	push	r15
    2818:	0f 93       	push	r16
    281a:	1f 93       	push	r17
    281c:	cf 93       	push	r28
    281e:	df 93       	push	r29
    2820:	cd b7       	in	r28, 0x3d	; 61
    2822:	de b7       	in	r29, 0x3e	; 62
    2824:	26 97       	sbiw	r28, 0x06	; 6
    2826:	0f b6       	in	r0, 0x3f	; 63
    2828:	f8 94       	cli
    282a:	de bf       	out	0x3e, r29	; 62
    282c:	0f be       	out	0x3f, r0	; 63
    282e:	cd bf       	out	0x3d, r28	; 61
    2830:	bb 24       	eor	r11, r11
    2832:	e2 e0       	ldi	r30, 0x02	; 2
    2834:	ce 2e       	mov	r12, r30
    2836:	7f ef       	ldi	r23, 0xFF	; 255
    2838:	d7 2e       	mov	r13, r23
    283a:	04 e0       	ldi	r16, 0x04	; 4
    283c:	ee 24       	eor	r14, r14
    283e:	ff 24       	eor	r15, r15
    2840:	64 e6       	ldi	r22, 0x64	; 100
    2842:	86 2e       	mov	r8, r22
    2844:	54 e6       	ldi	r21, 0x64	; 100
    2846:	95 2e       	mov	r9, r21
    2848:	44 e6       	ldi	r20, 0x64	; 100
    284a:	a4 2e       	mov	r10, r20
    284c:	2f c0       	rjmp	.+94     	; 0x28ac <upgoingRandom+0xa4>
    284e:	8a 2d       	mov	r24, r10
    2850:	88 50       	subi	r24, 0x08	; 8
    2852:	81 3f       	cpi	r24, 0xF1	; 241
    2854:	08 f0       	brcs	.+2      	; 0x2858 <upgoingRandom+0x50>
    2856:	c1 94       	neg	r12
    2858:	89 2d       	mov	r24, r9
    285a:	88 50       	subi	r24, 0x08	; 8
    285c:	81 3f       	cpi	r24, 0xF1	; 241
    285e:	08 f0       	brcs	.+2      	; 0x2862 <upgoingRandom+0x5a>
    2860:	d1 94       	neg	r13
    2862:	88 2d       	mov	r24, r8
    2864:	88 50       	subi	r24, 0x08	; 8
    2866:	81 3f       	cpi	r24, 0xF1	; 241
    2868:	08 f0       	brcs	.+2      	; 0x286c <upgoingRandom+0x64>
    286a:	01 95       	neg	r16
    286c:	ac 0c       	add	r10, r12
    286e:	9d 0c       	add	r9, r13
    2870:	80 0e       	add	r8, r16
    2872:	0e 94 c1 03 	call	0x782 <easyRandom>
    2876:	18 2f       	mov	r17, r24
    2878:	0e 94 c1 03 	call	0x782 <easyRandom>
    287c:	28 2f       	mov	r18, r24
    287e:	81 2f       	mov	r24, r17
    2880:	65 e0       	ldi	r22, 0x05	; 5
    2882:	0e 94 c0 16 	call	0x2d80 <__udivmodqi4>
    2886:	59 2f       	mov	r21, r25
    2888:	99 83       	std	Y+1, r25	; 0x01
    288a:	82 2f       	mov	r24, r18
    288c:	0e 94 c0 16 	call	0x2d80 <__udivmodqi4>
    2890:	9a 83       	std	Y+2, r25	; 0x02
    2892:	1b 82       	std	Y+3, r1	; 0x03
    2894:	8e 82       	std	Y+6, r8	; 0x06
    2896:	9d 82       	std	Y+5, r9	; 0x05
    2898:	ac 82       	std	Y+4, r10	; 0x04
    289a:	2a 2d       	mov	r18, r10
    289c:	39 2d       	mov	r19, r9
    289e:	48 2d       	mov	r20, r8
    28a0:	65 2f       	mov	r22, r21
    28a2:	79 2f       	mov	r23, r25
    28a4:	80 e0       	ldi	r24, 0x00	; 0
    28a6:	0e 94 37 01 	call	0x26e <setVoxel>
    28aa:	b3 94       	inc	r11
    28ac:	2b 2d       	mov	r18, r11
    28ae:	33 27       	eor	r19, r19
    28b0:	9f 2d       	mov	r25, r15
    28b2:	8e 2d       	mov	r24, r14
    28b4:	87 70       	andi	r24, 0x07	; 7
    28b6:	90 70       	andi	r25, 0x00	; 0
    28b8:	04 96       	adiw	r24, 0x04	; 4
    28ba:	28 17       	cp	r18, r24
    28bc:	39 07       	cpc	r19, r25
    28be:	38 f2       	brcs	.-114    	; 0x284e <upgoingRandom+0x46>
    28c0:	82 e1       	ldi	r24, 0x12	; 18
    28c2:	0e 94 22 05 	call	0xa44 <swapAndWait>
    28c6:	81 e0       	ldi	r24, 0x01	; 1
    28c8:	0e 94 fe 03 	call	0x7fc <shift>
    28cc:	0e 94 c1 03 	call	0x782 <easyRandom>
    28d0:	08 2f       	mov	r16, r24
    28d2:	0e 94 c1 03 	call	0x782 <easyRandom>
    28d6:	18 2f       	mov	r17, r24
    28d8:	0e 94 c1 03 	call	0x782 <easyRandom>
    28dc:	08 94       	sec
    28de:	e1 1c       	adc	r14, r1
    28e0:	f1 1c       	adc	r15, r1
    28e2:	98 e5       	ldi	r25, 0x58	; 88
    28e4:	e9 16       	cp	r14, r25
    28e6:	92 e0       	ldi	r25, 0x02	; 2
    28e8:	f9 06       	cpc	r15, r25
    28ea:	70 f4       	brcc	.+28     	; 0x2908 <upgoingRandom+0x100>
    28ec:	3f e0       	ldi	r19, 0x0F	; 15
    28ee:	c3 2e       	mov	r12, r19
    28f0:	c0 22       	and	r12, r16
    28f2:	98 ef       	ldi	r25, 0xF8	; 248
    28f4:	c9 0e       	add	r12, r25
    28f6:	2f e0       	ldi	r18, 0x0F	; 15
    28f8:	d2 2e       	mov	r13, r18
    28fa:	d1 22       	and	r13, r17
    28fc:	d9 0e       	add	r13, r25
    28fe:	08 2f       	mov	r16, r24
    2900:	0f 70       	andi	r16, 0x0F	; 15
    2902:	08 50       	subi	r16, 0x08	; 8
    2904:	bb 24       	eor	r11, r11
    2906:	d2 cf       	rjmp	.-92     	; 0x28ac <upgoingRandom+0xa4>
    2908:	60 91 96 01 	lds	r22, 0x0196
    290c:	70 91 97 01 	lds	r23, 0x0197
    2910:	80 91 98 01 	lds	r24, 0x0198
    2914:	0e 94 9e 03 	call	0x73c <clearImage>
    2918:	6e e1       	ldi	r22, 0x1E	; 30
    291a:	8a e0       	ldi	r24, 0x0A	; 10
    291c:	0e 94 47 05 	call	0xa8e <fade>
    2920:	88 ee       	ldi	r24, 0xE8	; 232
    2922:	0e 94 22 05 	call	0xa44 <swapAndWait>
    2926:	26 96       	adiw	r28, 0x06	; 6
    2928:	0f b6       	in	r0, 0x3f	; 63
    292a:	f8 94       	cli
    292c:	de bf       	out	0x3e, r29	; 62
    292e:	0f be       	out	0x3f, r0	; 63
    2930:	cd bf       	out	0x3d, r28	; 61
    2932:	df 91       	pop	r29
    2934:	cf 91       	pop	r28
    2936:	1f 91       	pop	r17
    2938:	0f 91       	pop	r16
    293a:	ff 90       	pop	r15
    293c:	ef 90       	pop	r14
    293e:	df 90       	pop	r13
    2940:	cf 90       	pop	r12
    2942:	bf 90       	pop	r11
    2944:	af 90       	pop	r10
    2946:	9f 90       	pop	r9
    2948:	8f 90       	pop	r8
    294a:	08 95       	ret

0000294c <movingArrows>:
    294c:	7f 92       	push	r7
    294e:	8f 92       	push	r8
    2950:	9f 92       	push	r9
    2952:	af 92       	push	r10
    2954:	bf 92       	push	r11
    2956:	cf 92       	push	r12
    2958:	df 92       	push	r13
    295a:	ef 92       	push	r14
    295c:	ff 92       	push	r15
    295e:	0f 93       	push	r16
    2960:	1f 93       	push	r17
    2962:	cf 93       	push	r28
    2964:	df 93       	push	r29
    2966:	cd b7       	in	r28, 0x3d	; 61
    2968:	de b7       	in	r29, 0x3e	; 62
    296a:	6e 97       	sbiw	r28, 0x1e	; 30
    296c:	0f b6       	in	r0, 0x3f	; 63
    296e:	f8 94       	cli
    2970:	de bf       	out	0x3e, r29	; 62
    2972:	0f be       	out	0x3f, r0	; 63
    2974:	cd bf       	out	0x3d, r28	; 61
    2976:	ac 2f       	mov	r26, r28
    2978:	bd 2f       	mov	r27, r29
    297a:	53 96       	adiw	r26, 0x13	; 19
    297c:	e0 e2       	ldi	r30, 0x20	; 32
    297e:	f1 e0       	ldi	r31, 0x01	; 1
    2980:	8c e0       	ldi	r24, 0x0C	; 12
    2982:	01 90       	ld	r0, Z+
    2984:	0d 92       	st	X+, r0
    2986:	81 50       	subi	r24, 0x01	; 1
    2988:	e1 f7       	brne	.-8      	; 0x2982 <movingArrows+0x36>
    298a:	77 24       	eor	r7, r7
    298c:	88 24       	eor	r8, r8
    298e:	99 24       	eor	r9, r9
    2990:	aa 24       	eor	r10, r10
    2992:	cc 24       	eor	r12, r12
    2994:	dd 24       	eor	r13, r13
    2996:	81 e0       	ldi	r24, 0x01	; 1
    2998:	0e 94 fe 03 	call	0x7fc <shift>
    299c:	8c 2d       	mov	r24, r12
    299e:	63 e0       	ldi	r22, 0x03	; 3
    29a0:	0e 94 c0 16 	call	0x2d80 <__udivmodqi4>
    29a4:	b9 2e       	mov	r11, r25
    29a6:	ee 24       	eor	r14, r14
    29a8:	ff 24       	eor	r15, r15
    29aa:	7a c0       	rjmp	.+244    	; 0x2aa0 <movingArrows+0x154>
    29ac:	81 e0       	ldi	r24, 0x01	; 1
    29ae:	b8 16       	cp	r11, r24
    29b0:	71 f1       	breq	.+92     	; 0x2a0e <movingArrows+0xc2>
    29b2:	b8 16       	cp	r11, r24
    29b4:	28 f0       	brcs	.+10     	; 0x29c0 <movingArrows+0x74>
    29b6:	82 e0       	ldi	r24, 0x02	; 2
    29b8:	b8 16       	cp	r11, r24
    29ba:	09 f0       	breq	.+2      	; 0x29be <movingArrows+0x72>
    29bc:	59 c0       	rjmp	.+178    	; 0x2a70 <movingArrows+0x124>
    29be:	3c c0       	rjmp	.+120    	; 0x2a38 <movingArrows+0xec>
    29c0:	02 30       	cpi	r16, 0x02	; 2
    29c2:	09 f0       	breq	.+2      	; 0x29c6 <movingArrows+0x7a>
    29c4:	55 c0       	rjmp	.+170    	; 0x2a70 <movingArrows+0x124>
    29c6:	12 30       	cpi	r17, 0x02	; 2
    29c8:	09 f0       	breq	.+2      	; 0x29cc <movingArrows+0x80>
    29ca:	52 c0       	rjmp	.+164    	; 0x2a70 <movingArrows+0x124>
    29cc:	87 2d       	mov	r24, r7
    29ce:	99 27       	eor	r25, r25
    29d0:	83 70       	andi	r24, 0x03	; 3
    29d2:	90 70       	andi	r25, 0x00	; 0
    29d4:	63 e0       	ldi	r22, 0x03	; 3
    29d6:	70 e0       	ldi	r23, 0x00	; 0
    29d8:	0e 94 ae 16 	call	0x2d5c <__mulhi3>
    29dc:	fd 2f       	mov	r31, r29
    29de:	ec 2f       	mov	r30, r28
    29e0:	31 96       	adiw	r30, 0x01	; 1
    29e2:	e8 0f       	add	r30, r24
    29e4:	f9 1f       	adc	r31, r25
    29e6:	84 88       	ldd	r8, Z+20	; 0x14
    29e8:	93 88       	ldd	r9, Z+19	; 0x13
    29ea:	a2 88       	ldd	r10, Z+18	; 0x12
    29ec:	73 94       	inc	r7
    29ee:	1d 87       	std	Y+13, r17	; 0x0d
    29f0:	1e 87       	std	Y+14, r17	; 0x0e
    29f2:	1f 86       	std	Y+15, r1	; 0x0f
    29f4:	8a 8a       	std	Y+18, r8	; 0x12
    29f6:	99 8a       	std	Y+17, r9	; 0x11
    29f8:	a8 8a       	std	Y+16, r10	; 0x10
    29fa:	2a 2d       	mov	r18, r10
    29fc:	39 2d       	mov	r19, r9
    29fe:	48 2d       	mov	r20, r8
    2a00:	62 e0       	ldi	r22, 0x02	; 2
    2a02:	72 e0       	ldi	r23, 0x02	; 2
    2a04:	80 e0       	ldi	r24, 0x00	; 0
    2a06:	0e 94 37 01 	call	0x26e <setVoxel>
    2a0a:	13 e0       	ldi	r17, 0x03	; 3
    2a0c:	cf cf       	rjmp	.-98     	; 0x29ac <movingArrows+0x60>
    2a0e:	01 30       	cpi	r16, 0x01	; 1
    2a10:	11 f0       	breq	.+4      	; 0x2a16 <movingArrows+0xca>
    2a12:	03 30       	cpi	r16, 0x03	; 3
    2a14:	69 f5       	brne	.+90     	; 0x2a70 <movingArrows+0x124>
    2a16:	11 30       	cpi	r17, 0x01	; 1
    2a18:	11 f0       	breq	.+4      	; 0x2a1e <movingArrows+0xd2>
    2a1a:	13 30       	cpi	r17, 0x03	; 3
    2a1c:	49 f5       	brne	.+82     	; 0x2a70 <movingArrows+0x124>
    2a1e:	2a 2d       	mov	r18, r10
    2a20:	26 95       	lsr	r18
    2a22:	2a 87       	std	Y+10, r18	; 0x0a
    2a24:	39 2d       	mov	r19, r9
    2a26:	36 95       	lsr	r19
    2a28:	3b 87       	std	Y+11, r19	; 0x0b
    2a2a:	48 2d       	mov	r20, r8
    2a2c:	46 95       	lsr	r20
    2a2e:	4c 87       	std	Y+12, r20	; 0x0c
    2a30:	0f 83       	std	Y+7, r16	; 0x07
    2a32:	18 87       	std	Y+8, r17	; 0x08
    2a34:	19 86       	std	Y+9, r1	; 0x09
    2a36:	17 c0       	rjmp	.+46     	; 0x2a66 <movingArrows+0x11a>
    2a38:	00 23       	and	r16, r16
    2a3a:	11 f0       	breq	.+4      	; 0x2a40 <movingArrows+0xf4>
    2a3c:	04 30       	cpi	r16, 0x04	; 4
    2a3e:	c1 f4       	brne	.+48     	; 0x2a70 <movingArrows+0x124>
    2a40:	11 23       	and	r17, r17
    2a42:	11 f0       	breq	.+4      	; 0x2a48 <movingArrows+0xfc>
    2a44:	14 30       	cpi	r17, 0x04	; 4
    2a46:	a1 f4       	brne	.+40     	; 0x2a70 <movingArrows+0x124>
    2a48:	2a 2d       	mov	r18, r10
    2a4a:	26 95       	lsr	r18
    2a4c:	26 95       	lsr	r18
    2a4e:	2c 83       	std	Y+4, r18	; 0x04
    2a50:	39 2d       	mov	r19, r9
    2a52:	36 95       	lsr	r19
    2a54:	36 95       	lsr	r19
    2a56:	3d 83       	std	Y+5, r19	; 0x05
    2a58:	48 2d       	mov	r20, r8
    2a5a:	46 95       	lsr	r20
    2a5c:	46 95       	lsr	r20
    2a5e:	4e 83       	std	Y+6, r20	; 0x06
    2a60:	09 83       	std	Y+1, r16	; 0x01
    2a62:	1a 83       	std	Y+2, r17	; 0x02
    2a64:	1b 82       	std	Y+3, r1	; 0x03
    2a66:	60 2f       	mov	r22, r16
    2a68:	71 2f       	mov	r23, r17
    2a6a:	80 e0       	ldi	r24, 0x00	; 0
    2a6c:	0e 94 37 01 	call	0x26e <setVoxel>
    2a70:	1f 5f       	subi	r17, 0xFF	; 255
    2a72:	15 30       	cpi	r17, 0x05	; 5
    2a74:	08 f4       	brcc	.+2      	; 0x2a78 <movingArrows+0x12c>
    2a76:	9a cf       	rjmp	.-204    	; 0x29ac <movingArrows+0x60>
    2a78:	08 94       	sec
    2a7a:	e1 1c       	adc	r14, r1
    2a7c:	f1 1c       	adc	r15, r1
    2a7e:	85 e0       	ldi	r24, 0x05	; 5
    2a80:	e8 16       	cp	r14, r24
    2a82:	f1 04       	cpc	r15, r1
    2a84:	69 f4       	brne	.+26     	; 0x2aa0 <movingArrows+0x154>
    2a86:	6a e0       	ldi	r22, 0x0A	; 10
    2a88:	8a e0       	ldi	r24, 0x0A	; 10
    2a8a:	0e 94 47 05 	call	0xa8e <fade>
    2a8e:	08 94       	sec
    2a90:	c1 1c       	adc	r12, r1
    2a92:	d1 1c       	adc	r13, r1
    2a94:	84 e6       	ldi	r24, 0x64	; 100
    2a96:	c8 16       	cp	r12, r24
    2a98:	d1 04       	cpc	r13, r1
    2a9a:	09 f0       	breq	.+2      	; 0x2a9e <movingArrows+0x152>
    2a9c:	7c cf       	rjmp	.-264    	; 0x2996 <movingArrows+0x4a>
    2a9e:	03 c0       	rjmp	.+6      	; 0x2aa6 <movingArrows+0x15a>
    2aa0:	0e 2d       	mov	r16, r14
    2aa2:	10 e0       	ldi	r17, 0x00	; 0
    2aa4:	83 cf       	rjmp	.-250    	; 0x29ac <movingArrows+0x60>
    2aa6:	60 91 96 01 	lds	r22, 0x0196
    2aaa:	70 91 97 01 	lds	r23, 0x0197
    2aae:	80 91 98 01 	lds	r24, 0x0198
    2ab2:	0e 94 9e 03 	call	0x73c <clearImage>
    2ab6:	62 e3       	ldi	r22, 0x32	; 50
    2ab8:	8a e0       	ldi	r24, 0x0A	; 10
    2aba:	0e 94 47 05 	call	0xa8e <fade>
    2abe:	6e 96       	adiw	r28, 0x1e	; 30
    2ac0:	0f b6       	in	r0, 0x3f	; 63
    2ac2:	f8 94       	cli
    2ac4:	de bf       	out	0x3e, r29	; 62
    2ac6:	0f be       	out	0x3f, r0	; 63
    2ac8:	cd bf       	out	0x3d, r28	; 61
    2aca:	df 91       	pop	r29
    2acc:	cf 91       	pop	r28
    2ace:	1f 91       	pop	r17
    2ad0:	0f 91       	pop	r16
    2ad2:	ff 90       	pop	r15
    2ad4:	ef 90       	pop	r14
    2ad6:	df 90       	pop	r13
    2ad8:	cf 90       	pop	r12
    2ada:	bf 90       	pop	r11
    2adc:	af 90       	pop	r10
    2ade:	9f 90       	pop	r9
    2ae0:	8f 90       	pop	r8
    2ae2:	7f 90       	pop	r7
    2ae4:	08 95       	ret

00002ae6 <symetricRoutes>:
    2ae6:	bf 92       	push	r11
    2ae8:	cf 92       	push	r12
    2aea:	df 92       	push	r13
    2aec:	ef 92       	push	r14
    2aee:	ff 92       	push	r15
    2af0:	0f 93       	push	r16
    2af2:	1f 93       	push	r17
    2af4:	cf 93       	push	r28
    2af6:	df 93       	push	r29
    2af8:	cd b7       	in	r28, 0x3d	; 61
    2afa:	de b7       	in	r29, 0x3e	; 62
    2afc:	2c 97       	sbiw	r28, 0x0c	; 12
    2afe:	0f b6       	in	r0, 0x3f	; 63
    2b00:	f8 94       	cli
    2b02:	de bf       	out	0x3e, r29	; 62
    2b04:	0f be       	out	0x3f, r0	; 63
    2b06:	cd bf       	out	0x3d, r28	; 61
    2b08:	ac 2f       	mov	r26, r28
    2b0a:	bd 2f       	mov	r27, r29
    2b0c:	14 96       	adiw	r26, 0x04	; 4
    2b0e:	ed e1       	ldi	r30, 0x1D	; 29
    2b10:	f1 e0       	ldi	r31, 0x01	; 1
    2b12:	83 e0       	ldi	r24, 0x03	; 3
    2b14:	01 90       	ld	r0, Z+
    2b16:	0d 92       	st	X+, r0
    2b18:	81 50       	subi	r24, 0x01	; 1
    2b1a:	e1 f7       	brne	.-8      	; 0x2b14 <symetricRoutes+0x2e>
    2b1c:	60 91 96 01 	lds	r22, 0x0196
    2b20:	70 91 97 01 	lds	r23, 0x0197
    2b24:	80 91 98 01 	lds	r24, 0x0198
    2b28:	0e 94 4f 03 	call	0x69e <clearScreen>
    2b2c:	1e ef       	ldi	r17, 0xFE	; 254
    2b2e:	b1 2e       	mov	r11, r17
    2b30:	b3 e0       	ldi	r27, 0x03	; 3
    2b32:	cb 2e       	mov	r12, r27
    2b34:	ee 24       	eor	r14, r14
    2b36:	a1 e0       	ldi	r26, 0x01	; 1
    2b38:	da 2e       	mov	r13, r26
    2b3a:	fa ea       	ldi	r31, 0xAA	; 170
    2b3c:	ff 2e       	mov	r15, r31
    2b3e:	04 e6       	ldi	r16, 0x64	; 100
    2b40:	10 ea       	ldi	r17, 0xA0	; 160
    2b42:	0e 94 c1 03 	call	0x782 <easyRandom>
    2b46:	66 e0       	ldi	r22, 0x06	; 6
    2b48:	0e 94 c0 16 	call	0x2d80 <__udivmodqi4>
    2b4c:	9f 5f       	subi	r25, 0xFF	; 255
    2b4e:	49 2f       	mov	r20, r25
    2b50:	6c 81       	ldd	r22, Y+4	; 0x04
    2b52:	7d 81       	ldd	r23, Y+5	; 0x05
    2b54:	8e 81       	ldd	r24, Y+6	; 0x06
    2b56:	0e 94 ea 02 	call	0x5d4 <getNextVoxel>
    2b5a:	6a 87       	std	Y+10, r22	; 0x0a
    2b5c:	7b 87       	std	Y+11, r23	; 0x0b
    2b5e:	8c 87       	std	Y+12, r24	; 0x0c
    2b60:	ac 2f       	mov	r26, r28
    2b62:	bd 2f       	mov	r27, r29
    2b64:	17 96       	adiw	r26, 0x07	; 7
    2b66:	fd 2f       	mov	r31, r29
    2b68:	ec 2f       	mov	r30, r28
    2b6a:	3a 96       	adiw	r30, 0x0a	; 10
    2b6c:	83 e0       	ldi	r24, 0x03	; 3
    2b6e:	01 90       	ld	r0, Z+
    2b70:	0d 92       	st	X+, r0
    2b72:	81 50       	subi	r24, 0x01	; 1
    2b74:	e1 f7       	brne	.-8      	; 0x2b6e <symetricRoutes+0x88>
    2b76:	89 85       	ldd	r24, Y+9	; 0x09
    2b78:	78 85       	ldd	r23, Y+8	; 0x08
    2b7a:	6f 81       	ldd	r22, Y+7	; 0x07
    2b7c:	63 30       	cpi	r22, 0x03	; 3
    2b7e:	08 f7       	brcc	.-62     	; 0x2b42 <symetricRoutes+0x5c>
    2b80:	73 30       	cpi	r23, 0x03	; 3
    2b82:	f8 f6       	brcc	.-66     	; 0x2b42 <symetricRoutes+0x5c>
    2b84:	83 30       	cpi	r24, 0x03	; 3
    2b86:	e8 f6       	brcc	.-70     	; 0x2b42 <symetricRoutes+0x5c>
    2b88:	8e 83       	std	Y+6, r24	; 0x06
    2b8a:	7d 83       	std	Y+5, r23	; 0x05
    2b8c:	6c 83       	std	Y+4, r22	; 0x04
    2b8e:	fb 82       	std	Y+3, r15	; 0x03
    2b90:	0a 83       	std	Y+2, r16	; 0x02
    2b92:	19 83       	std	Y+1, r17	; 0x01
    2b94:	21 2f       	mov	r18, r17
    2b96:	30 2f       	mov	r19, r16
    2b98:	4f 2d       	mov	r20, r15
    2b9a:	0e 94 83 01 	call	0x306 <setSymetricVoxel>
    2b9e:	82 e3       	ldi	r24, 0x32	; 50
    2ba0:	0e 94 22 05 	call	0xa44 <swapAndWait>
    2ba4:	8e 2d       	mov	r24, r14
    2ba6:	99 27       	eor	r25, r25
    2ba8:	8f 70       	andi	r24, 0x0F	; 15
    2baa:	90 70       	andi	r25, 0x00	; 0
    2bac:	89 2b       	or	r24, r25
    2bae:	41 f4       	brne	.+16     	; 0x2bc0 <symetricRoutes+0xda>
    2bb0:	60 91 96 01 	lds	r22, 0x0196
    2bb4:	70 91 97 01 	lds	r23, 0x0197
    2bb8:	80 91 98 01 	lds	r24, 0x0198
    2bbc:	0e 94 4f 03 	call	0x69e <clearScreen>
    2bc0:	81 2f       	mov	r24, r17
    2bc2:	85 50       	subi	r24, 0x05	; 5
    2bc4:	86 3f       	cpi	r24, 0xF6	; 246
    2bc6:	08 f0       	brcs	.+2      	; 0x2bca <symetricRoutes+0xe4>
    2bc8:	c1 94       	neg	r12
    2bca:	80 2f       	mov	r24, r16
    2bcc:	85 50       	subi	r24, 0x05	; 5
    2bce:	86 3f       	cpi	r24, 0xF6	; 246
    2bd0:	08 f0       	brcs	.+2      	; 0x2bd4 <symetricRoutes+0xee>
    2bd2:	d1 94       	neg	r13
    2bd4:	8f 2d       	mov	r24, r15
    2bd6:	85 50       	subi	r24, 0x05	; 5
    2bd8:	86 3f       	cpi	r24, 0xF6	; 246
    2bda:	08 f0       	brcs	.+2      	; 0x2bde <symetricRoutes+0xf8>
    2bdc:	b1 94       	neg	r11
    2bde:	e3 94       	inc	r14
    2be0:	87 ec       	ldi	r24, 0xC7	; 199
    2be2:	8e 15       	cp	r24, r14
    2be4:	20 f0       	brcs	.+8      	; 0x2bee <symetricRoutes+0x108>
    2be6:	1c 0d       	add	r17, r12
    2be8:	0d 0d       	add	r16, r13
    2bea:	fb 0c       	add	r15, r11
    2bec:	aa cf       	rjmp	.-172    	; 0x2b42 <symetricRoutes+0x5c>
    2bee:	2c 96       	adiw	r28, 0x0c	; 12
    2bf0:	0f b6       	in	r0, 0x3f	; 63
    2bf2:	f8 94       	cli
    2bf4:	de bf       	out	0x3e, r29	; 62
    2bf6:	0f be       	out	0x3f, r0	; 63
    2bf8:	cd bf       	out	0x3d, r28	; 61
    2bfa:	df 91       	pop	r29
    2bfc:	cf 91       	pop	r28
    2bfe:	1f 91       	pop	r17
    2c00:	0f 91       	pop	r16
    2c02:	ff 90       	pop	r15
    2c04:	ef 90       	pop	r14
    2c06:	df 90       	pop	r13
    2c08:	cf 90       	pop	r12
    2c0a:	bf 90       	pop	r11
    2c0c:	08 95       	ret

00002c0e <symetricRandom>:
    2c0e:	0f 93       	push	r16
    2c10:	1f 93       	push	r17
    2c12:	cf 93       	push	r28
    2c14:	df 93       	push	r29
    2c16:	cd b7       	in	r28, 0x3d	; 61
    2c18:	de b7       	in	r29, 0x3e	; 62
    2c1a:	26 97       	sbiw	r28, 0x06	; 6
    2c1c:	0f b6       	in	r0, 0x3f	; 63
    2c1e:	f8 94       	cli
    2c20:	de bf       	out	0x3e, r29	; 62
    2c22:	0f be       	out	0x3f, r0	; 63
    2c24:	cd bf       	out	0x3d, r28	; 61
    2c26:	00 e0       	ldi	r16, 0x00	; 0
    2c28:	60 91 96 01 	lds	r22, 0x0196
    2c2c:	70 91 97 01 	lds	r23, 0x0197
    2c30:	80 91 98 01 	lds	r24, 0x0198
    2c34:	0e 94 4f 03 	call	0x69e <clearScreen>
    2c38:	10 e0       	ldi	r17, 0x00	; 0
    2c3a:	0e 94 c1 03 	call	0x782 <easyRandom>
    2c3e:	63 e0       	ldi	r22, 0x03	; 3
    2c40:	0e 94 c0 16 	call	0x2d80 <__udivmodqi4>
    2c44:	99 83       	std	Y+1, r25	; 0x01
    2c46:	0e 94 c1 03 	call	0x782 <easyRandom>
    2c4a:	63 e0       	ldi	r22, 0x03	; 3
    2c4c:	0e 94 c0 16 	call	0x2d80 <__udivmodqi4>
    2c50:	9a 83       	std	Y+2, r25	; 0x02
    2c52:	0e 94 c1 03 	call	0x782 <easyRandom>
    2c56:	63 e0       	ldi	r22, 0x03	; 3
    2c58:	0e 94 c0 16 	call	0x2d80 <__udivmodqi4>
    2c5c:	9b 83       	std	Y+3, r25	; 0x03
    2c5e:	0e 94 c1 03 	call	0x782 <easyRandom>
    2c62:	8c 83       	std	Y+4, r24	; 0x04
    2c64:	0e 94 c1 03 	call	0x782 <easyRandom>
    2c68:	8d 83       	std	Y+5, r24	; 0x05
    2c6a:	0e 94 c1 03 	call	0x782 <easyRandom>
    2c6e:	8e 83       	std	Y+6, r24	; 0x06
    2c70:	2c 81       	ldd	r18, Y+4	; 0x04
    2c72:	3d 81       	ldd	r19, Y+5	; 0x05
    2c74:	48 2f       	mov	r20, r24
    2c76:	69 81       	ldd	r22, Y+1	; 0x01
    2c78:	7a 81       	ldd	r23, Y+2	; 0x02
    2c7a:	8b 81       	ldd	r24, Y+3	; 0x03
    2c7c:	0e 94 83 01 	call	0x306 <setSymetricVoxel>
    2c80:	1f 5f       	subi	r17, 0xFF	; 255
    2c82:	1a 30       	cpi	r17, 0x0A	; 10
    2c84:	d1 f6       	brne	.-76     	; 0x2c3a <symetricRandom+0x2c>
    2c86:	8f e0       	ldi	r24, 0x0F	; 15
    2c88:	0e 94 22 05 	call	0xa44 <swapAndWait>
    2c8c:	0f 5f       	subi	r16, 0xFF	; 255
    2c8e:	0e 3f       	cpi	r16, 0xFE	; 254
    2c90:	59 f6       	brne	.-106    	; 0x2c28 <symetricRandom+0x1a>
    2c92:	60 91 96 01 	lds	r22, 0x0196
    2c96:	70 91 97 01 	lds	r23, 0x0197
    2c9a:	80 91 98 01 	lds	r24, 0x0198
    2c9e:	0e 94 4f 03 	call	0x69e <clearScreen>
    2ca2:	26 96       	adiw	r28, 0x06	; 6
    2ca4:	0f b6       	in	r0, 0x3f	; 63
    2ca6:	f8 94       	cli
    2ca8:	de bf       	out	0x3e, r29	; 62
    2caa:	0f be       	out	0x3f, r0	; 63
    2cac:	cd bf       	out	0x3d, r28	; 61
    2cae:	df 91       	pop	r29
    2cb0:	cf 91       	pop	r28
    2cb2:	1f 91       	pop	r17
    2cb4:	0f 91       	pop	r16
    2cb6:	08 95       	ret

00002cb8 <display_loop>:
    2cb8:	0e 94 66 07 	call	0xecc <brightnesTest>
    2cbc:	0e 94 c5 0a 	call	0x158a <funkyBeat>
    2cc0:	0e 94 a6 14 	call	0x294c <movingArrows>
    2cc4:	0e 94 04 14 	call	0x2808 <upgoingRandom>
    2cc8:	0e 94 22 0f 	call	0x1e44 <planeBall>
    2ccc:	0e 94 09 08 	call	0x1012 <wobbeln>
    2cd0:	0e 94 73 15 	call	0x2ae6 <symetricRoutes>
    2cd4:	0e 94 dc 12 	call	0x25b8 <spirale>
    2cd8:	0e 94 ae 0c 	call	0x195c <snake>
    2cdc:	0e 94 e0 0b 	call	0x17c0 <movingCubes>
    2ce0:	0e 94 07 16 	call	0x2c0e <symetricRandom>
    2ce4:	0e 94 7c 09 	call	0x12f8 <testAnim>
    2ce8:	0e 94 23 09 	call	0x1246 <fnordLicht>
    2cec:	e5 cf       	rjmp	.-54     	; 0x2cb8 <display_loop>

00002cee <itoa>:
    2cee:	e6 2f       	mov	r30, r22
    2cf0:	f7 2f       	mov	r31, r23
    2cf2:	2e 2f       	mov	r18, r30
    2cf4:	3f 2f       	mov	r19, r31
    2cf6:	e8 94       	clt
    2cf8:	42 30       	cpi	r20, 0x02	; 2
    2cfa:	cc f0       	brlt	.+50     	; 0x2d2e <itoa+0x40>
    2cfc:	45 32       	cpi	r20, 0x25	; 37
    2cfe:	bc f4       	brge	.+46     	; 0x2d2e <itoa+0x40>
    2d00:	4a 30       	cpi	r20, 0x0A	; 10
    2d02:	29 f4       	brne	.+10     	; 0x2d0e <itoa+0x20>
    2d04:	97 fb       	bst	r25, 7
    2d06:	1e f4       	brtc	.+6      	; 0x2d0e <itoa+0x20>
    2d08:	90 95       	com	r25
    2d0a:	81 95       	neg	r24
    2d0c:	9f 4f       	sbci	r25, 0xFF	; 255
    2d0e:	64 2f       	mov	r22, r20
    2d10:	77 27       	eor	r23, r23
    2d12:	0e 94 df 16 	call	0x2dbe <__udivmodhi4>
    2d16:	80 5d       	subi	r24, 0xD0	; 208
    2d18:	8a 33       	cpi	r24, 0x3A	; 58
    2d1a:	0c f0       	brlt	.+2      	; 0x2d1e <itoa+0x30>
    2d1c:	89 5d       	subi	r24, 0xD9	; 217
    2d1e:	81 93       	st	Z+, r24
    2d20:	86 2f       	mov	r24, r22
    2d22:	97 2f       	mov	r25, r23
    2d24:	00 97       	sbiw	r24, 0x00	; 0
    2d26:	99 f7       	brne	.-26     	; 0x2d0e <itoa+0x20>
    2d28:	16 f4       	brtc	.+4      	; 0x2d2e <itoa+0x40>
    2d2a:	5d e2       	ldi	r21, 0x2D	; 45
    2d2c:	51 93       	st	Z+, r21
    2d2e:	10 82       	st	Z, r1
    2d30:	82 2f       	mov	r24, r18
    2d32:	93 2f       	mov	r25, r19
    2d34:	0c 94 9c 16 	jmp	0x2d38 <strrev>

00002d38 <strrev>:
    2d38:	a8 2f       	mov	r26, r24
    2d3a:	b9 2f       	mov	r27, r25
    2d3c:	e8 2f       	mov	r30, r24
    2d3e:	f9 2f       	mov	r31, r25
    2d40:	01 90       	ld	r0, Z+
    2d42:	00 20       	and	r0, r0
    2d44:	e9 f7       	brne	.-6      	; 0x2d40 <strrev+0x8>
    2d46:	32 97       	sbiw	r30, 0x02	; 2
    2d48:	ae 17       	cp	r26, r30
    2d4a:	bf 07       	cpc	r27, r31
    2d4c:	30 f4       	brcc	.+12     	; 0x2d5a <strrev+0x22>
    2d4e:	7c 91       	ld	r23, X
    2d50:	60 81       	ld	r22, Z
    2d52:	70 83       	st	Z, r23
    2d54:	31 97       	sbiw	r30, 0x01	; 1
    2d56:	6d 93       	st	X+, r22
    2d58:	f7 cf       	rjmp	.-18     	; 0x2d48 <strrev+0x10>
    2d5a:	08 95       	ret

00002d5c <__mulhi3>:
    2d5c:	55 27       	eor	r21, r21
    2d5e:	00 24       	eor	r0, r0

00002d60 <__mulhi3_loop>:
    2d60:	80 ff       	sbrs	r24, 0
    2d62:	02 c0       	rjmp	.+4      	; 0x2d68 <__mulhi3_skip1>
    2d64:	06 0e       	add	r0, r22
    2d66:	57 1f       	adc	r21, r23

00002d68 <__mulhi3_skip1>:
    2d68:	66 0f       	add	r22, r22
    2d6a:	77 1f       	adc	r23, r23
    2d6c:	61 15       	cp	r22, r1
    2d6e:	71 05       	cpc	r23, r1
    2d70:	21 f0       	breq	.+8      	; 0x2d7a <__mulhi3_exit>
    2d72:	96 95       	lsr	r25
    2d74:	87 95       	ror	r24
    2d76:	00 97       	sbiw	r24, 0x00	; 0
    2d78:	99 f7       	brne	.-26     	; 0x2d60 <__mulhi3_loop>

00002d7a <__mulhi3_exit>:
    2d7a:	95 2f       	mov	r25, r21
    2d7c:	80 2d       	mov	r24, r0
    2d7e:	08 95       	ret

00002d80 <__udivmodqi4>:
    2d80:	99 1b       	sub	r25, r25
    2d82:	79 e0       	ldi	r23, 0x09	; 9
    2d84:	04 c0       	rjmp	.+8      	; 0x2d8e <__udivmodqi4_ep>

00002d86 <__udivmodqi4_loop>:
    2d86:	99 1f       	adc	r25, r25
    2d88:	96 17       	cp	r25, r22
    2d8a:	08 f0       	brcs	.+2      	; 0x2d8e <__udivmodqi4_ep>
    2d8c:	96 1b       	sub	r25, r22

00002d8e <__udivmodqi4_ep>:
    2d8e:	88 1f       	adc	r24, r24
    2d90:	7a 95       	dec	r23
    2d92:	c9 f7       	brne	.-14     	; 0x2d86 <__udivmodqi4_loop>
    2d94:	80 95       	com	r24
    2d96:	08 95       	ret

00002d98 <__divmodhi4>:
    2d98:	97 fb       	bst	r25, 7
    2d9a:	09 2e       	mov	r0, r25
    2d9c:	07 26       	eor	r0, r23
    2d9e:	0a d0       	rcall	.+20     	; 0x2db4 <__divmodhi4_neg1>
    2da0:	77 fd       	sbrc	r23, 7
    2da2:	04 d0       	rcall	.+8      	; 0x2dac <__divmodhi4_neg2>
    2da4:	0c d0       	rcall	.+24     	; 0x2dbe <__udivmodhi4>
    2da6:	06 d0       	rcall	.+12     	; 0x2db4 <__divmodhi4_neg1>
    2da8:	00 20       	and	r0, r0
    2daa:	1a f4       	brpl	.+6      	; 0x2db2 <__divmodhi4_exit>

00002dac <__divmodhi4_neg2>:
    2dac:	70 95       	com	r23
    2dae:	61 95       	neg	r22
    2db0:	7f 4f       	sbci	r23, 0xFF	; 255

00002db2 <__divmodhi4_exit>:
    2db2:	08 95       	ret

00002db4 <__divmodhi4_neg1>:
    2db4:	f6 f7       	brtc	.-4      	; 0x2db2 <__divmodhi4_exit>
    2db6:	90 95       	com	r25
    2db8:	81 95       	neg	r24
    2dba:	9f 4f       	sbci	r25, 0xFF	; 255
    2dbc:	08 95       	ret

00002dbe <__udivmodhi4>:
    2dbe:	aa 1b       	sub	r26, r26
    2dc0:	bb 1b       	sub	r27, r27
    2dc2:	51 e1       	ldi	r21, 0x11	; 17
    2dc4:	07 c0       	rjmp	.+14     	; 0x2dd4 <__udivmodhi4_ep>

00002dc6 <__udivmodhi4_loop>:
    2dc6:	aa 1f       	adc	r26, r26
    2dc8:	bb 1f       	adc	r27, r27
    2dca:	a6 17       	cp	r26, r22
    2dcc:	b7 07       	cpc	r27, r23
    2dce:	10 f0       	brcs	.+4      	; 0x2dd4 <__udivmodhi4_ep>
    2dd0:	a6 1b       	sub	r26, r22
    2dd2:	b7 0b       	sbc	r27, r23

00002dd4 <__udivmodhi4_ep>:
    2dd4:	88 1f       	adc	r24, r24
    2dd6:	99 1f       	adc	r25, r25
    2dd8:	5a 95       	dec	r21
    2dda:	a9 f7       	brne	.-22     	; 0x2dc6 <__udivmodhi4_loop>
    2ddc:	80 95       	com	r24
    2dde:	90 95       	com	r25
    2de0:	68 2f       	mov	r22, r24
    2de2:	79 2f       	mov	r23, r25
    2de4:	8a 2f       	mov	r24, r26
    2de6:	9b 2f       	mov	r25, r27
    2de8:	08 95       	ret

00002dea <_exit>:
    2dea:	ff cf       	rjmp	.-2      	; 0x2dea <_exit>
