Archive member included because of file (symbol)

../../lib/AvrX2.6f/avrx//avrx.a(avrx_tasking.o)
                              main.o (IntProlog)
../../lib/AvrX2.6f/avrx//avrx.a(avrx_semaphores.o)
                              AvrXFifo.o (AvrXWaitSemaphore)
../../lib/AvrX2.6f/avrx//avrx.a(avrx_resetsemaphore.o)
                              AvrXFifo.o (AvrXResetSemaphore)
../../lib/AvrX2.6f/avrx//avrx.a(avrx_timequeue.o)
                              main.o (AvrXTimerHandler)
../../lib/AvrX2.6f/avrx//avrx.a(avrx_eeprom.o)
                              main.o (EEPromMutex)
../../lib/AvrX2.6f/avrx//avrx.a(avrx_message.o)
                              ../../lib/AvrX2.6f/avrx//avrx.a(avrx_timequeue.o) (AvrXIntSendMessage)
/usr/lib/gcc/avr/4.1.0/avr5/libgcc.a(_copy_data.o)
                              main.o (__do_copy_data)
/usr/lib/gcc/avr/4.1.0/avr5/libgcc.a(_clear_bss.o)
                              main.o (__do_clear_bss)

Allocating common symbols
Common symbol       size              file

_TimerQueue         0x2               ../../lib/AvrX2.6f/avrx//avrx.a(avrx_timequeue.o)
_TimQLevel          0x1               ../../lib/AvrX2.6f/avrx//avrx.a(avrx_timequeue.o)
server1Pid          0x6               server1.o
AvrXKernelData      0x7               ../../lib/AvrX2.6f/avrx//avrx.a(avrx_tasking.o)
Tx0BufFifo          0x6b              AvrXBufferedSerial.o
Tx1BufFifo          0x11              uart_sw.o
server1Stk          0x55              server1.o
Rx0BufFifo          0x11              AvrXBufferedSerial.o
EEPromMutex         0x2               ../../lib/AvrX2.6f/avrx//avrx.a(avrx_eeprom.o)
Rx1BufFifo          0x11              uart_sw.o

Memory Configuration

Name             Origin             Length             Attributes
text             0x00000000         0x00020000         xr
data             0x00800060         0x0000ffa0         rw !x
eeprom           0x00810000         0x00010000         rw !x
*default*        0x00000000         0xffffffff

Linker script and memory map

LOAD /usr/lib/gcc/avr/4.1.0/../../../../avr/lib/avr5/crtm32.o
LOAD /usr/lib/gcc/avr/4.1.0/../../../../avr/lib/avr5/libm.a
LOAD main.o
LOAD AvrXBufferedSerial.o
LOAD AvrXFifo.o
LOAD uart_sw.o
LOAD server1.o
LOAD ../../lib/AvrX2.6f/avrx//avrx.a
LOAD /usr/lib/gcc/avr/4.1.0/avr5/libgcc.a
LOAD /usr/lib/gcc/avr/4.1.0/../../../../avr/lib/avr5/libc.a
LOAD /usr/lib/gcc/avr/4.1.0/avr5/libgcc.a

.hash
 *(.hash)

.dynsym
 *(.dynsym)

.dynstr
 *(.dynstr)

.gnu.version
 *(.gnu.version)

.gnu.version_d
 *(.gnu.version_d)

.gnu.version_r
 *(.gnu.version_r)

.rel.init
 *(.rel.init)

.rela.init
 *(.rela.init)

.rel.text
 *(.rel.text)
 *(.rel.text.*)
 *(.rel.gnu.linkonce.t*)

.rela.text
 *(.rela.text)
 *(.rela.text.*)
 *(.rela.gnu.linkonce.t*)

.rel.fini
 *(.rel.fini)

.rela.fini
 *(.rela.fini)

.rel.rodata
 *(.rel.rodata)
 *(.rel.rodata.*)
 *(.rel.gnu.linkonce.r*)

.rela.rodata
 *(.rela.rodata)
 *(.rela.rodata.*)
 *(.rela.gnu.linkonce.r*)

.rel.data
 *(.rel.data)
 *(.rel.data.*)
 *(.rel.gnu.linkonce.d*)

.rela.data
 *(.rela.data)
 *(.rela.data.*)
 *(.rela.gnu.linkonce.d*)

.rel.ctors
 *(.rel.ctors)

.rela.ctors
 *(.rela.ctors)

.rel.dtors
 *(.rel.dtors)

.rela.dtors
 *(.rela.dtors)

.rel.got
 *(.rel.got)

.rela.got
 *(.rela.got)

.rel.bss
 *(.rel.bss)

.rela.bss
 *(.rela.bss)

.rel.plt
 *(.rel.plt)

.rela.plt
 *(.rela.plt)

.text           0x00000000      0x902
 *(.vectors)
 .vectors       0x00000000       0x54 /usr/lib/gcc/avr/4.1.0/../../../../avr/lib/avr5/crtm32.o
                0x00000000                __vectors
                0x00000000                __vector_default
                0x00000054                __ctors_start = .
 *(.ctors)
                0x00000054                __ctors_end = .
                0x00000054                __dtors_start = .
 *(.dtors)
                0x00000054                __dtors_end = .
 *(.progmem.gcc*)
 *(.progmem*)
 .progmem.data  0x00000054        0x7 server1.o
                0x00000054                server1Tcb
                0x0000005c                . = ALIGN (0x2)
 *fill*         0x0000005b        0x1 00
 *(.init0)
 *(.init1)
 *(.init2)
 .init2         0x0000005c        0xc /usr/lib/gcc/avr/4.1.0/../../../../avr/lib/avr5/crtm32.o
 *(.init3)
 *(.init4)
 .init4         0x00000068       0x16 /usr/lib/gcc/avr/4.1.0/avr5/libgcc.a(_copy_data.o)
                0x00000068                __do_copy_data
 .init4         0x0000007e       0x10 /usr/lib/gcc/avr/4.1.0/avr5/libgcc.a(_clear_bss.o)
                0x0000007e                __do_clear_bss
 *(.init5)
 *(.init6)
 *(.init7)
 *(.init8)
 *(.init9)
 .init9         0x0000008e        0x4 /usr/lib/gcc/avr/4.1.0/../../../../avr/lib/avr5/crtm32.o
 *(.text)
 .text          0x00000092        0x4 /usr/lib/gcc/avr/4.1.0/../../../../avr/lib/avr5/crtm32.o
                0x00000092                __vector_1
                0x00000092                __vector_12
                0x00000092                __bad_interrupt
                0x00000092                __vector_3
                0x00000092                __vector_17
                0x00000092                __vector_19
                0x00000092                __vector_5
                0x00000092                __vector_4
                0x00000092                __vector_9
                0x00000092                __vector_2
                0x00000092                __vector_15
                0x00000092                __vector_10
                0x00000092                __vector_16
                0x00000092                __vector_18
                0x00000092                __vector_20
 .text          0x00000096       0x5e main.o
                0x000000e4                __vector_11
                0x00000096                main
 .text          0x000000f4       0x9a AvrXBufferedSerial.o
                0x000000f4                get_c0
                0x00000132                put_c0
                0x00000140                get_char0
                0x0000015c                InitSerial0
                0x0000011a                __vector_13
                0x0000014a                put_char0
                0x000000fe                __vector_14
 .text          0x0000018e      0x11a AvrXFifo.o
                0x000001ca                AvrXFlushFifo
                0x00000246                AvrXPutFifo
                0x0000027e                AvrXWaitPutFifo
                0x000001e8                AvrXPullFifo
                0x0000018e                AvrXPeekFifo
                0x00000224                AvrXWaitPullFifo
                0x000001a8                AvrXStatFifo
 .text          0x000002a8      0x1fe uart_sw.o
                0x00000456                InitSerial1
                0x0000036a                __vector_6
                0x000002a8                get_char1
                0x000002b2                get_c1
                0x000003f0                __vector_7
                0x000002bc                put_c1
                0x000002d2                __vector_8
                0x0000043c                put_char1
 .text          0x000004a6        0xa server1.o
                0x000004a6                server1
                0x000004b0                . = ALIGN (0x2)
 *(.text.*)
 .text.avrx.avrx_tasking
                0x000004b0      0x1d4 ../../lib/AvrX2.6f/avrx//avrx.a(avrx_tasking.o)
                0x000005d2                AvrXRunTask
                0x0000061c                AvrXResume
                0x0000054c                _Epilog
                0x000005d6                AvrXInitTask
                0x000004b0                IntProlog
                0x000005ba                AvrXSetKernelStack
                0x00000638                _QueuePid
                0x00000548                Epilog
 .text.avrx.avrx_semaphores
                0x00000684       0xe2 ../../lib/AvrX2.6f/avrx//avrx.a(avrx_semaphores.o)
                0x00000684                AvrXWaitTimer
                0x000006b2                AvrXSetObjectSemaphore
                0x000006b2                AvrXAckMessage
                0x00000684                AvrXWaitObjectSemaphore
                0x00000688                AvrXWaitSemaphore
                0x000006d0                AvrXIntSetSemaphore
                0x00000740                _RemoveObjectAt
                0x00000684                AvrXWaitMessageAck
                0x000006cc                AvrXIntSetObjectSemaphore
                0x00000734                _RemoveFirstObject
                0x00000684                AvrXWaitTask
                0x00000706                _AppendObject
                0x00000722                _RemoveObject
                0x000006b6                AvrXSetSemaphore
 .text.avrx.avrx_resetsemaphore
                0x00000766       0x22 ../../lib/AvrX2.6f/avrx//avrx.a(avrx_resetsemaphore.o)
                0x00000766                AvrXResetObjectSemaphore
                0x0000076e                AvrXIntResetSemaphore
                0x0000076e                AvrXResetSemaphore
                0x00000766                AvrXIntResetObjectSemaphore
 .text.avrx.avrx_timequeue
                0x00000788       0xe4 ../../lib/AvrX2.6f/avrx//avrx.a(avrx_timequeue.o)
                0x00000788                AvrXDelay
                0x0000078c                AvrXStartTimer
                0x00000794                CountNotZero
                0x000007e4                AvrXTimerHandler
 .text.avrx.avrx_eeprom
                0x0000086c       0x68 ../../lib/AvrX2.6f/avrx//avrx.a(avrx_eeprom.o)
                0x0000086c                AvrXReadEEProm
                0x000008b8                AvrXWriteEEProm
                0x0000088a                AvrXReadEEPromWord
 .text.avrx.avrx_message
                0x000008d4       0x2e ../../lib/AvrX2.6f/avrx//avrx.a(avrx_message.o)
                0x000008de                AvrXIntSendMessage
                0x000008e6                AvrXWaitMessage
                0x000008d4                AvrXSendMessage
                0x00000902                . = ALIGN (0x2)
 *(.fini9)
 *(.fini8)
 *(.fini7)
 *(.fini6)
 *(.fini5)
 *(.fini4)
 *(.fini3)
 *(.fini2)
 *(.fini1)
 *(.fini0)
                0x00000902                _etext = .

.data           0x00800060        0x8 load address 0x00000902
                0x00800060                PROVIDE (__data_start, .)
 *(.data)
 .data          0x00800060        0x4 AvrXBufferedSerial.o
                0x00800062                Tx0Buf
                0x00800060                Rx0Buf
 .data          0x00800064        0x4 uart_sw.o
                0x00800066                Tx1Buf
                0x00800064                Rx1Buf
 *(.gnu.linkonce.d*)
                0x00800068                . = ALIGN (0x2)
                0x00800068                _edata = .
                0x00800068                PROVIDE (__data_end, .)

.bss            0x00800068      0x10e
                0x00800068                PROVIDE (__bss_start, .)
 *(.bss)
 .bss           0x00800068        0x5 uart_sw.o
 *(COMMON)
 COMMON         0x0080006d       0x7c AvrXBufferedSerial.o
                0x0080006d                Tx0BufFifo
                0x008000d8                Rx0BufFifo
 COMMON         0x008000e9       0x22 uart_sw.o
                0x008000e9                Tx1BufFifo
                0x008000fa                Rx1BufFifo
 COMMON         0x0080010b       0x5b server1.o
                0x0080010b                server1Pid
                0x00800111                server1Stk
 *fill*         0x00800166        0x2 00
 COMMON         0x00800168        0x7 ../../lib/AvrX2.6f/avrx//avrx.a(avrx_tasking.o)
                0x00800168                AvrXKernelData
 *fill*         0x0080016f        0x1 00
 COMMON         0x00800170        0x3 ../../lib/AvrX2.6f/avrx//avrx.a(avrx_timequeue.o)
                0x00800170                _TimerQueue
                0x00800172                _TimQLevel
 *fill*         0x00800173        0x1 00
 COMMON         0x00800174        0x2 ../../lib/AvrX2.6f/avrx//avrx.a(avrx_eeprom.o)
                0x00800174                EEPromMutex
                0x00800176                PROVIDE (__bss_end, .)
                0x00000902                __data_load_start = LOADADDR (.data)
                0x0000090a                __data_load_end = (__data_load_start + SIZEOF (.data))

.noinit         0x00800176        0x0
                0x00800176                PROVIDE (__noinit_start, .)
 *(.noinit*)
                0x00800176                PROVIDE (__noinit_end, .)
                0x00800176                _end = .
                0x00800176                PROVIDE (__heap_start, .)

.eeprom         0x00810000        0x0
 *(.eeprom*)
                0x00810000                __eeprom_end = .

.stab           0x00000000     0x201c
 *(.stab)
 .stab          0x00000000      0x36c /usr/lib/gcc/avr/4.1.0/../../../../avr/lib/avr5/crtm32.o
 .stab          0x0000036c      0xbc4 ../../lib/AvrX2.6f/avrx//avrx.a(avrx_tasking.o)
                                0xbd0 (size before relaxing)
 .stab          0x00000f30      0x654 ../../lib/AvrX2.6f/avrx//avrx.a(avrx_semaphores.o)
                                0x660 (size before relaxing)
 .stab          0x00001584      0x120 ../../lib/AvrX2.6f/avrx//avrx.a(avrx_resetsemaphore.o)
                                0x12c (size before relaxing)
 .stab          0x000016a4      0x534 ../../lib/AvrX2.6f/avrx//avrx.a(avrx_timequeue.o)
                                0x540 (size before relaxing)
 .stab          0x00001bd8      0x2dc ../../lib/AvrX2.6f/avrx//avrx.a(avrx_eeprom.o)
                                0x2e8 (size before relaxing)
 .stab          0x00001eb4      0x168 ../../lib/AvrX2.6f/avrx//avrx.a(avrx_message.o)
                                0x174 (size before relaxing)

.stabstr        0x00000000      0x344
 *(.stabstr)
 .stabstr       0x00000000      0x344 /usr/lib/gcc/avr/4.1.0/../../../../avr/lib/avr5/crtm32.o

.stab.excl
 *(.stab.excl)

.stab.exclstr
 *(.stab.exclstr)

.stab.index
 *(.stab.index)

.stab.indexstr
 *(.stab.indexstr)

.comment
 *(.comment)

.debug
 *(.debug)

.line
 *(.line)

.debug_srcinfo
 *(.debug_srcinfo)

.debug_sfnames
 *(.debug_sfnames)

.debug_aranges
 *(.debug_aranges)

.debug_pubnames
 *(.debug_pubnames)

.debug_info
 *(.debug_info)
 *(.gnu.linkonce.wi.*)

.debug_abbrev
 *(.debug_abbrev)

.debug_line
 *(.debug_line)

.debug_frame
 *(.debug_frame)

.debug_str
 *(.debug_str)

.debug_loc
 *(.debug_loc)

.debug_macinfo
 *(.debug_macinfo)
OUTPUT(image.elf elf32-avr)

Cross Reference Table

Symbol                                            File
AvrXAckMessage                                    ../../lib/AvrX2.6f/avrx//avrx.a(avrx_semaphores.o)
AvrXDelay                                         ../../lib/AvrX2.6f/avrx//avrx.a(avrx_timequeue.o)
AvrXFlushFifo                                     AvrXFifo.o
                                                  uart_sw.o
                                                  AvrXBufferedSerial.o
AvrXInitTask                                      ../../lib/AvrX2.6f/avrx//avrx.a(avrx_tasking.o)
AvrXIntResetObjectSemaphore                       ../../lib/AvrX2.6f/avrx//avrx.a(avrx_resetsemaphore.o)
                                                  ../../lib/AvrX2.6f/avrx//avrx.a(avrx_timequeue.o)
AvrXIntResetSemaphore                             ../../lib/AvrX2.6f/avrx//avrx.a(avrx_resetsemaphore.o)
AvrXIntSendMessage                                ../../lib/AvrX2.6f/avrx//avrx.a(avrx_message.o)
                                                  ../../lib/AvrX2.6f/avrx//avrx.a(avrx_timequeue.o)
AvrXIntSetObjectSemaphore                         ../../lib/AvrX2.6f/avrx//avrx.a(avrx_semaphores.o)
                                                  ../../lib/AvrX2.6f/avrx//avrx.a(avrx_message.o)
                                                  ../../lib/AvrX2.6f/avrx//avrx.a(avrx_timequeue.o)
AvrXIntSetSemaphore                               ../../lib/AvrX2.6f/avrx//avrx.a(avrx_semaphores.o)
AvrXKernelData                                    ../../lib/AvrX2.6f/avrx//avrx.a(avrx_semaphores.o)
                                                  ../../lib/AvrX2.6f/avrx//avrx.a(avrx_tasking.o)
AvrXPeekFifo                                      AvrXFifo.o
AvrXPullFifo                                      AvrXFifo.o
                                                  uart_sw.o
                                                  AvrXBufferedSerial.o
AvrXPutFifo                                       AvrXFifo.o
                                                  uart_sw.o
                                                  AvrXBufferedSerial.o
AvrXReadEEProm                                    ../../lib/AvrX2.6f/avrx//avrx.a(avrx_eeprom.o)
AvrXReadEEPromWord                                ../../lib/AvrX2.6f/avrx//avrx.a(avrx_eeprom.o)
AvrXResetObjectSemaphore                          ../../lib/AvrX2.6f/avrx//avrx.a(avrx_resetsemaphore.o)
                                                  ../../lib/AvrX2.6f/avrx//avrx.a(avrx_message.o)
AvrXResetSemaphore                                ../../lib/AvrX2.6f/avrx//avrx.a(avrx_resetsemaphore.o)
                                                  AvrXFifo.o
AvrXResume                                        ../../lib/AvrX2.6f/avrx//avrx.a(avrx_tasking.o)
AvrXRunTask                                       ../../lib/AvrX2.6f/avrx//avrx.a(avrx_tasking.o)
                                                  main.o
AvrXSendMessage                                   ../../lib/AvrX2.6f/avrx//avrx.a(avrx_message.o)
AvrXSetKernelStack                                ../../lib/AvrX2.6f/avrx//avrx.a(avrx_tasking.o)
                                                  main.o
AvrXSetObjectSemaphore                            ../../lib/AvrX2.6f/avrx//avrx.a(avrx_semaphores.o)
                                                  ../../lib/AvrX2.6f/avrx//avrx.a(avrx_timequeue.o)
AvrXSetSemaphore                                  ../../lib/AvrX2.6f/avrx//avrx.a(avrx_semaphores.o)
                                                  ../../lib/AvrX2.6f/avrx//avrx.a(avrx_eeprom.o)
                                                  AvrXFifo.o
                                                  main.o
AvrXStartTimer                                    ../../lib/AvrX2.6f/avrx//avrx.a(avrx_timequeue.o)
AvrXStatFifo                                      AvrXFifo.o
AvrXTimerHandler                                  ../../lib/AvrX2.6f/avrx//avrx.a(avrx_timequeue.o)
                                                  main.o
AvrXWaitMessage                                   ../../lib/AvrX2.6f/avrx//avrx.a(avrx_message.o)
AvrXWaitMessageAck                                ../../lib/AvrX2.6f/avrx//avrx.a(avrx_semaphores.o)
AvrXWaitObjectSemaphore                           ../../lib/AvrX2.6f/avrx//avrx.a(avrx_semaphores.o)
                                                  ../../lib/AvrX2.6f/avrx//avrx.a(avrx_message.o)
AvrXWaitPullFifo                                  AvrXFifo.o
                                                  uart_sw.o
                                                  AvrXBufferedSerial.o
AvrXWaitPutFifo                                   AvrXFifo.o
                                                  uart_sw.o
                                                  AvrXBufferedSerial.o
AvrXWaitSemaphore                                 ../../lib/AvrX2.6f/avrx//avrx.a(avrx_semaphores.o)
                                                  ../../lib/AvrX2.6f/avrx//avrx.a(avrx_eeprom.o)
                                                  AvrXFifo.o
AvrXWaitTask                                      ../../lib/AvrX2.6f/avrx//avrx.a(avrx_semaphores.o)
AvrXWaitTimer                                     ../../lib/AvrX2.6f/avrx//avrx.a(avrx_semaphores.o)
                                                  ../../lib/AvrX2.6f/avrx//avrx.a(avrx_timequeue.o)
AvrXWriteEEProm                                   ../../lib/AvrX2.6f/avrx//avrx.a(avrx_eeprom.o)
CountNotZero                                      ../../lib/AvrX2.6f/avrx//avrx.a(avrx_timequeue.o)
EEPromMutex                                       ../../lib/AvrX2.6f/avrx//avrx.a(avrx_eeprom.o)
                                                  main.o
Epilog                                            ../../lib/AvrX2.6f/avrx//avrx.a(avrx_tasking.o)
                                                  uart_sw.o
                                                  AvrXBufferedSerial.o
                                                  main.o
InitSerial0                                       AvrXBufferedSerial.o
                                                  main.o
InitSerial1                                       uart_sw.o
                                                  main.o
IntProlog                                         ../../lib/AvrX2.6f/avrx//avrx.a(avrx_tasking.o)
                                                  ../../lib/AvrX2.6f/avrx//avrx.a(avrx_message.o)
                                                  ../../lib/AvrX2.6f/avrx//avrx.a(avrx_timequeue.o)
                                                  ../../lib/AvrX2.6f/avrx//avrx.a(avrx_semaphores.o)
                                                  uart_sw.o
                                                  AvrXBufferedSerial.o
                                                  main.o
Rx0Buf                                            AvrXBufferedSerial.o
Rx0BufFifo                                        AvrXBufferedSerial.o
Rx1Buf                                            uart_sw.o
Rx1BufFifo                                        uart_sw.o
Tx0Buf                                            AvrXBufferedSerial.o
Tx0BufFifo                                        AvrXBufferedSerial.o
Tx1Buf                                            uart_sw.o
Tx1BufFifo                                        uart_sw.o
_AppendObject                                     ../../lib/AvrX2.6f/avrx//avrx.a(avrx_semaphores.o)
                                                  ../../lib/AvrX2.6f/avrx//avrx.a(avrx_message.o)
_Epilog                                           ../../lib/AvrX2.6f/avrx//avrx.a(avrx_tasking.o)
                                                  ../../lib/AvrX2.6f/avrx//avrx.a(avrx_message.o)
                                                  ../../lib/AvrX2.6f/avrx//avrx.a(avrx_timequeue.o)
                                                  ../../lib/AvrX2.6f/avrx//avrx.a(avrx_semaphores.o)
_QueuePid                                         ../../lib/AvrX2.6f/avrx//avrx.a(avrx_tasking.o)
                                                  ../../lib/AvrX2.6f/avrx//avrx.a(avrx_semaphores.o)
_RemoveFirstObject                                ../../lib/AvrX2.6f/avrx//avrx.a(avrx_semaphores.o)
                                                  ../../lib/AvrX2.6f/avrx//avrx.a(avrx_message.o)
_RemoveObject                                     ../../lib/AvrX2.6f/avrx//avrx.a(avrx_semaphores.o)
_RemoveObjectAt                                   ../../lib/AvrX2.6f/avrx//avrx.a(avrx_semaphores.o)
_TimQLevel                                        ../../lib/AvrX2.6f/avrx//avrx.a(avrx_timequeue.o)
_TimerQueue                                       ../../lib/AvrX2.6f/avrx//avrx.a(avrx_timequeue.o)
__bad_interrupt                                   /usr/lib/gcc/avr/4.1.0/../../../../avr/lib/avr5/crtm32.o
__bss_end                                         /usr/lib/gcc/avr/4.1.0/avr5/libgcc.a(_clear_bss.o)
__bss_start                                       /usr/lib/gcc/avr/4.1.0/avr5/libgcc.a(_clear_bss.o)
__data_end                                        /usr/lib/gcc/avr/4.1.0/avr5/libgcc.a(_copy_data.o)
__data_load_start                                 /usr/lib/gcc/avr/4.1.0/avr5/libgcc.a(_copy_data.o)
__data_start                                      /usr/lib/gcc/avr/4.1.0/avr5/libgcc.a(_copy_data.o)
__do_clear_bss                                    /usr/lib/gcc/avr/4.1.0/avr5/libgcc.a(_clear_bss.o)
                                                  server1.o
                                                  uart_sw.o
                                                  AvrXFifo.o
                                                  AvrXBufferedSerial.o
                                                  main.o
__do_copy_data                                    /usr/lib/gcc/avr/4.1.0/avr5/libgcc.a(_copy_data.o)
                                                  server1.o
                                                  uart_sw.o
                                                  AvrXFifo.o
                                                  AvrXBufferedSerial.o
                                                  main.o
__heap_end                                        /usr/lib/gcc/avr/4.1.0/../../../../avr/lib/avr5/crtm32.o
__init                                            /usr/lib/gcc/avr/4.1.0/../../../../avr/lib/avr5/crtm32.o
__stack                                           /usr/lib/gcc/avr/4.1.0/../../../../avr/lib/avr5/crtm32.o
                                                  main.o
__vector_1                                        /usr/lib/gcc/avr/4.1.0/../../../../avr/lib/avr5/crtm32.o
__vector_10                                       /usr/lib/gcc/avr/4.1.0/../../../../avr/lib/avr5/crtm32.o
__vector_11                                       main.o
                                                  /usr/lib/gcc/avr/4.1.0/../../../../avr/lib/avr5/crtm32.o
__vector_12                                       /usr/lib/gcc/avr/4.1.0/../../../../avr/lib/avr5/crtm32.o
__vector_13                                       AvrXBufferedSerial.o
                                                  /usr/lib/gcc/avr/4.1.0/../../../../avr/lib/avr5/crtm32.o
__vector_14                                       AvrXBufferedSerial.o
                                                  /usr/lib/gcc/avr/4.1.0/../../../../avr/lib/avr5/crtm32.o
__vector_15                                       /usr/lib/gcc/avr/4.1.0/../../../../avr/lib/avr5/crtm32.o
__vector_16                                       /usr/lib/gcc/avr/4.1.0/../../../../avr/lib/avr5/crtm32.o
__vector_17                                       /usr/lib/gcc/avr/4.1.0/../../../../avr/lib/avr5/crtm32.o
__vector_18                                       /usr/lib/gcc/avr/4.1.0/../../../../avr/lib/avr5/crtm32.o
__vector_19                                       /usr/lib/gcc/avr/4.1.0/../../../../avr/lib/avr5/crtm32.o
__vector_2                                        /usr/lib/gcc/avr/4.1.0/../../../../avr/lib/avr5/crtm32.o
__vector_20                                       /usr/lib/gcc/avr/4.1.0/../../../../avr/lib/avr5/crtm32.o
__vector_3                                        /usr/lib/gcc/avr/4.1.0/../../../../avr/lib/avr5/crtm32.o
__vector_4                                        /usr/lib/gcc/avr/4.1.0/../../../../avr/lib/avr5/crtm32.o
__vector_5                                        /usr/lib/gcc/avr/4.1.0/../../../../avr/lib/avr5/crtm32.o
__vector_6                                        uart_sw.o
                                                  /usr/lib/gcc/avr/4.1.0/../../../../avr/lib/avr5/crtm32.o
__vector_7                                        uart_sw.o
                                                  /usr/lib/gcc/avr/4.1.0/../../../../avr/lib/avr5/crtm32.o
__vector_8                                        uart_sw.o
                                                  /usr/lib/gcc/avr/4.1.0/../../../../avr/lib/avr5/crtm32.o
__vector_9                                        /usr/lib/gcc/avr/4.1.0/../../../../avr/lib/avr5/crtm32.o
__vector_default                                  /usr/lib/gcc/avr/4.1.0/../../../../avr/lib/avr5/crtm32.o
__vectors                                         /usr/lib/gcc/avr/4.1.0/../../../../avr/lib/avr5/crtm32.o
get_c0                                            AvrXBufferedSerial.o
get_c1                                            uart_sw.o
get_char0                                         AvrXBufferedSerial.o
get_char1                                         uart_sw.o
                                                  server1.o
main                                              main.o
                                                  /usr/lib/gcc/avr/4.1.0/../../../../avr/lib/avr5/crtm32.o
put_c0                                            AvrXBufferedSerial.o
                                                  main.o
put_c1                                            uart_sw.o
                                                  server1.o
                                                  main.o
put_char0                                         AvrXBufferedSerial.o
put_char1                                         uart_sw.o
server1                                           server1.o
server1Pid                                        server1.o
server1Stk                                        server1.o
server1Tcb                                        server1.o
                                                  main.o
