
image.elf:     file format elf32-avr

Sections:
Idx Name          Size      VMA       LMA       File off  Algn
  0 .text         00001db8  00000000  00000000  00000074  2**1
                  CONTENTS, ALLOC, LOAD, READONLY, CODE
  1 .data         00000004  00800060  00001db8  00001e2c  2**0
                  CONTENTS, ALLOC, LOAD, DATA
  2 .bss          00000058  00800064  00001dbc  00001e30  2**0
                  ALLOC
  3 .stab         00000a68  00000000  00000000  00001e30  2**2
                  CONTENTS, READONLY, DEBUGGING
  4 .stabstr      000000e6  00000000  00000000  00002898  2**0
                  CONTENTS, READONLY, DEBUGGING
Disassembly of section .text:

00000000 <__vectors>:
       0:	0c 94 b9 01 	jmp	0x372	; 0x372 <__ctors_end>
       4:	0c 94 75 0d 	jmp	0x1aea	; 0x1aea <__vector_1>
       8:	0c 94 5f 02 	jmp	0x4be	; 0x4be <__vector_2>
       c:	0c 94 d6 01 	jmp	0x3ac	; 0x3ac <__bad_interrupt>
      10:	0c 94 d6 01 	jmp	0x3ac	; 0x3ac <__bad_interrupt>
      14:	0c 94 3d 02 	jmp	0x47a	; 0x47a <__vector_5>
      18:	0c 94 d6 01 	jmp	0x3ac	; 0x3ac <__bad_interrupt>
      1c:	0c 94 d6 01 	jmp	0x3ac	; 0x3ac <__bad_interrupt>
      20:	0c 94 d6 01 	jmp	0x3ac	; 0x3ac <__bad_interrupt>
      24:	0c 94 d6 01 	jmp	0x3ac	; 0x3ac <__bad_interrupt>
      28:	0c 94 13 02 	jmp	0x426	; 0x426 <__vector_10>
      2c:	0c 94 d6 01 	jmp	0x3ac	; 0x3ac <__bad_interrupt>
      30:	0c 94 d6 01 	jmp	0x3ac	; 0x3ac <__bad_interrupt>
      34:	0c 94 dd 03 	jmp	0x7ba	; 0x7ba <__vector_13>
      38:	0c 94 9a 03 	jmp	0x734	; 0x734 <__vector_14>
      3c:	0c 94 d6 01 	jmp	0x3ac	; 0x3ac <__bad_interrupt>
      40:	0c 94 d6 01 	jmp	0x3ac	; 0x3ac <__bad_interrupt>
      44:	0c 94 d6 01 	jmp	0x3ac	; 0x3ac <__bad_interrupt>
      48:	0c 94 d6 01 	jmp	0x3ac	; 0x3ac <__bad_interrupt>
      4c:	0c 94 d6 01 	jmp	0x3ac	; 0x3ac <__bad_interrupt>
      50:	0c 94 d6 01 	jmp	0x3ac	; 0x3ac <__bad_interrupt>

00000054 <arial8>:
      54:	0b 36 0a 08 20 60 03 01 03 05 04 07 05 03 02 02     .6.. `..........
      64:	05 03 01 03 01 03 04 02 04 04 04 04 04 04 04 04     ................
      74:	01 01 04 04 04 04 08 05 04 05 04 04 04 06 04 01     ................
      84:	03 04 03 05 04 06 04 06 04 05 05 04 05 05 05 05     ................
      94:	05 02 03 02 03 04 01 04 03 04 04 04 02 04 03 01     ................
      a4:	02 03 02 05 03 04 03 04 02 04 03 03 04 05 04 04     ................
      b4:	04 02 01 02 04 04 00 00 00 bf 03 00 03 24 7e 24     .............$~$
      c4:	7e 24 39 44 44 39 82 45 32 0c 12 29 10 30 4a 55     ~$9DD9.E2..).0JU
      d4:	2a 50 02 05 02 7e 81 81 7e 22 14 3e 14 22 08 3e     *P...~..~".>.".>
      e4:	08 e0 08 08 08 20 70 0c 07 3e 41 41 3e 02 7f 62     ..... p..>AA>..b
      f4:	51 49 46 22 49 49 36 18 14 7f 10 27 49 49 31 3e     QIF"II6....'II1>
     104:	49 49 30 01 71 0d 03 36 49 49 36 06 49 49 3e 24     II0.q..6II6.II>$
     114:	64 08 14 22 22 14 14 14 14 22 22 14 08 02 01 59     d..""....""....Y
     124:	06 3c 42 be a5 a5 bd 22 1c 78 16 11 16 78 7f 49     .<B....".x...x.I
     134:	49 36 3e 41 41 41 22 7f 41 41 3e 7f 49 49 41 7f     I6>AAA".AA>.IIA.
     144:	09 01 01 3c 42 41 49 49 3a 7f 08 08 7f 7f 30 40     ...<BAII:.....0@
     154:	7f 7f 0c 12 61 7f 40 40 7f 02 1c 02 7f 7f 06 18     ....a.@@........
     164:	7f 1c 22 41 41 22 1c 7f 09 09 06 1c 22 49 51 22     .."AA"......"IQ"
     174:	5c 7f 09 09 76 32 45 49 49 32 01 01 7f 01 01 7f     \...v2EII2......
     184:	40 40 7f 03 1c 60 1c 03 7f 60 38 60 7f 61 12 0c     @@...`...`8`.a..
     194:	12 61 01 06 78 06 01 61 51 4d 43 41 ff 81 02 05     .a..x..aQMCA....
     1a4:	02 81 ff 06 01 06 80 80 80 80 01 34 54 54 7c 7f     ...........4TT|.
     1b4:	44 7c 38 44 44 44 38 44 44 7f 38 54 54 4c 7e 09     D|8DDD8DD.8TTL~.
     1c4:	1c 52 52 7e 7f 04 7c 79 40 3c 7e 18 24 3f 40 7c     .RR~..|y@<~.$?@|
     1d4:	04 7c 04 7c 7c 04 7c 38 44 44 38 7c 24 3c 18 24     .|.||.|8DD8|$<.$
     1e4:	24 7c 7c 04 08 54 54 20 04 7e 04 7c 40 7c 1c 60     $||..TT .~.|@|.`
     1f4:	60 1c 1c 30 08 30 1c 24 18 18 24 0c 50 50 7c 64     `..0.0.$..$.PP|d
     204:	54 4c 44 08 f7 ff 81 7e 08 08 08 08 3e 22 22 3e     TLD....~....>"">

00000214 <__c.1768>:
     214:	48 6d 69 72 72 6f 72 20 72 65 66 6c 65 63 74 69     Hmirror reflecti
     224:	6f 6e 73 20 69 3a 20 00                             ons i: .

0000022c <__c.1766>:
     22c:	48 6d 6f 74 6f 72 20 73 70 65 65 64 20 69 3a 20     Hmotor speed i: 
	...

0000023d <__c.1764>:
     23d:	48 6d 6f 74 6f 72 20 73 70 65 65 64 20 6f 3a 20     Hmotor speed o: 
	...

0000024e <__c.1762>:
     24e:	2d 20 4c 61 73 65 72 70 72 6f 6a 65 63 74 6f 72     - Laserprojector
     25e:	20 32 30 31 30 20 62 79 20 73 69 72 6f 20 2d 00      2010 by siro -.

0000026e <__c.1544>:
     26e:	0d 0a 00                                            ...

00000271 <CodingUnshiftedEN>:
	...
     27d:	00 00 5e 00 00 00 00 00 00 71 31 00 00 00 79 73     ..^......q1...ys
     28d:	61 77 32 00 00 63 78 64 65 34 33 00 00 20 76 66     aw2..cxde43.. vf
     29d:	74 72 35 00 00 6e 62 68 67 7a 36 00 00 2c 6d 6a     tr5..nbhgz6..,mj
     2ad:	75 37 38 00 00 2c 6b 69 6f 30 39 00 00 2e 3f 6c     u78..,kio09...?l
     2bd:	3a 70 2d 00 00 00 27 00 5b 2b 00 00 00 00 0d 5d     :p-...'.[+.....]
     2cd:	00 7c 00 00 00 3c 00 00 00 00 08 00 00 31 00 34     .|...<.......1.4
     2dd:	37 00 00 00 30 2c 32 35 36 38 1b 00 00 2b 33 2d     7...0,2568...+3-
     2ed:	2a 39 00 00                                         *9..

000002f1 <CodingShiftedEN>:
	...
     2fd:	00 09 00 00 00 00 00 00 04 51 21 00 00 00 59 53     .........Q!...YS
     30d:	41 57 40 00 00 43 58 44 45 24 23 00 00 20 56 46     AW@..CXDE$#.. VF
     31d:	54 52 25 00 00 4e 42 48 47 5a 5e 00 00 2c 4d 4a     TR%..NBHGZ^..,MJ
     32d:	55 26 2a 00 00 3c 4b 49 4f 29 28 00 00 3e 2f 4c     U&*..<KIO)(..>/L
     33d:	3b 50 5f 00 00 00 22 00 7b 3d 00 00 00 00 0d 7d     ;P_...".{=.....}
     34d:	00 5c 00 00 00 3e 00 00 00 00 08 00 00 31 00 34     .\...>.......1.4
     35d:	37 00 00 00 30 3b 32 35 36 38 1b 00 00 2b 33 2d     7...0;2568...+3-
     36d:	2a 39 00 00 00                                      *9...

00000372 <__ctors_end>:
     372:	11 24       	eor	r1, r1
     374:	1f be       	out	0x3f, r1	; 63
     376:	cf e5       	ldi	r28, 0x5F	; 95
     378:	d8 e0       	ldi	r29, 0x08	; 8
     37a:	de bf       	out	0x3e, r29	; 62
     37c:	cd bf       	out	0x3d, r28	; 61

0000037e <__do_copy_data>:
     37e:	10 e0       	ldi	r17, 0x00	; 0
     380:	a0 e6       	ldi	r26, 0x60	; 96
     382:	b0 e0       	ldi	r27, 0x00	; 0
     384:	e8 eb       	ldi	r30, 0xB8	; 184
     386:	fd e1       	ldi	r31, 0x1D	; 29
     388:	02 c0       	rjmp	.+4      	; 0x38e <.do_copy_data_start>

0000038a <.do_copy_data_loop>:
     38a:	05 90       	lpm	r0, Z+
     38c:	0d 92       	st	X+, r0

0000038e <.do_copy_data_start>:
     38e:	a4 36       	cpi	r26, 0x64	; 100
     390:	b1 07       	cpc	r27, r17
     392:	d9 f7       	brne	.-10     	; 0x38a <.do_copy_data_loop>

00000394 <__do_clear_bss>:
     394:	10 e0       	ldi	r17, 0x00	; 0
     396:	a4 e6       	ldi	r26, 0x64	; 100
     398:	b0 e0       	ldi	r27, 0x00	; 0
     39a:	01 c0       	rjmp	.+2      	; 0x39e <.do_clear_bss_start>

0000039c <.do_clear_bss_loop>:
     39c:	1d 92       	st	X+, r1

0000039e <.do_clear_bss_start>:
     39e:	ac 3b       	cpi	r26, 0xBC	; 188
     3a0:	b1 07       	cpc	r27, r17
     3a2:	e1 f7       	brne	.-8      	; 0x39c <.do_clear_bss_loop>
     3a4:	0e 94 76 02 	call	0x4ec	; 0x4ec <main>
     3a8:	0c 94 da 0e 	jmp	0x1db4	; 0x1db4 <_exit>

000003ac <__bad_interrupt>:
     3ac:	0c 94 00 00 	jmp	0	; 0x0 <__heap_end>

000003b0 <init>:
     3b0:	85 b7       	in	r24, 0x35	; 53
     3b2:	88 60       	ori	r24, 0x08	; 8
     3b4:	85 bf       	out	0x35, r24	; 53
     3b6:	8b b7       	in	r24, 0x3b	; 59
     3b8:	80 68       	ori	r24, 0x80	; 128
     3ba:	8b bf       	out	0x3b, r24	; 59
     3bc:	8f ef       	ldi	r24, 0xFF	; 255
     3be:	8a bb       	out	0x1a, r24	; 26
     3c0:	1b ba       	out	0x1b, r1	; 27
     3c2:	8e e0       	ldi	r24, 0x0E	; 14
     3c4:	87 bb       	out	0x17, r24	; 23
     3c6:	18 ba       	out	0x18, r1	; 24
     3c8:	8c ef       	ldi	r24, 0xFC	; 252
     3ca:	84 bb       	out	0x14, r24	; 20
     3cc:	80 ec       	ldi	r24, 0xC0	; 192
     3ce:	85 bb       	out	0x15, r24	; 21
     3d0:	80 ea       	ldi	r24, 0xA0	; 160
     3d2:	81 bb       	out	0x11, r24	; 17
     3d4:	88 e2       	ldi	r24, 0x28	; 40
     3d6:	82 bb       	out	0x12, r24	; 18
     3d8:	80 e8       	ldi	r24, 0x80	; 128
     3da:	88 b9       	out	0x08, r24	; 8
     3dc:	1c be       	out	0x3c, r1	; 60
     3de:	81 e0       	ldi	r24, 0x01	; 1
     3e0:	83 bf       	out	0x33, r24	; 51
     3e2:	89 b7       	in	r24, 0x39	; 57
     3e4:	82 60       	ori	r24, 0x02	; 2
     3e6:	89 bf       	out	0x39, r24	; 57
     3e8:	88 e0       	ldi	r24, 0x08	; 8
     3ea:	82 bd       	out	0x22, r24	; 34
     3ec:	85 e0       	ldi	r24, 0x05	; 5
     3ee:	85 bd       	out	0x25, r24	; 37
     3f0:	14 bc       	out	0x24, r1	; 36
     3f2:	01 c0       	rjmp	.+2      	; 0x3f6 <init+0x46>
     3f4:	00 00       	nop
     3f6:	82 b5       	in	r24, 0x22	; 34
     3f8:	90 e0       	ldi	r25, 0x00	; 0
     3fa:	87 70       	andi	r24, 0x07	; 7
     3fc:	90 70       	andi	r25, 0x00	; 0
     3fe:	89 2b       	or	r24, r25
     400:	c9 f7       	brne	.-14     	; 0x3f4 <init+0x44>
     402:	89 b7       	in	r24, 0x39	; 57
     404:	80 64       	ori	r24, 0x40	; 64
     406:	89 bf       	out	0x39, r24	; 57
     408:	82 b3       	in	r24, 0x12	; 18
     40a:	8b 7e       	andi	r24, 0xEB	; 235
     40c:	82 bb       	out	0x12, r24	; 18
     40e:	1b ba       	out	0x1b, r1	; 27
     410:	88 b3       	in	r24, 0x18	; 24
     412:	89 7f       	andi	r24, 0xF9	; 249
     414:	88 bb       	out	0x18, r24	; 24
     416:	85 b3       	in	r24, 0x15	; 21
     418:	87 7c       	andi	r24, 0xC7	; 199
     41a:	85 bb       	out	0x15, r24	; 21
     41c:	10 92 64 00 	sts	0x0064, r1
     420:	10 92 66 00 	sts	0x0066, r1
     424:	08 95       	ret

00000426 <__vector_10>:
     426:	1f 92       	push	r1
     428:	0f 92       	push	r0
     42a:	0f b6       	in	r0, 0x3f	; 63
     42c:	0f 92       	push	r0
     42e:	11 24       	eor	r1, r1
     430:	8f 93       	push	r24
     432:	9f 93       	push	r25
     434:	80 91 6e 00 	lds	r24, 0x006E
     438:	90 91 6f 00 	lds	r25, 0x006F
     43c:	01 97       	sbiw	r24, 0x01	; 1
     43e:	90 93 6f 00 	sts	0x006F, r25
     442:	80 93 6e 00 	sts	0x006E, r24
     446:	80 91 6e 00 	lds	r24, 0x006E
     44a:	90 91 6f 00 	lds	r25, 0x006F
     44e:	89 2b       	or	r24, r25
     450:	69 f4       	brne	.+26     	; 0x46c <__vector_10+0x46>
     452:	80 91 6c 00 	lds	r24, 0x006C
     456:	90 91 6d 00 	lds	r25, 0x006D
     45a:	90 93 6f 00 	sts	0x006F, r25
     45e:	80 93 6e 00 	sts	0x006E, r24
     462:	aa 9b       	sbis	0x15, 2	; 21
     464:	02 c0       	rjmp	.+4      	; 0x46a <__vector_10+0x44>
     466:	aa 98       	cbi	0x15, 2	; 21
     468:	01 c0       	rjmp	.+2      	; 0x46c <__vector_10+0x46>
     46a:	aa 9a       	sbi	0x15, 2	; 21
     46c:	9f 91       	pop	r25
     46e:	8f 91       	pop	r24
     470:	0f 90       	pop	r0
     472:	0f be       	out	0x3f, r0	; 63
     474:	0f 90       	pop	r0
     476:	1f 90       	pop	r1
     478:	18 95       	reti

0000047a <__vector_5>:
     47a:	1f 92       	push	r1
     47c:	0f 92       	push	r0
     47e:	0f b6       	in	r0, 0x3f	; 63
     480:	0f 92       	push	r0
     482:	11 24       	eor	r1, r1
     484:	8f 93       	push	r24
     486:	9f 93       	push	r25
     488:	81 e0       	ldi	r24, 0x01	; 1
     48a:	80 93 6b 00 	sts	0x006B, r24
     48e:	80 91 67 00 	lds	r24, 0x0067
     492:	90 91 68 00 	lds	r25, 0x0068
     496:	90 93 6a 00 	sts	0x006A, r25
     49a:	80 93 69 00 	sts	0x0069, r24
     49e:	10 92 68 00 	sts	0x0068, r1
     4a2:	10 92 67 00 	sts	0x0067, r1
     4a6:	97 9b       	sbis	0x12, 7	; 18
     4a8:	02 c0       	rjmp	.+4      	; 0x4ae <__vector_5+0x34>
     4aa:	97 98       	cbi	0x12, 7	; 18
     4ac:	01 c0       	rjmp	.+2      	; 0x4b0 <__vector_5+0x36>
     4ae:	97 9a       	sbi	0x12, 7	; 18
     4b0:	9f 91       	pop	r25
     4b2:	8f 91       	pop	r24
     4b4:	0f 90       	pop	r0
     4b6:	0f be       	out	0x3f, r0	; 63
     4b8:	0f 90       	pop	r0
     4ba:	1f 90       	pop	r1
     4bc:	18 95       	reti

000004be <__vector_2>:
     4be:	1f 92       	push	r1
     4c0:	0f 92       	push	r0
     4c2:	0f b6       	in	r0, 0x3f	; 63
     4c4:	0f 92       	push	r0
     4c6:	11 24       	eor	r1, r1
     4c8:	8f 93       	push	r24
     4ca:	9f 93       	push	r25
     4cc:	80 91 67 00 	lds	r24, 0x0067
     4d0:	90 91 68 00 	lds	r25, 0x0068
     4d4:	01 96       	adiw	r24, 0x01	; 1
     4d6:	90 93 68 00 	sts	0x0068, r25
     4da:	80 93 67 00 	sts	0x0067, r24
     4de:	9f 91       	pop	r25
     4e0:	8f 91       	pop	r24
     4e2:	0f 90       	pop	r0
     4e4:	0f be       	out	0x3f, r0	; 63
     4e6:	0f 90       	pop	r0
     4e8:	1f 90       	pop	r1
     4ea:	18 95       	reti

000004ec <main>:
     4ec:	ef 92       	push	r14
     4ee:	ff 92       	push	r15
     4f0:	0f 93       	push	r16
     4f2:	1f 93       	push	r17
     4f4:	df 93       	push	r29
     4f6:	cf 93       	push	r28
     4f8:	00 d0       	rcall	.+0      	; 0x4fa <main+0xe>
     4fa:	cd b7       	in	r28, 0x3d	; 61
     4fc:	de b7       	in	r29, 0x3e	; 62
     4fe:	0e 94 d8 01 	call	0x3b0	; 0x3b0 <init>
     502:	84 e5       	ldi	r24, 0x54	; 84
     504:	90 e0       	ldi	r25, 0x00	; 0
     506:	67 e5       	ldi	r22, 0x57	; 87
     508:	75 e0       	ldi	r23, 0x05	; 5
     50a:	4f ef       	ldi	r20, 0xFF	; 255
     50c:	0e 94 5a 05 	call	0xab4	; 0xab4 <ks0108SelectFont>
     510:	80 e0       	ldi	r24, 0x00	; 0
     512:	0e 94 be 06 	call	0xd7c	; 0xd7c <ks0108SetTransparency>
     516:	80 91 60 00 	lds	r24, 0x0060
     51a:	90 91 61 00 	lds	r25, 0x0061
     51e:	89 2b       	or	r24, r25
     520:	81 f0       	breq	.+32     	; 0x542 <main+0x56>
     522:	20 91 60 00 	lds	r18, 0x0060
     526:	30 91 61 00 	lds	r19, 0x0061
     52a:	40 e0       	ldi	r20, 0x00	; 0
     52c:	50 e0       	ldi	r21, 0x00	; 0
     52e:	64 e2       	ldi	r22, 0x24	; 36
     530:	74 ef       	ldi	r23, 0xF4	; 244
     532:	80 e0       	ldi	r24, 0x00	; 0
     534:	90 e0       	ldi	r25, 0x00	; 0
     536:	0e 94 9d 0e 	call	0x1d3a	; 0x1d3a <__divmodsi4>
     53a:	30 93 6d 00 	sts	0x006D, r19
     53e:	20 93 6c 00 	sts	0x006C, r18
     542:	78 94       	sei
     544:	11 e0       	ldi	r17, 0x01	; 1
     546:	7e 01       	movw	r14, r28
     548:	08 94       	sec
     54a:	e1 1c       	adc	r14, r1
     54c:	f1 1c       	adc	r15, r1
     54e:	86 99       	sbic	0x10, 6	; 16
     550:	27 c0       	rjmp	.+78     	; 0x5a0 <main+0xb4>
     552:	95 9b       	sbis	0x12, 5	; 18
     554:	0d c0       	rjmp	.+26     	; 0x570 <main+0x84>
     556:	95 98       	cbi	0x12, 5	; 18
     558:	84 ef       	ldi	r24, 0xF4	; 244
     55a:	91 e0       	ldi	r25, 0x01	; 1
     55c:	0e 94 4b 05 	call	0xa96	; 0xa96 <wait>
     560:	80 e0       	ldi	r24, 0x00	; 0
     562:	0e 94 85 0a 	call	0x150a	; 0x150a <ks0108Init>
     566:	0e 94 e0 0c 	call	0x19c0	; 0x19c0 <init_kb>
     56a:	10 93 64 00 	sts	0x0064, r17
     56e:	16 c0       	rjmp	.+44     	; 0x59c <main+0xb0>
     570:	82 b3       	in	r24, 0x12	; 18
     572:	8b 7e       	andi	r24, 0xEB	; 235
     574:	82 bb       	out	0x12, r24	; 18
     576:	10 92 64 00 	sts	0x0064, r1
     57a:	1b ba       	out	0x1b, r1	; 27
     57c:	88 b3       	in	r24, 0x18	; 24
     57e:	89 7f       	andi	r24, 0xF9	; 249
     580:	88 bb       	out	0x18, r24	; 24
     582:	85 b3       	in	r24, 0x15	; 21
     584:	87 7c       	andi	r24, 0xC7	; 199
     586:	85 bb       	out	0x15, r24	; 21
     588:	81 e0       	ldi	r24, 0x01	; 1
     58a:	90 e0       	ldi	r25, 0x00	; 0
     58c:	0e 94 4b 05 	call	0xa96	; 0xa96 <wait>
     590:	95 9a       	sbi	0x12, 5	; 18
     592:	04 c0       	rjmp	.+8      	; 0x59c <main+0xb0>
     594:	8a e0       	ldi	r24, 0x0A	; 10
     596:	90 e0       	ldi	r25, 0x00	; 0
     598:	0e 94 4b 05 	call	0xa96	; 0xa96 <wait>
     59c:	86 9b       	sbis	0x10, 6	; 16
     59e:	fa cf       	rjmp	.-12     	; 0x594 <main+0xa8>
     5a0:	80 91 64 00 	lds	r24, 0x0064
     5a4:	81 30       	cpi	r24, 0x01	; 1
     5a6:	99 f6       	brne	.-90     	; 0x54e <main+0x62>
     5a8:	0e 94 10 0e 	call	0x1c20	; 0x1c20 <getcharx>
     5ac:	82 37       	cpi	r24, 0x72	; 114
     5ae:	09 f4       	brne	.+2      	; 0x5b2 <main+0xc6>
     5b0:	52 c0       	rjmp	.+164    	; 0x656 <main+0x16a>
     5b2:	83 37       	cpi	r24, 0x73	; 115
     5b4:	38 f4       	brcc	.+14     	; 0x5c4 <main+0xd8>
     5b6:	84 36       	cpi	r24, 0x64	; 100
     5b8:	09 f4       	brne	.+2      	; 0x5bc <main+0xd0>
     5ba:	3d c0       	rjmp	.+122    	; 0x636 <main+0x14a>
     5bc:	85 36       	cpi	r24, 0x65	; 101
     5be:	09 f0       	breq	.+2      	; 0x5c2 <main+0xd6>
     5c0:	50 c0       	rjmp	.+160    	; 0x662 <main+0x176>
     5c2:	1f c0       	rjmp	.+62     	; 0x602 <main+0x116>
     5c4:	83 37       	cpi	r24, 0x73	; 115
     5c6:	89 f0       	breq	.+34     	; 0x5ea <main+0xfe>
     5c8:	87 37       	cpi	r24, 0x77	; 119
     5ca:	09 f0       	breq	.+2      	; 0x5ce <main+0xe2>
     5cc:	4a c0       	rjmp	.+148    	; 0x662 <main+0x176>
     5ce:	80 91 60 00 	lds	r24, 0x0060
     5d2:	90 91 61 00 	lds	r25, 0x0061
     5d6:	80 5c       	subi	r24, 0xC0	; 192
     5d8:	9d 45       	sbci	r25, 0x5D	; 93
     5da:	08 f0       	brcs	.+2      	; 0x5de <main+0xf2>
     5dc:	42 c0       	rjmp	.+132    	; 0x662 <main+0x176>
     5de:	80 91 60 00 	lds	r24, 0x0060
     5e2:	90 91 61 00 	lds	r25, 0x0061
     5e6:	01 96       	adiw	r24, 0x01	; 1
     5e8:	38 c0       	rjmp	.+112    	; 0x65a <main+0x16e>
     5ea:	80 91 60 00 	lds	r24, 0x0060
     5ee:	90 91 61 00 	lds	r25, 0x0061
     5f2:	89 2b       	or	r24, r25
     5f4:	b1 f1       	breq	.+108    	; 0x662 <main+0x176>
     5f6:	80 91 60 00 	lds	r24, 0x0060
     5fa:	90 91 61 00 	lds	r25, 0x0061
     5fe:	01 97       	sbiw	r24, 0x01	; 1
     600:	2c c0       	rjmp	.+88     	; 0x65a <main+0x16e>
     602:	80 91 60 00 	lds	r24, 0x0060
     606:	90 91 61 00 	lds	r25, 0x0061
     60a:	80 5c       	subi	r24, 0xC0	; 192
     60c:	9d 45       	sbci	r25, 0x5D	; 93
     60e:	48 f5       	brcc	.+82     	; 0x662 <main+0x176>
     610:	80 91 60 00 	lds	r24, 0x0060
     614:	90 91 61 00 	lds	r25, 0x0061
     618:	9c 01       	movw	r18, r24
     61a:	53 e0       	ldi	r21, 0x03	; 3
     61c:	22 0f       	add	r18, r18
     61e:	33 1f       	adc	r19, r19
     620:	5a 95       	dec	r21
     622:	e1 f7       	brne	.-8      	; 0x61c <main+0x130>
     624:	88 0f       	add	r24, r24
     626:	99 1f       	adc	r25, r25
     628:	28 0f       	add	r18, r24
     62a:	39 1f       	adc	r19, r25
     62c:	30 93 61 00 	sts	0x0061, r19
     630:	20 93 60 00 	sts	0x0060, r18
     634:	16 c0       	rjmp	.+44     	; 0x662 <main+0x176>
     636:	80 91 60 00 	lds	r24, 0x0060
     63a:	90 91 61 00 	lds	r25, 0x0061
     63e:	0b 97       	sbiw	r24, 0x0b	; 11
     640:	80 f0       	brcs	.+32     	; 0x662 <main+0x176>
     642:	80 91 60 00 	lds	r24, 0x0060
     646:	90 91 61 00 	lds	r25, 0x0061
     64a:	6a e0       	ldi	r22, 0x0A	; 10
     64c:	70 e0       	ldi	r23, 0x00	; 0
     64e:	0e 94 76 0e 	call	0x1cec	; 0x1cec <__udivmodhi4>
     652:	cb 01       	movw	r24, r22
     654:	02 c0       	rjmp	.+4      	; 0x65a <main+0x16e>
     656:	81 e0       	ldi	r24, 0x01	; 1
     658:	90 e0       	ldi	r25, 0x00	; 0
     65a:	90 93 61 00 	sts	0x0061, r25
     65e:	80 93 60 00 	sts	0x0060, r24
     662:	80 91 60 00 	lds	r24, 0x0060
     666:	90 91 61 00 	lds	r25, 0x0061
     66a:	89 2b       	or	r24, r25
     66c:	91 f0       	breq	.+36     	; 0x692 <main+0x1a6>
     66e:	20 91 60 00 	lds	r18, 0x0060
     672:	30 91 61 00 	lds	r19, 0x0061
     676:	22 0f       	add	r18, r18
     678:	33 1f       	adc	r19, r19
     67a:	40 e0       	ldi	r20, 0x00	; 0
     67c:	50 e0       	ldi	r21, 0x00	; 0
     67e:	64 e2       	ldi	r22, 0x24	; 36
     680:	74 ef       	ldi	r23, 0xF4	; 244
     682:	80 e0       	ldi	r24, 0x00	; 0
     684:	90 e0       	ldi	r25, 0x00	; 0
     686:	0e 94 9d 0e 	call	0x1d3a	; 0x1d3a <__divmodsi4>
     68a:	30 93 6d 00 	sts	0x006D, r19
     68e:	20 93 6c 00 	sts	0x006C, r18
     692:	80 91 6b 00 	lds	r24, 0x006B
     696:	81 30       	cpi	r24, 0x01	; 1
     698:	09 f0       	breq	.+2      	; 0x69c <main+0x1b0>
     69a:	59 cf       	rjmp	.-334    	; 0x54e <main+0x62>
     69c:	10 92 6b 00 	sts	0x006B, r1
     6a0:	80 e0       	ldi	r24, 0x00	; 0
     6a2:	60 e0       	ldi	r22, 0x00	; 0
     6a4:	4f e7       	ldi	r20, 0x7F	; 127
     6a6:	2f e3       	ldi	r18, 0x3F	; 63
     6a8:	00 e0       	ldi	r16, 0x00	; 0
     6aa:	0e 94 f7 09 	call	0x13ee	; 0x13ee <ks0108FillRect>
     6ae:	80 e0       	ldi	r24, 0x00	; 0
     6b0:	60 e0       	ldi	r22, 0x00	; 0
     6b2:	0e 94 43 06 	call	0xc86	; 0xc86 <ks0108GotoXY>
     6b6:	8e e4       	ldi	r24, 0x4E	; 78
     6b8:	92 e0       	ldi	r25, 0x02	; 2
     6ba:	0e 94 e2 08 	call	0x11c4	; 0x11c4 <ks0108Puts_P>
     6be:	80 e0       	ldi	r24, 0x00	; 0
     6c0:	6b e0       	ldi	r22, 0x0B	; 11
     6c2:	0e 94 43 06 	call	0xc86	; 0xc86 <ks0108GotoXY>
     6c6:	8d e3       	ldi	r24, 0x3D	; 61
     6c8:	92 e0       	ldi	r25, 0x02	; 2
     6ca:	0e 94 e2 08 	call	0x11c4	; 0x11c4 <ks0108Puts_P>
     6ce:	80 91 60 00 	lds	r24, 0x0060
     6d2:	90 91 61 00 	lds	r25, 0x0061
     6d6:	b7 01       	movw	r22, r14
     6d8:	4a e0       	ldi	r20, 0x0A	; 10
     6da:	50 e0       	ldi	r21, 0x00	; 0
     6dc:	0e 94 50 0e 	call	0x1ca0	; 0x1ca0 <utoa>
     6e0:	c7 01       	movw	r24, r14
     6e2:	0e 94 0a 09 	call	0x1214	; 0x1214 <ks0108Puts>
     6e6:	80 e0       	ldi	r24, 0x00	; 0
     6e8:	66 e1       	ldi	r22, 0x16	; 22
     6ea:	0e 94 43 06 	call	0xc86	; 0xc86 <ks0108GotoXY>
     6ee:	8c e2       	ldi	r24, 0x2C	; 44
     6f0:	92 e0       	ldi	r25, 0x02	; 2
     6f2:	0e 94 e2 08 	call	0x11c4	; 0x11c4 <ks0108Puts_P>
     6f6:	81 e0       	ldi	r24, 0x01	; 1
     6f8:	90 e0       	ldi	r25, 0x00	; 0
     6fa:	b7 01       	movw	r22, r14
     6fc:	4a e0       	ldi	r20, 0x0A	; 10
     6fe:	50 e0       	ldi	r21, 0x00	; 0
     700:	0e 94 50 0e 	call	0x1ca0	; 0x1ca0 <utoa>
     704:	c7 01       	movw	r24, r14
     706:	0e 94 0a 09 	call	0x1214	; 0x1214 <ks0108Puts>
     70a:	80 e0       	ldi	r24, 0x00	; 0
     70c:	61 e2       	ldi	r22, 0x21	; 33
     70e:	0e 94 43 06 	call	0xc86	; 0xc86 <ks0108GotoXY>
     712:	84 e1       	ldi	r24, 0x14	; 20
     714:	92 e0       	ldi	r25, 0x02	; 2
     716:	0e 94 e2 08 	call	0x11c4	; 0x11c4 <ks0108Puts_P>
     71a:	80 91 69 00 	lds	r24, 0x0069
     71e:	90 91 6a 00 	lds	r25, 0x006A
     722:	b7 01       	movw	r22, r14
     724:	4a e0       	ldi	r20, 0x0A	; 10
     726:	50 e0       	ldi	r21, 0x00	; 0
     728:	0e 94 50 0e 	call	0x1ca0	; 0x1ca0 <utoa>
     72c:	c7 01       	movw	r24, r14
     72e:	0e 94 0a 09 	call	0x1214	; 0x1214 <ks0108Puts>
     732:	0d cf       	rjmp	.-486    	; 0x54e <main+0x62>

00000734 <__vector_14>:
     734:	1f 92       	push	r1
     736:	0f 92       	push	r0
     738:	0f b6       	in	r0, 0x3f	; 63
     73a:	0f 92       	push	r0
     73c:	11 24       	eor	r1, r1
     73e:	2f 93       	push	r18
     740:	3f 93       	push	r19
     742:	8f 93       	push	r24
     744:	9f 93       	push	r25
     746:	ef 93       	push	r30
     748:	ff 93       	push	r31
     74a:	20 91 94 00 	lds	r18, 0x0094
     74e:	30 91 95 00 	lds	r19, 0x0095
     752:	80 91 96 00 	lds	r24, 0x0096
     756:	90 91 97 00 	lds	r25, 0x0097
     75a:	28 17       	cp	r18, r24
     75c:	39 07       	cpc	r19, r25
     75e:	31 f4       	brne	.+12     	; 0x76c <__vector_14+0x38>
     760:	85 b3       	in	r24, 0x15	; 21
     762:	91 e0       	ldi	r25, 0x01	; 1
     764:	89 27       	eor	r24, r25
     766:	85 bb       	out	0x15, r24	; 21
     768:	55 98       	cbi	0x0a, 5	; 10
     76a:	1c c0       	rjmp	.+56     	; 0x7a4 <__vector_14+0x70>
     76c:	e0 91 96 00 	lds	r30, 0x0096
     770:	f0 91 97 00 	lds	r31, 0x0097
     774:	80 81       	ld	r24, Z
     776:	8c b9       	out	0x0c, r24	; 12
     778:	80 91 96 00 	lds	r24, 0x0096
     77c:	90 91 97 00 	lds	r25, 0x0097
     780:	01 96       	adiw	r24, 0x01	; 1
     782:	90 93 97 00 	sts	0x0097, r25
     786:	80 93 96 00 	sts	0x0096, r24
     78a:	80 91 96 00 	lds	r24, 0x0096
     78e:	90 91 97 00 	lds	r25, 0x0097
     792:	20 e0       	ldi	r18, 0x00	; 0
     794:	80 39       	cpi	r24, 0x90	; 144
     796:	92 07       	cpc	r25, r18
     798:	29 f4       	brne	.+10     	; 0x7a4 <__vector_14+0x70>
     79a:	40 97       	sbiw	r24, 0x10	; 16
     79c:	90 93 97 00 	sts	0x0097, r25
     7a0:	80 93 96 00 	sts	0x0096, r24
     7a4:	ff 91       	pop	r31
     7a6:	ef 91       	pop	r30
     7a8:	9f 91       	pop	r25
     7aa:	8f 91       	pop	r24
     7ac:	3f 91       	pop	r19
     7ae:	2f 91       	pop	r18
     7b0:	0f 90       	pop	r0
     7b2:	0f be       	out	0x3f, r0	; 63
     7b4:	0f 90       	pop	r0
     7b6:	1f 90       	pop	r1
     7b8:	18 95       	reti

000007ba <__vector_13>:
     7ba:	1f 92       	push	r1
     7bc:	0f 92       	push	r0
     7be:	0f b6       	in	r0, 0x3f	; 63
     7c0:	0f 92       	push	r0
     7c2:	11 24       	eor	r1, r1
     7c4:	2f 93       	push	r18
     7c6:	3f 93       	push	r19
     7c8:	8f 93       	push	r24
     7ca:	9f 93       	push	r25
     7cc:	ef 93       	push	r30
     7ce:	ff 93       	push	r31
     7d0:	85 b3       	in	r24, 0x15	; 21
     7d2:	92 e0       	ldi	r25, 0x02	; 2
     7d4:	89 27       	eor	r24, r25
     7d6:	85 bb       	out	0x15, r24	; 21
     7d8:	20 91 90 00 	lds	r18, 0x0090
     7dc:	30 91 91 00 	lds	r19, 0x0091
     7e0:	80 91 92 00 	lds	r24, 0x0092
     7e4:	90 91 93 00 	lds	r25, 0x0093
     7e8:	28 1b       	sub	r18, r24
     7ea:	39 0b       	sbc	r19, r25
     7ec:	37 ff       	sbrs	r19, 7
     7ee:	02 c0       	rjmp	.+4      	; 0x7f4 <__vector_13+0x3a>
     7f0:	20 5f       	subi	r18, 0xF0	; 240
     7f2:	3f 4f       	sbci	r19, 0xFF	; 255
     7f4:	2f 30       	cpi	r18, 0x0F	; 15
     7f6:	31 05       	cpc	r19, r1
     7f8:	ec f4       	brge	.+58     	; 0x834 <__vector_13+0x7a>
     7fa:	e0 91 90 00 	lds	r30, 0x0090
     7fe:	f0 91 91 00 	lds	r31, 0x0091
     802:	8c b1       	in	r24, 0x0c	; 12
     804:	80 83       	st	Z, r24
     806:	80 91 90 00 	lds	r24, 0x0090
     80a:	90 91 91 00 	lds	r25, 0x0091
     80e:	01 96       	adiw	r24, 0x01	; 1
     810:	90 93 91 00 	sts	0x0091, r25
     814:	80 93 90 00 	sts	0x0090, r24
     818:	80 91 90 00 	lds	r24, 0x0090
     81c:	90 91 91 00 	lds	r25, 0x0091
     820:	20 e0       	ldi	r18, 0x00	; 0
     822:	80 38       	cpi	r24, 0x80	; 128
     824:	92 07       	cpc	r25, r18
     826:	39 f4       	brne	.+14     	; 0x836 <__vector_13+0x7c>
     828:	40 97       	sbiw	r24, 0x10	; 16
     82a:	90 93 91 00 	sts	0x0091, r25
     82e:	80 93 90 00 	sts	0x0090, r24
     832:	01 c0       	rjmp	.+2      	; 0x836 <__vector_13+0x7c>
     834:	8c b1       	in	r24, 0x0c	; 12
     836:	ff 91       	pop	r31
     838:	ef 91       	pop	r30
     83a:	9f 91       	pop	r25
     83c:	8f 91       	pop	r24
     83e:	3f 91       	pop	r19
     840:	2f 91       	pop	r18
     842:	0f 90       	pop	r0
     844:	0f be       	out	0x3f, r0	; 63
     846:	0f 90       	pop	r0
     848:	1f 90       	pop	r1
     84a:	18 95       	reti

0000084c <uart_init>:
     84c:	84 b3       	in	r24, 0x14	; 20
     84e:	87 60       	ori	r24, 0x07	; 7
     850:	84 bb       	out	0x14, r24	; 20
     852:	90 9a       	sbi	0x12, 0	; 18
     854:	53 9a       	sbi	0x0a, 3	; 10
     856:	80 b5       	in	r24, 0x20	; 32
     858:	86 68       	ori	r24, 0x86	; 134
     85a:	80 bd       	out	0x20, r24	; 32
     85c:	54 9a       	sbi	0x0a, 4	; 10
     85e:	10 bc       	out	0x20, r1	; 32
     860:	88 e0       	ldi	r24, 0x08	; 8
     862:	89 b9       	out	0x09, r24	; 9
     864:	80 e7       	ldi	r24, 0x70	; 112
     866:	90 e0       	ldi	r25, 0x00	; 0
     868:	90 93 93 00 	sts	0x0093, r25
     86c:	80 93 92 00 	sts	0x0092, r24
     870:	80 91 92 00 	lds	r24, 0x0092
     874:	90 91 93 00 	lds	r25, 0x0093
     878:	90 93 91 00 	sts	0x0091, r25
     87c:	80 93 90 00 	sts	0x0090, r24
     880:	80 e8       	ldi	r24, 0x80	; 128
     882:	90 e0       	ldi	r25, 0x00	; 0
     884:	90 93 97 00 	sts	0x0097, r25
     888:	80 93 96 00 	sts	0x0096, r24
     88c:	80 91 96 00 	lds	r24, 0x0096
     890:	90 91 97 00 	lds	r25, 0x0097
     894:	90 93 95 00 	sts	0x0095, r25
     898:	80 93 94 00 	sts	0x0094, r24
     89c:	57 9a       	sbi	0x0a, 7	; 10
     89e:	08 95       	ret

000008a0 <uart_putc>:
     8a0:	df 93       	push	r29
     8a2:	cf 93       	push	r28
     8a4:	00 d0       	rcall	.+0      	; 0x8a6 <uart_putc+0x6>
     8a6:	cd b7       	in	r28, 0x3d	; 61
     8a8:	de b7       	in	r29, 0x3e	; 62
     8aa:	48 2f       	mov	r20, r24
     8ac:	80 91 94 00 	lds	r24, 0x0094
     8b0:	90 91 95 00 	lds	r25, 0x0095
     8b4:	20 91 96 00 	lds	r18, 0x0096
     8b8:	30 91 97 00 	lds	r19, 0x0097
     8bc:	82 1b       	sub	r24, r18
     8be:	93 0b       	sbc	r25, r19
     8c0:	9a 83       	std	Y+2, r25	; 0x02
     8c2:	89 83       	std	Y+1, r24	; 0x01
     8c4:	89 81       	ldd	r24, Y+1	; 0x01
     8c6:	9a 81       	ldd	r25, Y+2	; 0x02
     8c8:	97 ff       	sbrs	r25, 7
     8ca:	05 c0       	rjmp	.+10     	; 0x8d6 <uart_putc+0x36>
     8cc:	89 81       	ldd	r24, Y+1	; 0x01
     8ce:	9a 81       	ldd	r25, Y+2	; 0x02
     8d0:	40 96       	adiw	r24, 0x10	; 16
     8d2:	9a 83       	std	Y+2, r25	; 0x02
     8d4:	89 83       	std	Y+1, r24	; 0x01
     8d6:	89 81       	ldd	r24, Y+1	; 0x01
     8d8:	9a 81       	ldd	r25, Y+2	; 0x02
     8da:	0f 97       	sbiw	r24, 0x0f	; 15
     8dc:	3c f7       	brge	.-50     	; 0x8ac <uart_putc+0xc>
     8de:	f8 94       	cli
     8e0:	e0 91 94 00 	lds	r30, 0x0094
     8e4:	f0 91 95 00 	lds	r31, 0x0095
     8e8:	40 83       	st	Z, r20
     8ea:	80 91 94 00 	lds	r24, 0x0094
     8ee:	90 91 95 00 	lds	r25, 0x0095
     8f2:	01 96       	adiw	r24, 0x01	; 1
     8f4:	90 93 95 00 	sts	0x0095, r25
     8f8:	80 93 94 00 	sts	0x0094, r24
     8fc:	80 91 94 00 	lds	r24, 0x0094
     900:	90 91 95 00 	lds	r25, 0x0095
     904:	20 e0       	ldi	r18, 0x00	; 0
     906:	80 39       	cpi	r24, 0x90	; 144
     908:	92 07       	cpc	r25, r18
     90a:	29 f4       	brne	.+10     	; 0x916 <uart_putc+0x76>
     90c:	40 97       	sbiw	r24, 0x10	; 16
     90e:	90 93 95 00 	sts	0x0095, r25
     912:	80 93 94 00 	sts	0x0094, r24
     916:	55 9a       	sbi	0x0a, 5	; 10
     918:	78 94       	sei
     91a:	0f 90       	pop	r0
     91c:	0f 90       	pop	r0
     91e:	cf 91       	pop	r28
     920:	df 91       	pop	r29
     922:	08 95       	ret

00000924 <uart_putstr>:
     924:	cf 93       	push	r28
     926:	df 93       	push	r29
     928:	ec 01       	movw	r28, r24
     92a:	03 c0       	rjmp	.+6      	; 0x932 <uart_putstr+0xe>
     92c:	21 96       	adiw	r28, 0x01	; 1
     92e:	0e 94 50 04 	call	0x8a0	; 0x8a0 <uart_putc>
     932:	88 81       	ld	r24, Y
     934:	88 23       	and	r24, r24
     936:	d1 f7       	brne	.-12     	; 0x92c <uart_putstr+0x8>
     938:	df 91       	pop	r29
     93a:	cf 91       	pop	r28
     93c:	08 95       	ret

0000093e <uart_putstr_P>:
     93e:	cf 93       	push	r28
     940:	df 93       	push	r29
     942:	ec 01       	movw	r28, r24
     944:	03 c0       	rjmp	.+6      	; 0x94c <uart_putstr_P+0xe>
     946:	0e 94 50 04 	call	0x8a0	; 0x8a0 <uart_putc>
     94a:	21 96       	adiw	r28, 0x01	; 1
     94c:	fe 01       	movw	r30, r28
     94e:	84 91       	lpm	r24, Z+
     950:	88 23       	and	r24, r24
     952:	c9 f7       	brne	.-14     	; 0x946 <uart_putstr_P+0x8>
     954:	df 91       	pop	r29
     956:	cf 91       	pop	r28
     958:	08 95       	ret

0000095a <uart_getc>:
     95a:	20 91 90 00 	lds	r18, 0x0090
     95e:	30 91 91 00 	lds	r19, 0x0091
     962:	80 91 92 00 	lds	r24, 0x0092
     966:	90 91 93 00 	lds	r25, 0x0093
     96a:	28 17       	cp	r18, r24
     96c:	39 07       	cpc	r19, r25
     96e:	a9 f3       	breq	.-22     	; 0x95a <uart_getc>
     970:	e0 91 92 00 	lds	r30, 0x0092
     974:	f0 91 93 00 	lds	r31, 0x0093
     978:	e0 81       	ld	r30, Z
     97a:	80 91 92 00 	lds	r24, 0x0092
     97e:	90 91 93 00 	lds	r25, 0x0093
     982:	01 96       	adiw	r24, 0x01	; 1
     984:	90 93 93 00 	sts	0x0093, r25
     988:	80 93 92 00 	sts	0x0092, r24
     98c:	80 91 92 00 	lds	r24, 0x0092
     990:	90 91 93 00 	lds	r25, 0x0093
     994:	20 e0       	ldi	r18, 0x00	; 0
     996:	80 38       	cpi	r24, 0x80	; 128
     998:	92 07       	cpc	r25, r18
     99a:	29 f4       	brne	.+10     	; 0x9a6 <uart_getc+0x4c>
     99c:	40 97       	sbiw	r24, 0x10	; 16
     99e:	90 93 93 00 	sts	0x0093, r25
     9a2:	80 93 92 00 	sts	0x0092, r24
     9a6:	8e 2f       	mov	r24, r30
     9a8:	08 95       	ret

000009aa <uart_getc_nb>:
     9aa:	dc 01       	movw	r26, r24
     9ac:	20 91 90 00 	lds	r18, 0x0090
     9b0:	30 91 91 00 	lds	r19, 0x0091
     9b4:	80 91 92 00 	lds	r24, 0x0092
     9b8:	90 91 93 00 	lds	r25, 0x0093
     9bc:	28 17       	cp	r18, r24
     9be:	39 07       	cpc	r19, r25
     9c0:	11 f4       	brne	.+4      	; 0x9c6 <uart_getc_nb+0x1c>
     9c2:	80 e0       	ldi	r24, 0x00	; 0
     9c4:	08 95       	ret
     9c6:	e0 91 92 00 	lds	r30, 0x0092
     9ca:	f0 91 93 00 	lds	r31, 0x0093
     9ce:	80 81       	ld	r24, Z
     9d0:	8c 93       	st	X, r24
     9d2:	80 91 92 00 	lds	r24, 0x0092
     9d6:	90 91 93 00 	lds	r25, 0x0093
     9da:	01 96       	adiw	r24, 0x01	; 1
     9dc:	90 93 93 00 	sts	0x0093, r25
     9e0:	80 93 92 00 	sts	0x0092, r24
     9e4:	80 91 92 00 	lds	r24, 0x0092
     9e8:	90 91 93 00 	lds	r25, 0x0093
     9ec:	20 e0       	ldi	r18, 0x00	; 0
     9ee:	80 38       	cpi	r24, 0x80	; 128
     9f0:	92 07       	cpc	r25, r18
     9f2:	11 f0       	breq	.+4      	; 0x9f8 <uart_getc_nb+0x4e>
     9f4:	81 e0       	ldi	r24, 0x01	; 1
     9f6:	08 95       	ret
     9f8:	40 97       	sbiw	r24, 0x10	; 16
     9fa:	90 93 93 00 	sts	0x0093, r25
     9fe:	80 93 92 00 	sts	0x0092, r24
     a02:	81 e0       	ldi	r24, 0x01	; 1
     a04:	08 95       	ret

00000a06 <uart_hexdump>:
     a06:	af 92       	push	r10
     a08:	bf 92       	push	r11
     a0a:	df 92       	push	r13
     a0c:	ef 92       	push	r14
     a0e:	ff 92       	push	r15
     a10:	0f 93       	push	r16
     a12:	1f 93       	push	r17
     a14:	df 93       	push	r29
     a16:	cf 93       	push	r28
     a18:	00 d0       	rcall	.+0      	; 0xa1a <uart_hexdump+0x14>
     a1a:	0f 92       	push	r0
     a1c:	cd b7       	in	r28, 0x3d	; 61
     a1e:	de b7       	in	r29, 0x3e	; 62
     a20:	7c 01       	movw	r14, r24
     a22:	8b 01       	movw	r16, r22
     a24:	dd 24       	eor	r13, r13
     a26:	5e 01       	movw	r10, r28
     a28:	08 94       	sec
     a2a:	a1 1c       	adc	r10, r1
     a2c:	b1 1c       	adc	r11, r1
     a2e:	20 c0       	rjmp	.+64     	; 0xa70 <uart_hexdump+0x6a>
     a30:	f7 01       	movw	r30, r14
     a32:	80 81       	ld	r24, Z
     a34:	90 e0       	ldi	r25, 0x00	; 0
     a36:	b5 01       	movw	r22, r10
     a38:	40 e1       	ldi	r20, 0x10	; 16
     a3a:	50 e0       	ldi	r21, 0x00	; 0
     a3c:	0e 94 2f 0e 	call	0x1c5e	; 0x1c5e <itoa>
     a40:	8a 81       	ldd	r24, Y+2	; 0x02
     a42:	88 23       	and	r24, r24
     a44:	19 f4       	brne	.+6      	; 0xa4c <uart_hexdump+0x46>
     a46:	80 e2       	ldi	r24, 0x20	; 32
     a48:	0e 94 50 04 	call	0x8a0	; 0x8a0 <uart_putc>
     a4c:	c5 01       	movw	r24, r10
     a4e:	0e 94 92 04 	call	0x924	; 0x924 <uart_putstr>
     a52:	80 e2       	ldi	r24, 0x20	; 32
     a54:	0e 94 50 04 	call	0x8a0	; 0x8a0 <uart_putc>
     a58:	d3 94       	inc	r13
     a5a:	f0 e1       	ldi	r31, 0x10	; 16
     a5c:	df 16       	cp	r13, r31
     a5e:	29 f4       	brne	.+10     	; 0xa6a <uart_hexdump+0x64>
     a60:	8e e6       	ldi	r24, 0x6E	; 110
     a62:	92 e0       	ldi	r25, 0x02	; 2
     a64:	0e 94 9f 04 	call	0x93e	; 0x93e <uart_putstr_P>
     a68:	dd 24       	eor	r13, r13
     a6a:	08 94       	sec
     a6c:	e1 1c       	adc	r14, r1
     a6e:	f1 1c       	adc	r15, r1
     a70:	01 50       	subi	r16, 0x01	; 1
     a72:	10 40       	sbci	r17, 0x00	; 0
     a74:	8f ef       	ldi	r24, 0xFF	; 255
     a76:	0f 3f       	cpi	r16, 0xFF	; 255
     a78:	18 07       	cpc	r17, r24
     a7a:	d1 f6       	brne	.-76     	; 0xa30 <uart_hexdump+0x2a>
     a7c:	0f 90       	pop	r0
     a7e:	0f 90       	pop	r0
     a80:	0f 90       	pop	r0
     a82:	cf 91       	pop	r28
     a84:	df 91       	pop	r29
     a86:	1f 91       	pop	r17
     a88:	0f 91       	pop	r16
     a8a:	ff 90       	pop	r15
     a8c:	ef 90       	pop	r14
     a8e:	df 90       	pop	r13
     a90:	bf 90       	pop	r11
     a92:	af 90       	pop	r10
     a94:	08 95       	ret

00000a96 <wait>:
     a96:	07 c0       	rjmp	.+14     	; 0xaa6 <wait+0x10>
     a98:	28 eb       	ldi	r18, 0xB8	; 184
     a9a:	3b e0       	ldi	r19, 0x0B	; 11
     a9c:	00 00       	nop
     a9e:	21 50       	subi	r18, 0x01	; 1
     aa0:	30 40       	sbci	r19, 0x00	; 0
     aa2:	e1 f7       	brne	.-8      	; 0xa9c <wait+0x6>
     aa4:	01 97       	sbiw	r24, 0x01	; 1
     aa6:	18 16       	cp	r1, r24
     aa8:	19 06       	cpc	r1, r25
     aaa:	b4 f3       	brlt	.-20     	; 0xa98 <wait+0x2>
     aac:	08 95       	ret

00000aae <ks0108ReadFontData>:
     aae:	fc 01       	movw	r30, r24
     ab0:	84 91       	lpm	r24, Z+
     ab2:	08 95       	ret

00000ab4 <ks0108SelectFont>:
     ab4:	90 93 a4 00 	sts	0x00A4, r25
     ab8:	80 93 a3 00 	sts	0x00A3, r24
     abc:	70 93 a2 00 	sts	0x00A2, r23
     ac0:	60 93 a1 00 	sts	0x00A1, r22
     ac4:	40 93 9d 00 	sts	0x009D, r20
     ac8:	08 95       	ret

00000aca <ks0108CharWidth>:
     aca:	0f 93       	push	r16
     acc:	1f 93       	push	r17
     ace:	18 2f       	mov	r17, r24
     ad0:	80 91 a3 00 	lds	r24, 0x00A3
     ad4:	90 91 a4 00 	lds	r25, 0x00A4
     ad8:	e0 91 a1 00 	lds	r30, 0x00A1
     adc:	f0 91 a2 00 	lds	r31, 0x00A2
     ae0:	04 96       	adiw	r24, 0x04	; 4
     ae2:	09 95       	icall
     ae4:	08 2f       	mov	r16, r24
     ae6:	80 91 a3 00 	lds	r24, 0x00A3
     aea:	90 91 a4 00 	lds	r25, 0x00A4
     aee:	e0 91 a1 00 	lds	r30, 0x00A1
     af2:	f0 91 a2 00 	lds	r31, 0x00A2
     af6:	05 96       	adiw	r24, 0x05	; 5
     af8:	09 95       	icall
     afa:	41 2f       	mov	r20, r17
     afc:	55 27       	eor	r21, r21
     afe:	47 fd       	sbrc	r20, 7
     b00:	50 95       	com	r21
     b02:	20 2f       	mov	r18, r16
     b04:	30 e0       	ldi	r19, 0x00	; 0
     b06:	42 17       	cp	r20, r18
     b08:	53 07       	cpc	r21, r19
     b0a:	cc f0       	brlt	.+50     	; 0xb3e <ks0108CharWidth+0x74>
     b0c:	28 0f       	add	r18, r24
     b0e:	31 1d       	adc	r19, r1
     b10:	42 17       	cp	r20, r18
     b12:	53 07       	cpc	r21, r19
     b14:	a4 f4       	brge	.+40     	; 0xb3e <ks0108CharWidth+0x74>
     b16:	10 1b       	sub	r17, r16
     b18:	21 2f       	mov	r18, r17
     b1a:	33 27       	eor	r19, r19
     b1c:	27 fd       	sbrc	r18, 7
     b1e:	30 95       	com	r19
     b20:	2a 5f       	subi	r18, 0xFA	; 250
     b22:	3f 4f       	sbci	r19, 0xFF	; 255
     b24:	80 91 a3 00 	lds	r24, 0x00A3
     b28:	90 91 a4 00 	lds	r25, 0x00A4
     b2c:	e0 91 a1 00 	lds	r30, 0x00A1
     b30:	f0 91 a2 00 	lds	r31, 0x00A2
     b34:	82 0f       	add	r24, r18
     b36:	93 1f       	adc	r25, r19
     b38:	09 95       	icall
     b3a:	8f 5f       	subi	r24, 0xFF	; 255
     b3c:	01 c0       	rjmp	.+2      	; 0xb40 <ks0108CharWidth+0x76>
     b3e:	80 e0       	ldi	r24, 0x00	; 0
     b40:	1f 91       	pop	r17
     b42:	0f 91       	pop	r16
     b44:	08 95       	ret

00000b46 <ks0108StringWidth>:
     b46:	0f 93       	push	r16
     b48:	1f 93       	push	r17
     b4a:	cf 93       	push	r28
     b4c:	df 93       	push	r29
     b4e:	8c 01       	movw	r16, r24
     b50:	c0 e0       	ldi	r28, 0x00	; 0
     b52:	d0 e0       	ldi	r29, 0x00	; 0
     b54:	06 c0       	rjmp	.+12     	; 0xb62 <ks0108StringWidth+0x1c>
     b56:	0f 5f       	subi	r16, 0xFF	; 255
     b58:	1f 4f       	sbci	r17, 0xFF	; 255
     b5a:	0e 94 65 05 	call	0xaca	; 0xaca <ks0108CharWidth>
     b5e:	c8 0f       	add	r28, r24
     b60:	d1 1d       	adc	r29, r1
     b62:	f8 01       	movw	r30, r16
     b64:	80 81       	ld	r24, Z
     b66:	88 23       	and	r24, r24
     b68:	b1 f7       	brne	.-20     	; 0xb56 <ks0108StringWidth+0x10>
     b6a:	ce 01       	movw	r24, r28
     b6c:	df 91       	pop	r29
     b6e:	cf 91       	pop	r28
     b70:	1f 91       	pop	r17
     b72:	0f 91       	pop	r16
     b74:	08 95       	ret

00000b76 <ks0108StringWidth_P>:
     b76:	0f 93       	push	r16
     b78:	1f 93       	push	r17
     b7a:	cf 93       	push	r28
     b7c:	df 93       	push	r29
     b7e:	ec 01       	movw	r28, r24
     b80:	00 e0       	ldi	r16, 0x00	; 0
     b82:	10 e0       	ldi	r17, 0x00	; 0
     b84:	07 c0       	rjmp	.+14     	; 0xb94 <ks0108StringWidth_P+0x1e>
     b86:	21 96       	adiw	r28, 0x01	; 1
     b88:	f9 01       	movw	r30, r18
     b8a:	84 91       	lpm	r24, Z+
     b8c:	0e 94 65 05 	call	0xaca	; 0xaca <ks0108CharWidth>
     b90:	08 0f       	add	r16, r24
     b92:	11 1d       	adc	r17, r1
     b94:	9e 01       	movw	r18, r28
     b96:	fe 01       	movw	r30, r28
     b98:	84 91       	lpm	r24, Z+
     b9a:	88 23       	and	r24, r24
     b9c:	a1 f7       	brne	.-24     	; 0xb86 <ks0108StringWidth_P+0x10>
     b9e:	c8 01       	movw	r24, r16
     ba0:	df 91       	pop	r29
     ba2:	cf 91       	pop	r28
     ba4:	1f 91       	pop	r17
     ba6:	0f 91       	pop	r16
     ba8:	08 95       	ret

00000baa <ks0108Enable>:
     baa:	ad 9a       	sbi	0x15, 5	; 21
	...
     bec:	ad 98       	cbi	0x15, 5	; 21
     bee:	80 e0       	ldi	r24, 0x00	; 0
	...
     c00:	8f 5f       	subi	r24, 0xFF	; 255
     c02:	88 30       	cpi	r24, 0x08	; 8
     c04:	a9 f7       	brne	.-22     	; 0xbf0 <ks0108Enable+0x46>
     c06:	08 95       	ret

00000c08 <ks0108WriteCommand>:
     c08:	98 2f       	mov	r25, r24
     c0a:	66 23       	and	r22, r22
     c0c:	19 f4       	brne	.+6      	; 0xc14 <ks0108WriteCommand+0xc>
     c0e:	c2 98       	cbi	0x18, 2	; 24
     c10:	c1 9a       	sbi	0x18, 1	; 24
     c12:	04 c0       	rjmp	.+8      	; 0xc1c <ks0108WriteCommand+0x14>
     c14:	61 30       	cpi	r22, 0x01	; 1
     c16:	11 f4       	brne	.+4      	; 0xc1c <ks0108WriteCommand+0x14>
     c18:	c1 98       	cbi	0x18, 1	; 24
     c1a:	c2 9a       	sbi	0x18, 2	; 24
     c1c:	ab 98       	cbi	0x15, 3	; 21
     c1e:	ac 98       	cbi	0x15, 4	; 21
     c20:	8f ef       	ldi	r24, 0xFF	; 255
     c22:	8a bb       	out	0x1a, r24	; 26
     c24:	9b bb       	out	0x1b, r25	; 27
     c26:	ad 9a       	sbi	0x15, 5	; 21
	...
     c68:	ad 98       	cbi	0x15, 5	; 21
     c6a:	80 e0       	ldi	r24, 0x00	; 0
	...
     c7c:	8f 5f       	subi	r24, 0xFF	; 255
     c7e:	88 30       	cpi	r24, 0x08	; 8
     c80:	a9 f7       	brne	.-22     	; 0xc6c <ks0108WriteCommand+0x64>
     c82:	1b ba       	out	0x1b, r1	; 27
     c84:	08 95       	ret

00000c86 <ks0108GotoXY>:
     c86:	1f 93       	push	r17
     c88:	87 fd       	sbrc	r24, 7
     c8a:	80 e0       	ldi	r24, 0x00	; 0
     c8c:	60 34       	cpi	r22, 0x40	; 64
     c8e:	08 f0       	brcs	.+2      	; 0xc92 <ks0108GotoXY+0xc>
     c90:	60 e0       	ldi	r22, 0x00	; 0
     c92:	80 93 9e 00 	sts	0x009E, r24
     c96:	60 93 9f 00 	sts	0x009F, r22
     c9a:	66 95       	lsr	r22
     c9c:	66 95       	lsr	r22
     c9e:	66 95       	lsr	r22
     ca0:	60 93 a0 00 	sts	0x00A0, r22
     ca4:	80 34       	cpi	r24, 0x40	; 64
     ca6:	10 f4       	brcc	.+4      	; 0xcac <ks0108GotoXY+0x26>
     ca8:	60 e0       	ldi	r22, 0x00	; 0
     caa:	02 c0       	rjmp	.+4      	; 0xcb0 <ks0108GotoXY+0x2a>
     cac:	80 54       	subi	r24, 0x40	; 64
     cae:	61 e0       	ldi	r22, 0x01	; 1
     cb0:	80 64       	ori	r24, 0x40	; 64
     cb2:	0e 94 04 06 	call	0xc08	; 0xc08 <ks0108WriteCommand>
     cb6:	10 91 a0 00 	lds	r17, 0x00A0
     cba:	18 6b       	ori	r17, 0xB8	; 184
     cbc:	81 2f       	mov	r24, r17
     cbe:	60 e0       	ldi	r22, 0x00	; 0
     cc0:	0e 94 04 06 	call	0xc08	; 0xc08 <ks0108WriteCommand>
     cc4:	81 2f       	mov	r24, r17
     cc6:	61 e0       	ldi	r22, 0x01	; 1
     cc8:	0e 94 04 06 	call	0xc08	; 0xc08 <ks0108WriteCommand>
     ccc:	1f 91       	pop	r17
     cce:	08 95       	ret

00000cd0 <ks0108DoReadData>:
     cd0:	1f 93       	push	r17
     cd2:	df 93       	push	r29
     cd4:	cf 93       	push	r28
     cd6:	0f 92       	push	r0
     cd8:	cd b7       	in	r28, 0x3d	; 61
     cda:	de b7       	in	r29, 0x3e	; 62
     cdc:	1b ba       	out	0x1b, r1	; 27
     cde:	1a ba       	out	0x1a, r1	; 26
     ce0:	90 91 9e 00 	lds	r25, 0x009E
     ce4:	90 34       	cpi	r25, 0x40	; 64
     ce6:	18 f4       	brcc	.+6      	; 0xcee <ks0108DoReadData+0x1e>
     ce8:	c2 98       	cbi	0x18, 2	; 24
     cea:	c1 9a       	sbi	0x18, 1	; 24
     cec:	02 c0       	rjmp	.+4      	; 0xcf2 <ks0108DoReadData+0x22>
     cee:	c1 98       	cbi	0x18, 1	; 24
     cf0:	c2 9a       	sbi	0x18, 2	; 24
     cf2:	90 34       	cpi	r25, 0x40	; 64
     cf4:	31 f4       	brne	.+12     	; 0xd02 <ks0108DoReadData+0x32>
     cf6:	88 23       	and	r24, r24
     cf8:	21 f0       	breq	.+8      	; 0xd02 <ks0108DoReadData+0x32>
     cfa:	80 e4       	ldi	r24, 0x40	; 64
     cfc:	61 e0       	ldi	r22, 0x01	; 1
     cfe:	0e 94 04 06 	call	0xc08	; 0xc08 <ks0108WriteCommand>
     d02:	ab 9a       	sbi	0x15, 3	; 21
     d04:	ac 9a       	sbi	0x15, 4	; 21
     d06:	ad 9a       	sbi	0x15, 5	; 21
     d08:	19 82       	std	Y+1, r1	; 0x01
     d0a:	0b c0       	rjmp	.+22     	; 0xd22 <ks0108DoReadData+0x52>
	...
     d1c:	89 81       	ldd	r24, Y+1	; 0x01
     d1e:	8f 5f       	subi	r24, 0xFF	; 255
     d20:	89 83       	std	Y+1, r24	; 0x01
     d22:	89 81       	ldd	r24, Y+1	; 0x01
     d24:	84 30       	cpi	r24, 0x04	; 4
     d26:	90 f3       	brcs	.-28     	; 0xd0c <ks0108DoReadData+0x3c>
     d28:	19 b3       	in	r17, 0x19	; 25
     d2a:	ad 98       	cbi	0x15, 5	; 21
     d2c:	19 82       	std	Y+1, r1	; 0x01
     d2e:	0a c0       	rjmp	.+20     	; 0xd44 <ks0108DoReadData+0x74>
	...
     d3c:	00 00       	nop
     d3e:	89 81       	ldd	r24, Y+1	; 0x01
     d40:	8f 5f       	subi	r24, 0xFF	; 255
     d42:	89 83       	std	Y+1, r24	; 0x01
     d44:	89 81       	ldd	r24, Y+1	; 0x01
     d46:	84 30       	cpi	r24, 0x04	; 4
     d48:	98 f3       	brcs	.-26     	; 0xd30 <ks0108DoReadData+0x60>
     d4a:	8f ef       	ldi	r24, 0xFF	; 255
     d4c:	8a bb       	out	0x1a, r24	; 26
     d4e:	80 91 9e 00 	lds	r24, 0x009E
     d52:	60 91 9f 00 	lds	r22, 0x009F
     d56:	0e 94 43 06 	call	0xc86	; 0xc86 <ks0108GotoXY>
     d5a:	80 91 98 00 	lds	r24, 0x0098
     d5e:	81 11       	cpse	r24, r1
     d60:	10 95       	com	r17
     d62:	81 2f       	mov	r24, r17
     d64:	0f 90       	pop	r0
     d66:	cf 91       	pop	r28
     d68:	df 91       	pop	r29
     d6a:	1f 91       	pop	r17
     d6c:	08 95       	ret

00000d6e <ks0108ReadData>:
     d6e:	81 e0       	ldi	r24, 0x01	; 1
     d70:	0e 94 68 06 	call	0xcd0	; 0xcd0 <ks0108DoReadData>
     d74:	80 e0       	ldi	r24, 0x00	; 0
     d76:	0e 94 68 06 	call	0xcd0	; 0xcd0 <ks0108DoReadData>
     d7a:	08 95       	ret

00000d7c <ks0108SetTransparency>:
     d7c:	82 30       	cpi	r24, 0x02	; 2
     d7e:	10 f4       	brcc	.+4      	; 0xd84 <ks0108SetTransparency+0x8>
     d80:	80 93 62 00 	sts	0x0062, r24
     d84:	08 95       	ret

00000d86 <ks0108WriteData>:
     d86:	cf 92       	push	r12
     d88:	df 92       	push	r13
     d8a:	ef 92       	push	r14
     d8c:	ff 92       	push	r15
     d8e:	0f 93       	push	r16
     d90:	1f 93       	push	r17
     d92:	cf 93       	push	r28
     d94:	df 93       	push	r29
     d96:	e8 2e       	mov	r14, r24
     d98:	80 91 9e 00 	lds	r24, 0x009E
     d9c:	87 fd       	sbrc	r24, 7
     d9e:	0f c1       	rjmp	.+542    	; 0xfbe <ks0108WriteData+0x238>
     da0:	80 34       	cpi	r24, 0x40	; 64
     da2:	18 f4       	brcc	.+6      	; 0xdaa <ks0108WriteData+0x24>
     da4:	c2 98       	cbi	0x18, 2	; 24
     da6:	c1 9a       	sbi	0x18, 1	; 24
     da8:	02 c0       	rjmp	.+4      	; 0xdae <ks0108WriteData+0x28>
     daa:	c1 98       	cbi	0x18, 1	; 24
     dac:	c2 9a       	sbi	0x18, 2	; 24
     dae:	80 34       	cpi	r24, 0x40	; 64
     db0:	19 f4       	brne	.+6      	; 0xdb8 <ks0108WriteData+0x32>
     db2:	61 e0       	ldi	r22, 0x01	; 1
     db4:	0e 94 04 06 	call	0xc08	; 0xc08 <ks0108WriteCommand>
     db8:	ab 9a       	sbi	0x15, 3	; 21
     dba:	ac 98       	cbi	0x15, 4	; 21
     dbc:	8f ef       	ldi	r24, 0xFF	; 255
     dbe:	8a bb       	out	0x1a, r24	; 26
     dc0:	10 91 9f 00 	lds	r17, 0x009F
     dc4:	17 70       	andi	r17, 0x07	; 7
     dc6:	09 f4       	brne	.+2      	; 0xdca <ks0108WriteData+0x44>
     dc8:	c1 c0       	rjmp	.+386    	; 0xf4c <ks0108WriteData+0x1c6>
     dca:	08 b3       	in	r16, 0x18	; 24
     dcc:	06 70       	andi	r16, 0x06	; 6
     dce:	f5 b2       	in	r15, 0x15	; 21
     dd0:	88 e3       	ldi	r24, 0x38	; 56
     dd2:	f8 22       	and	r15, r24
     dd4:	80 91 62 00 	lds	r24, 0x0062
     dd8:	81 30       	cpi	r24, 0x01	; 1
     dda:	11 f0       	breq	.+4      	; 0xde0 <ks0108WriteData+0x5a>
     ddc:	20 e0       	ldi	r18, 0x00	; 0
     dde:	03 c0       	rjmp	.+6      	; 0xde6 <ks0108WriteData+0x60>
     de0:	0e 94 b7 06 	call	0xd6e	; 0xd6e <ks0108ReadData>
     de4:	28 2f       	mov	r18, r24
     de6:	88 b3       	in	r24, 0x18	; 24
     de8:	89 7f       	andi	r24, 0xF9	; 249
     dea:	88 bb       	out	0x18, r24	; 24
     dec:	88 b3       	in	r24, 0x18	; 24
     dee:	80 2b       	or	r24, r16
     df0:	88 bb       	out	0x18, r24	; 24
     df2:	85 b3       	in	r24, 0x15	; 21
     df4:	87 7c       	andi	r24, 0xC7	; 199
     df6:	85 bb       	out	0x15, r24	; 21
     df8:	85 b3       	in	r24, 0x15	; 21
     dfa:	8f 29       	or	r24, r15
     dfc:	85 bb       	out	0x15, r24	; 21
     dfe:	8f ef       	ldi	r24, 0xFF	; 255
     e00:	8a bb       	out	0x1a, r24	; 26
     e02:	ce 2d       	mov	r28, r14
     e04:	d0 e0       	ldi	r29, 0x00	; 0
     e06:	c1 2e       	mov	r12, r17
     e08:	dd 24       	eor	r13, r13
     e0a:	ce 01       	movw	r24, r28
     e0c:	01 2e       	mov	r0, r17
     e0e:	02 c0       	rjmp	.+4      	; 0xe14 <ks0108WriteData+0x8e>
     e10:	88 0f       	add	r24, r24
     e12:	99 1f       	adc	r25, r25
     e14:	0a 94       	dec	r0
     e16:	e2 f7       	brpl	.-8      	; 0xe10 <ks0108WriteData+0x8a>
     e18:	92 2f       	mov	r25, r18
     e1a:	98 2b       	or	r25, r24
     e1c:	80 91 98 00 	lds	r24, 0x0098
     e20:	81 11       	cpse	r24, r1
     e22:	90 95       	com	r25
     e24:	9b bb       	out	0x1b, r25	; 27
     e26:	ad 9a       	sbi	0x15, 5	; 21
	...
     e68:	ad 98       	cbi	0x15, 5	; 21
     e6a:	80 e0       	ldi	r24, 0x00	; 0
	...
     e7c:	8f 5f       	subi	r24, 0xFF	; 255
     e7e:	88 30       	cpi	r24, 0x08	; 8
     e80:	a9 f7       	brne	.-22     	; 0xe6c <ks0108WriteData+0xe6>
     e82:	60 91 9f 00 	lds	r22, 0x009F
     e86:	68 5f       	subi	r22, 0xF8	; 248
     e88:	80 91 9e 00 	lds	r24, 0x009E
     e8c:	0e 94 43 06 	call	0xc86	; 0xc86 <ks0108GotoXY>
     e90:	80 91 62 00 	lds	r24, 0x0062
     e94:	81 30       	cpi	r24, 0x01	; 1
     e96:	11 f0       	breq	.+4      	; 0xe9c <ks0108WriteData+0x116>
     e98:	20 e0       	ldi	r18, 0x00	; 0
     e9a:	03 c0       	rjmp	.+6      	; 0xea2 <ks0108WriteData+0x11c>
     e9c:	0e 94 b7 06 	call	0xd6e	; 0xd6e <ks0108ReadData>
     ea0:	28 2f       	mov	r18, r24
     ea2:	88 b3       	in	r24, 0x18	; 24
     ea4:	89 7f       	andi	r24, 0xF9	; 249
     ea6:	88 bb       	out	0x18, r24	; 24
     ea8:	88 b3       	in	r24, 0x18	; 24
     eaa:	08 2b       	or	r16, r24
     eac:	08 bb       	out	0x18, r16	; 24
     eae:	85 b3       	in	r24, 0x15	; 21
     eb0:	87 7c       	andi	r24, 0xC7	; 199
     eb2:	85 bb       	out	0x15, r24	; 21
     eb4:	85 b3       	in	r24, 0x15	; 21
     eb6:	f8 2a       	or	r15, r24
     eb8:	f5 ba       	out	0x15, r15	; 21
     eba:	8f ef       	ldi	r24, 0xFF	; 255
     ebc:	8a bb       	out	0x1a, r24	; 26
     ebe:	88 e0       	ldi	r24, 0x08	; 8
     ec0:	90 e0       	ldi	r25, 0x00	; 0
     ec2:	8c 19       	sub	r24, r12
     ec4:	9d 09       	sbc	r25, r13
     ec6:	02 c0       	rjmp	.+4      	; 0xecc <ks0108WriteData+0x146>
     ec8:	d5 95       	asr	r29
     eca:	c7 95       	ror	r28
     ecc:	8a 95       	dec	r24
     ece:	e2 f7       	brpl	.-8      	; 0xec8 <ks0108WriteData+0x142>
     ed0:	92 2f       	mov	r25, r18
     ed2:	9c 2b       	or	r25, r28
     ed4:	80 91 98 00 	lds	r24, 0x0098
     ed8:	81 11       	cpse	r24, r1
     eda:	90 95       	com	r25
     edc:	9b bb       	out	0x1b, r25	; 27
     ede:	ad 9a       	sbi	0x15, 5	; 21
	...
     f20:	ad 98       	cbi	0x15, 5	; 21
     f22:	80 e0       	ldi	r24, 0x00	; 0
	...
     f34:	8f 5f       	subi	r24, 0xFF	; 255
     f36:	88 30       	cpi	r24, 0x08	; 8
     f38:	a9 f7       	brne	.-22     	; 0xf24 <ks0108WriteData+0x19e>
     f3a:	80 91 9e 00 	lds	r24, 0x009E
     f3e:	60 91 9f 00 	lds	r22, 0x009F
     f42:	68 50       	subi	r22, 0x08	; 8
     f44:	8f 5f       	subi	r24, 0xFF	; 255
     f46:	0e 94 43 06 	call	0xc86	; 0xc86 <ks0108GotoXY>
     f4a:	38 c0       	rjmp	.+112    	; 0xfbc <ks0108WriteData+0x236>
     f4c:	80 91 98 00 	lds	r24, 0x0098
     f50:	81 11       	cpse	r24, r1
     f52:	e0 94       	com	r14
     f54:	eb ba       	out	0x1b, r14	; 27
     f56:	ad 9a       	sbi	0x15, 5	; 21
	...
     f98:	ad 98       	cbi	0x15, 5	; 21
     f9a:	80 e0       	ldi	r24, 0x00	; 0
	...
     fac:	8f 5f       	subi	r24, 0xFF	; 255
     fae:	88 30       	cpi	r24, 0x08	; 8
     fb0:	a9 f7       	brne	.-22     	; 0xf9c <ks0108WriteData+0x216>
     fb2:	80 91 9e 00 	lds	r24, 0x009E
     fb6:	8f 5f       	subi	r24, 0xFF	; 255
     fb8:	80 93 9e 00 	sts	0x009E, r24
     fbc:	1b ba       	out	0x1b, r1	; 27
     fbe:	df 91       	pop	r29
     fc0:	cf 91       	pop	r28
     fc2:	1f 91       	pop	r17
     fc4:	0f 91       	pop	r16
     fc6:	ff 90       	pop	r15
     fc8:	ef 90       	pop	r14
     fca:	df 90       	pop	r13
     fcc:	cf 90       	pop	r12
     fce:	08 95       	ret

00000fd0 <ks0108PutChar>:
     fd0:	2f 92       	push	r2
     fd2:	3f 92       	push	r3
     fd4:	4f 92       	push	r4
     fd6:	5f 92       	push	r5
     fd8:	6f 92       	push	r6
     fda:	7f 92       	push	r7
     fdc:	8f 92       	push	r8
     fde:	9f 92       	push	r9
     fe0:	af 92       	push	r10
     fe2:	bf 92       	push	r11
     fe4:	cf 92       	push	r12
     fe6:	df 92       	push	r13
     fe8:	ef 92       	push	r14
     fea:	ff 92       	push	r15
     fec:	0f 93       	push	r16
     fee:	1f 93       	push	r17
     ff0:	cf 93       	push	r28
     ff2:	df 93       	push	r29
     ff4:	e8 2e       	mov	r14, r24
     ff6:	80 91 a3 00 	lds	r24, 0x00A3
     ffa:	90 91 a4 00 	lds	r25, 0x00A4
     ffe:	e0 91 a1 00 	lds	r30, 0x00A1
    1002:	f0 91 a2 00 	lds	r31, 0x00A2
    1006:	03 96       	adiw	r24, 0x03	; 3
    1008:	09 95       	icall
    100a:	c8 2e       	mov	r12, r24
    100c:	80 91 a3 00 	lds	r24, 0x00A3
    1010:	90 91 a4 00 	lds	r25, 0x00A4
    1014:	e0 91 a1 00 	lds	r30, 0x00A1
    1018:	f0 91 a2 00 	lds	r31, 0x00A2
    101c:	04 96       	adiw	r24, 0x04	; 4
    101e:	09 95       	icall
    1020:	18 2f       	mov	r17, r24
    1022:	80 91 a3 00 	lds	r24, 0x00A3
    1026:	90 91 a4 00 	lds	r25, 0x00A4
    102a:	e0 91 a1 00 	lds	r30, 0x00A1
    102e:	f0 91 a2 00 	lds	r31, 0x00A2
    1032:	05 96       	adiw	r24, 0x05	; 5
    1034:	09 95       	icall
    1036:	d8 2e       	mov	r13, r24
    1038:	50 90 9e 00 	lds	r5, 0x009E
    103c:	20 90 9f 00 	lds	r2, 0x009F
    1040:	2e 2d       	mov	r18, r14
    1042:	33 27       	eor	r19, r19
    1044:	27 fd       	sbrc	r18, 7
    1046:	30 95       	com	r19
    1048:	81 2f       	mov	r24, r17
    104a:	90 e0       	ldi	r25, 0x00	; 0
    104c:	28 17       	cp	r18, r24
    104e:	39 07       	cpc	r19, r25
    1050:	0c f4       	brge	.+2      	; 0x1054 <ks0108PutChar+0x84>
    1052:	a2 c0       	rjmp	.+324    	; 0x1198 <ks0108PutChar+0x1c8>
    1054:	8d 0d       	add	r24, r13
    1056:	91 1d       	adc	r25, r1
    1058:	28 17       	cp	r18, r24
    105a:	39 07       	cpc	r19, r25
    105c:	0c f0       	brlt	.+2      	; 0x1060 <ks0108PutChar+0x90>
    105e:	9c c0       	rjmp	.+312    	; 0x1198 <ks0108PutChar+0x1c8>
    1060:	e1 1a       	sub	r14, r17
    1062:	00 e0       	ldi	r16, 0x00	; 0
    1064:	10 e0       	ldi	r17, 0x00	; 0
    1066:	ff 24       	eor	r15, r15
    1068:	ce 2d       	mov	r28, r14
    106a:	dd 27       	eor	r29, r29
    106c:	c7 fd       	sbrc	r28, 7
    106e:	d0 95       	com	r29
    1070:	07 c0       	rjmp	.+14     	; 0x1080 <ks0108PutChar+0xb0>
    1072:	06 96       	adiw	r24, 0x06	; 6
    1074:	82 0f       	add	r24, r18
    1076:	93 1f       	adc	r25, r19
    1078:	09 95       	icall
    107a:	08 0f       	add	r16, r24
    107c:	11 1d       	adc	r17, r1
    107e:	f3 94       	inc	r15
    1080:	8f 2d       	mov	r24, r15
    1082:	90 e0       	ldi	r25, 0x00	; 0
    1084:	20 91 a3 00 	lds	r18, 0x00A3
    1088:	30 91 a4 00 	lds	r19, 0x00A4
    108c:	e0 91 a1 00 	lds	r30, 0x00A1
    1090:	f0 91 a2 00 	lds	r31, 0x00A2
    1094:	8c 17       	cp	r24, r28
    1096:	9d 07       	cpc	r25, r29
    1098:	64 f3       	brlt	.-40     	; 0x1072 <ks0108PutChar+0xa2>
    109a:	ec 2c       	mov	r14, r12
    109c:	ff 24       	eor	r15, r15
    109e:	47 e0       	ldi	r20, 0x07	; 7
    10a0:	50 e0       	ldi	r21, 0x00	; 0
    10a2:	e4 0e       	add	r14, r20
    10a4:	f5 1e       	adc	r15, r21
    10a6:	c7 01       	movw	r24, r14
    10a8:	43 e0       	ldi	r20, 0x03	; 3
    10aa:	95 95       	asr	r25
    10ac:	87 95       	ror	r24
    10ae:	4a 95       	dec	r20
    10b0:	e1 f7       	brne	.-8      	; 0x10aa <ks0108PutChar+0xda>
    10b2:	49 ef       	ldi	r20, 0xF9	; 249
    10b4:	5f ef       	ldi	r21, 0xFF	; 255
    10b6:	e4 0e       	add	r14, r20
    10b8:	f5 1e       	adc	r15, r21
    10ba:	38 2e       	mov	r3, r24
    10bc:	ac 01       	movw	r20, r24
    10be:	40 9f       	mul	r20, r16
    10c0:	c0 01       	movw	r24, r0
    10c2:	41 9f       	mul	r20, r17
    10c4:	90 0d       	add	r25, r0
    10c6:	50 9f       	mul	r21, r16
    10c8:	90 0d       	add	r25, r0
    10ca:	11 24       	eor	r1, r1
    10cc:	cd 2c       	mov	r12, r13
    10ce:	dd 24       	eor	r13, r13
    10d0:	46 e0       	ldi	r20, 0x06	; 6
    10d2:	50 e0       	ldi	r21, 0x00	; 0
    10d4:	c4 0e       	add	r12, r20
    10d6:	d5 1e       	adc	r13, r21
    10d8:	c8 0e       	add	r12, r24
    10da:	d9 1e       	adc	r13, r25
    10dc:	26 96       	adiw	r28, 0x06	; 6
    10de:	c9 01       	movw	r24, r18
    10e0:	8c 0f       	add	r24, r28
    10e2:	9d 1f       	adc	r25, r29
    10e4:	09 95       	icall
    10e6:	68 2e       	mov	r6, r24
    10e8:	08 e0       	ldi	r16, 0x08	; 8
    10ea:	10 e0       	ldi	r17, 0x00	; 0
    10ec:	0e 19       	sub	r16, r14
    10ee:	1f 09       	sbc	r17, r15
    10f0:	77 24       	eor	r7, r7
    10f2:	88 24       	eor	r8, r8
    10f4:	88 e0       	ldi	r24, 0x08	; 8
    10f6:	a8 2e       	mov	r10, r24
    10f8:	b1 2c       	mov	r11, r1
    10fa:	42 c0       	rjmp	.+132    	; 0x1180 <ks0108PutChar+0x1b0>
    10fc:	40 2e       	mov	r4, r16
    10fe:	e6 01       	movw	r28, r12
    1100:	c8 0d       	add	r28, r8
    1102:	d1 1d       	adc	r29, r1
    1104:	99 24       	eor	r9, r9
    1106:	23 c0       	rjmp	.+70     	; 0x114e <ks0108PutChar+0x17e>
    1108:	80 91 a3 00 	lds	r24, 0x00A3
    110c:	90 91 a4 00 	lds	r25, 0x00A4
    1110:	e0 91 a1 00 	lds	r30, 0x00A1
    1114:	f0 91 a2 00 	lds	r31, 0x00A2
    1118:	8c 0f       	add	r24, r28
    111a:	9d 1f       	adc	r25, r29
    111c:	09 95       	icall
    111e:	98 2f       	mov	r25, r24
    1120:	ea 14       	cp	r14, r10
    1122:	fb 04       	cpc	r15, r11
    1124:	44 f4       	brge	.+16     	; 0x1136 <ks0108PutChar+0x166>
    1126:	90 e0       	ldi	r25, 0x00	; 0
    1128:	04 2c       	mov	r0, r4
    112a:	02 c0       	rjmp	.+4      	; 0x1130 <ks0108PutChar+0x160>
    112c:	95 95       	asr	r25
    112e:	87 95       	ror	r24
    1130:	0a 94       	dec	r0
    1132:	e2 f7       	brpl	.-8      	; 0x112c <ks0108PutChar+0x15c>
    1134:	98 2f       	mov	r25, r24
    1136:	80 91 9d 00 	lds	r24, 0x009D
    113a:	8f 3f       	cpi	r24, 0xFF	; 255
    113c:	11 f4       	brne	.+4      	; 0x1142 <ks0108PutChar+0x172>
    113e:	89 2f       	mov	r24, r25
    1140:	02 c0       	rjmp	.+4      	; 0x1146 <ks0108PutChar+0x176>
    1142:	89 2f       	mov	r24, r25
    1144:	80 95       	com	r24
    1146:	0e 94 c3 06 	call	0xd86	; 0xd86 <ks0108WriteData>
    114a:	93 94       	inc	r9
    114c:	21 96       	adiw	r28, 0x01	; 1
    114e:	96 14       	cp	r9, r6
    1150:	d8 f2       	brcs	.-74     	; 0x1108 <ks0108PutChar+0x138>
    1152:	80 91 9d 00 	lds	r24, 0x009D
    1156:	8f 3f       	cpi	r24, 0xFF	; 255
    1158:	11 f4       	brne	.+4      	; 0x115e <ks0108PutChar+0x18e>
    115a:	80 e0       	ldi	r24, 0x00	; 0
    115c:	01 c0       	rjmp	.+2      	; 0x1160 <ks0108PutChar+0x190>
    115e:	8f ef       	ldi	r24, 0xFF	; 255
    1160:	0e 94 c3 06 	call	0xd86	; 0xd86 <ks0108WriteData>
    1164:	60 91 9f 00 	lds	r22, 0x009F
    1168:	68 5f       	subi	r22, 0xF8	; 248
    116a:	85 2d       	mov	r24, r5
    116c:	0e 94 43 06 	call	0xc86	; 0xc86 <ks0108GotoXY>
    1170:	73 94       	inc	r7
    1172:	86 0c       	add	r8, r6
    1174:	88 e0       	ldi	r24, 0x08	; 8
    1176:	90 e0       	ldi	r25, 0x00	; 0
    1178:	a8 0e       	add	r10, r24
    117a:	b9 1e       	adc	r11, r25
    117c:	08 5f       	subi	r16, 0xF8	; 248
    117e:	1f 4f       	sbci	r17, 0xFF	; 255
    1180:	73 14       	cp	r7, r3
    1182:	08 f4       	brcc	.+2      	; 0x1186 <ks0108PutChar+0x1b6>
    1184:	bb cf       	rjmp	.-138    	; 0x10fc <ks0108PutChar+0x12c>
    1186:	53 94       	inc	r5
    1188:	85 2d       	mov	r24, r5
    118a:	86 0d       	add	r24, r6
    118c:	62 2d       	mov	r22, r2
    118e:	0e 94 43 06 	call	0xc86	; 0xc86 <ks0108GotoXY>
    1192:	20 e0       	ldi	r18, 0x00	; 0
    1194:	30 e0       	ldi	r19, 0x00	; 0
    1196:	02 c0       	rjmp	.+4      	; 0x119c <ks0108PutChar+0x1cc>
    1198:	21 e0       	ldi	r18, 0x01	; 1
    119a:	30 e0       	ldi	r19, 0x00	; 0
    119c:	c9 01       	movw	r24, r18
    119e:	df 91       	pop	r29
    11a0:	cf 91       	pop	r28
    11a2:	1f 91       	pop	r17
    11a4:	0f 91       	pop	r16
    11a6:	ff 90       	pop	r15
    11a8:	ef 90       	pop	r14
    11aa:	df 90       	pop	r13
    11ac:	cf 90       	pop	r12
    11ae:	bf 90       	pop	r11
    11b0:	af 90       	pop	r10
    11b2:	9f 90       	pop	r9
    11b4:	8f 90       	pop	r8
    11b6:	7f 90       	pop	r7
    11b8:	6f 90       	pop	r6
    11ba:	5f 90       	pop	r5
    11bc:	4f 90       	pop	r4
    11be:	3f 90       	pop	r3
    11c0:	2f 90       	pop	r2
    11c2:	08 95       	ret

000011c4 <ks0108Puts_P>:
    11c4:	0f 93       	push	r16
    11c6:	1f 93       	push	r17
    11c8:	cf 93       	push	r28
    11ca:	df 93       	push	r29
    11cc:	ec 01       	movw	r28, r24
    11ce:	00 91 9e 00 	lds	r16, 0x009E
    11d2:	17 c0       	rjmp	.+46     	; 0x1202 <ks0108Puts_P+0x3e>
    11d4:	8a 30       	cpi	r24, 0x0A	; 10
    11d6:	91 f4       	brne	.+36     	; 0x11fc <ks0108Puts_P+0x38>
    11d8:	10 91 9f 00 	lds	r17, 0x009F
    11dc:	80 91 a3 00 	lds	r24, 0x00A3
    11e0:	90 91 a4 00 	lds	r25, 0x00A4
    11e4:	e0 91 a1 00 	lds	r30, 0x00A1
    11e8:	f0 91 a2 00 	lds	r31, 0x00A2
    11ec:	03 96       	adiw	r24, 0x03	; 3
    11ee:	09 95       	icall
    11f0:	18 0f       	add	r17, r24
    11f2:	80 2f       	mov	r24, r16
    11f4:	61 2f       	mov	r22, r17
    11f6:	0e 94 43 06 	call	0xc86	; 0xc86 <ks0108GotoXY>
    11fa:	02 c0       	rjmp	.+4      	; 0x1200 <ks0108Puts_P+0x3c>
    11fc:	0e 94 e8 07 	call	0xfd0	; 0xfd0 <ks0108PutChar>
    1200:	21 96       	adiw	r28, 0x01	; 1
    1202:	fe 01       	movw	r30, r28
    1204:	84 91       	lpm	r24, Z+
    1206:	88 23       	and	r24, r24
    1208:	29 f7       	brne	.-54     	; 0x11d4 <ks0108Puts_P+0x10>
    120a:	df 91       	pop	r29
    120c:	cf 91       	pop	r28
    120e:	1f 91       	pop	r17
    1210:	0f 91       	pop	r16
    1212:	08 95       	ret

00001214 <ks0108Puts>:
    1214:	0f 93       	push	r16
    1216:	1f 93       	push	r17
    1218:	cf 93       	push	r28
    121a:	df 93       	push	r29
    121c:	ec 01       	movw	r28, r24
    121e:	00 91 9e 00 	lds	r16, 0x009E
    1222:	17 c0       	rjmp	.+46     	; 0x1252 <ks0108Puts+0x3e>
    1224:	8a 30       	cpi	r24, 0x0A	; 10
    1226:	91 f4       	brne	.+36     	; 0x124c <ks0108Puts+0x38>
    1228:	10 91 9f 00 	lds	r17, 0x009F
    122c:	80 91 a3 00 	lds	r24, 0x00A3
    1230:	90 91 a4 00 	lds	r25, 0x00A4
    1234:	e0 91 a1 00 	lds	r30, 0x00A1
    1238:	f0 91 a2 00 	lds	r31, 0x00A2
    123c:	03 96       	adiw	r24, 0x03	; 3
    123e:	09 95       	icall
    1240:	18 0f       	add	r17, r24
    1242:	80 2f       	mov	r24, r16
    1244:	61 2f       	mov	r22, r17
    1246:	0e 94 43 06 	call	0xc86	; 0xc86 <ks0108GotoXY>
    124a:	02 c0       	rjmp	.+4      	; 0x1250 <ks0108Puts+0x3c>
    124c:	0e 94 e8 07 	call	0xfd0	; 0xfd0 <ks0108PutChar>
    1250:	21 96       	adiw	r28, 0x01	; 1
    1252:	88 81       	ld	r24, Y
    1254:	88 23       	and	r24, r24
    1256:	31 f7       	brne	.-52     	; 0x1224 <ks0108Puts+0x10>
    1258:	df 91       	pop	r29
    125a:	cf 91       	pop	r28
    125c:	1f 91       	pop	r17
    125e:	0f 91       	pop	r16
    1260:	08 95       	ret

00001262 <ks0108SetDot>:
    1262:	0f 93       	push	r16
    1264:	1f 93       	push	r17
    1266:	16 2f       	mov	r17, r22
    1268:	04 2f       	mov	r16, r20
    126a:	68 7f       	andi	r22, 0xF8	; 248
    126c:	0e 94 43 06 	call	0xc86	; 0xc86 <ks0108GotoXY>
    1270:	0e 94 b7 06 	call	0xd6e	; 0xd6e <ks0108ReadData>
    1274:	48 2f       	mov	r20, r24
    1276:	21 2f       	mov	r18, r17
    1278:	30 e0       	ldi	r19, 0x00	; 0
    127a:	0f 3f       	cpi	r16, 0xFF	; 255
    127c:	59 f4       	brne	.+22     	; 0x1294 <ks0108SetDot+0x32>
    127e:	27 70       	andi	r18, 0x07	; 7
    1280:	30 70       	andi	r19, 0x00	; 0
    1282:	81 e0       	ldi	r24, 0x01	; 1
    1284:	90 e0       	ldi	r25, 0x00	; 0
    1286:	02 c0       	rjmp	.+4      	; 0x128c <ks0108SetDot+0x2a>
    1288:	88 0f       	add	r24, r24
    128a:	99 1f       	adc	r25, r25
    128c:	2a 95       	dec	r18
    128e:	e2 f7       	brpl	.-8      	; 0x1288 <ks0108SetDot+0x26>
    1290:	84 2b       	or	r24, r20
    1292:	0b c0       	rjmp	.+22     	; 0x12aa <ks0108SetDot+0x48>
    1294:	27 70       	andi	r18, 0x07	; 7
    1296:	30 70       	andi	r19, 0x00	; 0
    1298:	81 e0       	ldi	r24, 0x01	; 1
    129a:	90 e0       	ldi	r25, 0x00	; 0
    129c:	02 c0       	rjmp	.+4      	; 0x12a2 <ks0108SetDot+0x40>
    129e:	88 0f       	add	r24, r24
    12a0:	99 1f       	adc	r25, r25
    12a2:	2a 95       	dec	r18
    12a4:	e2 f7       	brpl	.-8      	; 0x129e <ks0108SetDot+0x3c>
    12a6:	80 95       	com	r24
    12a8:	84 23       	and	r24, r20
    12aa:	0e 94 c3 06 	call	0xd86	; 0xd86 <ks0108WriteData>
    12ae:	1f 91       	pop	r17
    12b0:	0f 91       	pop	r16
    12b2:	08 95       	ret

000012b4 <ks0108InvertRect>:
    12b4:	af 92       	push	r10
    12b6:	bf 92       	push	r11
    12b8:	cf 92       	push	r12
    12ba:	df 92       	push	r13
    12bc:	ef 92       	push	r14
    12be:	ff 92       	push	r15
    12c0:	0f 93       	push	r16
    12c2:	1f 93       	push	r17
    12c4:	cf 93       	push	r28
    12c6:	df 93       	push	r29
    12c8:	b8 2e       	mov	r11, r24
    12ca:	a4 2e       	mov	r10, r20
    12cc:	e2 2e       	mov	r14, r18
    12ce:	e3 94       	inc	r14
    12d0:	46 2f       	mov	r20, r22
    12d2:	47 70       	andi	r20, 0x07	; 7
    12d4:	f6 2e       	mov	r15, r22
    12d6:	f4 1a       	sub	r15, r20
    12d8:	ce 2d       	mov	r28, r14
    12da:	d0 e0       	ldi	r29, 0x00	; 0
    12dc:	64 2f       	mov	r22, r20
    12de:	70 e0       	ldi	r23, 0x00	; 0
    12e0:	28 e0       	ldi	r18, 0x08	; 8
    12e2:	30 e0       	ldi	r19, 0x00	; 0
    12e4:	c9 01       	movw	r24, r18
    12e6:	86 1b       	sub	r24, r22
    12e8:	97 0b       	sbc	r25, r23
    12ea:	c8 17       	cp	r28, r24
    12ec:	d9 07       	cpc	r29, r25
    12ee:	5c f4       	brge	.+22     	; 0x1306 <ks0108InvertRect+0x52>
    12f0:	2c 1b       	sub	r18, r28
    12f2:	3d 0b       	sbc	r19, r29
    12f4:	8f ef       	ldi	r24, 0xFF	; 255
    12f6:	90 e0       	ldi	r25, 0x00	; 0
    12f8:	02 c0       	rjmp	.+4      	; 0x12fe <ks0108InvertRect+0x4a>
    12fa:	95 95       	asr	r25
    12fc:	87 95       	ror	r24
    12fe:	2a 95       	dec	r18
    1300:	e2 f7       	brpl	.-8      	; 0x12fa <ks0108InvertRect+0x46>
    1302:	0e 2d       	mov	r16, r14
    1304:	03 c0       	rjmp	.+6      	; 0x130c <ks0108InvertRect+0x58>
    1306:	08 e0       	ldi	r16, 0x08	; 8
    1308:	04 1b       	sub	r16, r20
    130a:	8f ef       	ldi	r24, 0xFF	; 255
    130c:	90 e0       	ldi	r25, 0x00	; 0
    130e:	02 c0       	rjmp	.+4      	; 0x1314 <ks0108InvertRect+0x60>
    1310:	88 0f       	add	r24, r24
    1312:	99 1f       	adc	r25, r25
    1314:	6a 95       	dec	r22
    1316:	e2 f7       	brpl	.-8      	; 0x1310 <ks0108InvertRect+0x5c>
    1318:	d8 2e       	mov	r13, r24
    131a:	8b 2d       	mov	r24, r11
    131c:	6f 2d       	mov	r22, r15
    131e:	0e 94 43 06 	call	0xc86	; 0xc86 <ks0108GotoXY>
    1322:	10 e0       	ldi	r17, 0x00	; 0
    1324:	cd 2c       	mov	r12, r13
    1326:	c0 94       	com	r12
    1328:	0e 94 b7 06 	call	0xd6e	; 0xd6e <ks0108ReadData>
    132c:	98 2f       	mov	r25, r24
    132e:	8c 2d       	mov	r24, r12
    1330:	89 23       	and	r24, r25
    1332:	90 95       	com	r25
    1334:	9d 21       	and	r25, r13
    1336:	89 2b       	or	r24, r25
    1338:	0e 94 c3 06 	call	0xd86	; 0xd86 <ks0108WriteData>
    133c:	1f 5f       	subi	r17, 0xFF	; 255
    133e:	a1 16       	cp	r10, r17
    1340:	98 f7       	brcc	.-26     	; 0x1328 <ks0108InvertRect+0x74>
    1342:	10 c0       	rjmp	.+32     	; 0x1364 <ks0108InvertRect+0xb0>
    1344:	88 e0       	ldi	r24, 0x08	; 8
    1346:	f8 0e       	add	r15, r24
    1348:	8b 2d       	mov	r24, r11
    134a:	6f 2d       	mov	r22, r15
    134c:	0e 94 43 06 	call	0xc86	; 0xc86 <ks0108GotoXY>
    1350:	10 e0       	ldi	r17, 0x00	; 0
    1352:	0e 94 b7 06 	call	0xd6e	; 0xd6e <ks0108ReadData>
    1356:	80 95       	com	r24
    1358:	0e 94 c3 06 	call	0xd86	; 0xd86 <ks0108WriteData>
    135c:	1f 5f       	subi	r17, 0xFF	; 255
    135e:	a1 16       	cp	r10, r17
    1360:	c0 f7       	brcc	.-16     	; 0x1352 <ks0108InvertRect+0x9e>
    1362:	08 5f       	subi	r16, 0xF8	; 248
    1364:	20 2f       	mov	r18, r16
    1366:	30 e0       	ldi	r19, 0x00	; 0
    1368:	c9 01       	movw	r24, r18
    136a:	07 96       	adiw	r24, 0x07	; 7
    136c:	8c 17       	cp	r24, r28
    136e:	9d 07       	cpc	r25, r29
    1370:	4c f3       	brlt	.-46     	; 0x1344 <ks0108InvertRect+0x90>
    1372:	0e 15       	cp	r16, r14
    1374:	08 f5       	brcc	.+66     	; 0x13b8 <ks0108InvertRect+0x104>
    1376:	c2 1b       	sub	r28, r18
    1378:	d3 0b       	sbc	r29, r19
    137a:	8f ef       	ldi	r24, 0xFF	; 255
    137c:	90 e0       	ldi	r25, 0x00	; 0
    137e:	02 c0       	rjmp	.+4      	; 0x1384 <ks0108InvertRect+0xd0>
    1380:	88 0f       	add	r24, r24
    1382:	99 1f       	adc	r25, r25
    1384:	ca 95       	dec	r28
    1386:	e2 f7       	brpl	.-8      	; 0x1380 <ks0108InvertRect+0xcc>
    1388:	e8 2e       	mov	r14, r24
    138a:	e0 94       	com	r14
    138c:	88 e0       	ldi	r24, 0x08	; 8
    138e:	f8 0e       	add	r15, r24
    1390:	8b 2d       	mov	r24, r11
    1392:	6f 2d       	mov	r22, r15
    1394:	0e 94 43 06 	call	0xc86	; 0xc86 <ks0108GotoXY>
    1398:	10 e0       	ldi	r17, 0x00	; 0
    139a:	0e 2d       	mov	r16, r14
    139c:	00 95       	com	r16
    139e:	0e 94 b7 06 	call	0xd6e	; 0xd6e <ks0108ReadData>
    13a2:	98 2f       	mov	r25, r24
    13a4:	80 2f       	mov	r24, r16
    13a6:	89 23       	and	r24, r25
    13a8:	90 95       	com	r25
    13aa:	9e 21       	and	r25, r14
    13ac:	89 2b       	or	r24, r25
    13ae:	0e 94 c3 06 	call	0xd86	; 0xd86 <ks0108WriteData>
    13b2:	1f 5f       	subi	r17, 0xFF	; 255
    13b4:	a1 16       	cp	r10, r17
    13b6:	98 f7       	brcc	.-26     	; 0x139e <ks0108InvertRect+0xea>
    13b8:	df 91       	pop	r29
    13ba:	cf 91       	pop	r28
    13bc:	1f 91       	pop	r17
    13be:	0f 91       	pop	r16
    13c0:	ff 90       	pop	r15
    13c2:	ef 90       	pop	r14
    13c4:	df 90       	pop	r13
    13c6:	cf 90       	pop	r12
    13c8:	bf 90       	pop	r11
    13ca:	af 90       	pop	r10
    13cc:	08 95       	ret

000013ce <ks0108SetInverted>:
    13ce:	1f 93       	push	r17
    13d0:	18 2f       	mov	r17, r24
    13d2:	80 91 98 00 	lds	r24, 0x0098
    13d6:	81 17       	cp	r24, r17
    13d8:	41 f0       	breq	.+16     	; 0x13ea <ks0108SetInverted+0x1c>
    13da:	80 e0       	ldi	r24, 0x00	; 0
    13dc:	60 e0       	ldi	r22, 0x00	; 0
    13de:	4f e7       	ldi	r20, 0x7F	; 127
    13e0:	2f e3       	ldi	r18, 0x3F	; 63
    13e2:	0e 94 5a 09 	call	0x12b4	; 0x12b4 <ks0108InvertRect>
    13e6:	10 93 98 00 	sts	0x0098, r17
    13ea:	1f 91       	pop	r17
    13ec:	08 95       	ret

000013ee <ks0108FillRect>:
    13ee:	9f 92       	push	r9
    13f0:	af 92       	push	r10
    13f2:	bf 92       	push	r11
    13f4:	cf 92       	push	r12
    13f6:	df 92       	push	r13
    13f8:	ef 92       	push	r14
    13fa:	ff 92       	push	r15
    13fc:	0f 93       	push	r16
    13fe:	1f 93       	push	r17
    1400:	cf 93       	push	r28
    1402:	df 93       	push	r29
    1404:	b8 2e       	mov	r11, r24
    1406:	94 2e       	mov	r9, r20
    1408:	e2 2e       	mov	r14, r18
    140a:	a0 2e       	mov	r10, r16
    140c:	e3 94       	inc	r14
    140e:	46 2f       	mov	r20, r22
    1410:	47 70       	andi	r20, 0x07	; 7
    1412:	f6 2e       	mov	r15, r22
    1414:	f4 1a       	sub	r15, r20
    1416:	ce 2d       	mov	r28, r14
    1418:	d0 e0       	ldi	r29, 0x00	; 0
    141a:	64 2f       	mov	r22, r20
    141c:	70 e0       	ldi	r23, 0x00	; 0
    141e:	28 e0       	ldi	r18, 0x08	; 8
    1420:	30 e0       	ldi	r19, 0x00	; 0
    1422:	c9 01       	movw	r24, r18
    1424:	86 1b       	sub	r24, r22
    1426:	97 0b       	sbc	r25, r23
    1428:	c8 17       	cp	r28, r24
    142a:	d9 07       	cpc	r29, r25
    142c:	5c f4       	brge	.+22     	; 0x1444 <ks0108FillRect+0x56>
    142e:	2c 1b       	sub	r18, r28
    1430:	3d 0b       	sbc	r19, r29
    1432:	8f ef       	ldi	r24, 0xFF	; 255
    1434:	90 e0       	ldi	r25, 0x00	; 0
    1436:	02 c0       	rjmp	.+4      	; 0x143c <ks0108FillRect+0x4e>
    1438:	95 95       	asr	r25
    143a:	87 95       	ror	r24
    143c:	2a 95       	dec	r18
    143e:	e2 f7       	brpl	.-8      	; 0x1438 <ks0108FillRect+0x4a>
    1440:	0e 2d       	mov	r16, r14
    1442:	03 c0       	rjmp	.+6      	; 0x144a <ks0108FillRect+0x5c>
    1444:	08 e0       	ldi	r16, 0x08	; 8
    1446:	04 1b       	sub	r16, r20
    1448:	8f ef       	ldi	r24, 0xFF	; 255
    144a:	90 e0       	ldi	r25, 0x00	; 0
    144c:	02 c0       	rjmp	.+4      	; 0x1452 <ks0108FillRect+0x64>
    144e:	88 0f       	add	r24, r24
    1450:	99 1f       	adc	r25, r25
    1452:	6a 95       	dec	r22
    1454:	e2 f7       	brpl	.-8      	; 0x144e <ks0108FillRect+0x60>
    1456:	d8 2e       	mov	r13, r24
    1458:	8b 2d       	mov	r24, r11
    145a:	6f 2d       	mov	r22, r15
    145c:	0e 94 43 06 	call	0xc86	; 0xc86 <ks0108GotoXY>
    1460:	10 e0       	ldi	r17, 0x00	; 0
    1462:	cd 2c       	mov	r12, r13
    1464:	c0 94       	com	r12
    1466:	0e 94 b7 06 	call	0xd6e	; 0xd6e <ks0108ReadData>
    146a:	9f ef       	ldi	r25, 0xFF	; 255
    146c:	a9 16       	cp	r10, r25
    146e:	11 f4       	brne	.+4      	; 0x1474 <ks0108FillRect+0x86>
    1470:	8d 29       	or	r24, r13
    1472:	01 c0       	rjmp	.+2      	; 0x1476 <ks0108FillRect+0x88>
    1474:	8c 21       	and	r24, r12
    1476:	0e 94 c3 06 	call	0xd86	; 0xd86 <ks0108WriteData>
    147a:	1f 5f       	subi	r17, 0xFF	; 255
    147c:	91 16       	cp	r9, r17
    147e:	98 f7       	brcc	.-26     	; 0x1466 <ks0108FillRect+0x78>
    1480:	0e c0       	rjmp	.+28     	; 0x149e <ks0108FillRect+0xb0>
    1482:	88 e0       	ldi	r24, 0x08	; 8
    1484:	f8 0e       	add	r15, r24
    1486:	8b 2d       	mov	r24, r11
    1488:	6f 2d       	mov	r22, r15
    148a:	0e 94 43 06 	call	0xc86	; 0xc86 <ks0108GotoXY>
    148e:	10 e0       	ldi	r17, 0x00	; 0
    1490:	8a 2d       	mov	r24, r10
    1492:	0e 94 c3 06 	call	0xd86	; 0xd86 <ks0108WriteData>
    1496:	1f 5f       	subi	r17, 0xFF	; 255
    1498:	91 16       	cp	r9, r17
    149a:	d0 f7       	brcc	.-12     	; 0x1490 <ks0108FillRect+0xa2>
    149c:	08 5f       	subi	r16, 0xF8	; 248
    149e:	20 2f       	mov	r18, r16
    14a0:	30 e0       	ldi	r19, 0x00	; 0
    14a2:	c9 01       	movw	r24, r18
    14a4:	07 96       	adiw	r24, 0x07	; 7
    14a6:	8c 17       	cp	r24, r28
    14a8:	9d 07       	cpc	r25, r29
    14aa:	5c f3       	brlt	.-42     	; 0x1482 <ks0108FillRect+0x94>
    14ac:	0e 15       	cp	r16, r14
    14ae:	08 f5       	brcc	.+66     	; 0x14f2 <ks0108FillRect+0x104>
    14b0:	c2 1b       	sub	r28, r18
    14b2:	d3 0b       	sbc	r29, r19
    14b4:	8f ef       	ldi	r24, 0xFF	; 255
    14b6:	90 e0       	ldi	r25, 0x00	; 0
    14b8:	02 c0       	rjmp	.+4      	; 0x14be <ks0108FillRect+0xd0>
    14ba:	88 0f       	add	r24, r24
    14bc:	99 1f       	adc	r25, r25
    14be:	ca 95       	dec	r28
    14c0:	e2 f7       	brpl	.-8      	; 0x14ba <ks0108FillRect+0xcc>
    14c2:	e8 2e       	mov	r14, r24
    14c4:	e0 94       	com	r14
    14c6:	98 e0       	ldi	r25, 0x08	; 8
    14c8:	f9 0e       	add	r15, r25
    14ca:	8b 2d       	mov	r24, r11
    14cc:	6f 2d       	mov	r22, r15
    14ce:	0e 94 43 06 	call	0xc86	; 0xc86 <ks0108GotoXY>
    14d2:	10 e0       	ldi	r17, 0x00	; 0
    14d4:	fe 2c       	mov	r15, r14
    14d6:	f0 94       	com	r15
    14d8:	0e 94 b7 06 	call	0xd6e	; 0xd6e <ks0108ReadData>
    14dc:	9f ef       	ldi	r25, 0xFF	; 255
    14de:	a9 16       	cp	r10, r25
    14e0:	11 f4       	brne	.+4      	; 0x14e6 <ks0108FillRect+0xf8>
    14e2:	8e 29       	or	r24, r14
    14e4:	01 c0       	rjmp	.+2      	; 0x14e8 <ks0108FillRect+0xfa>
    14e6:	8f 21       	and	r24, r15
    14e8:	0e 94 c3 06 	call	0xd86	; 0xd86 <ks0108WriteData>
    14ec:	1f 5f       	subi	r17, 0xFF	; 255
    14ee:	91 16       	cp	r9, r17
    14f0:	98 f7       	brcc	.-26     	; 0x14d8 <ks0108FillRect+0xea>
    14f2:	df 91       	pop	r29
    14f4:	cf 91       	pop	r28
    14f6:	1f 91       	pop	r17
    14f8:	0f 91       	pop	r16
    14fa:	ff 90       	pop	r15
    14fc:	ef 90       	pop	r14
    14fe:	df 90       	pop	r13
    1500:	cf 90       	pop	r12
    1502:	bf 90       	pop	r11
    1504:	af 90       	pop	r10
    1506:	9f 90       	pop	r9
    1508:	08 95       	ret

0000150a <ks0108Init>:
    150a:	0f 93       	push	r16
    150c:	df 93       	push	r29
    150e:	cf 93       	push	r28
    1510:	00 d0       	rcall	.+0      	; 0x1512 <ks0108Init+0x8>
    1512:	cd b7       	in	r28, 0x3d	; 61
    1514:	de b7       	in	r29, 0x3e	; 62
    1516:	28 2f       	mov	r18, r24
    1518:	1a 82       	std	Y+2, r1	; 0x02
    151a:	19 82       	std	Y+1, r1	; 0x01
    151c:	1a 82       	std	Y+2, r1	; 0x02
    151e:	19 82       	std	Y+1, r1	; 0x01
    1520:	05 c0       	rjmp	.+10     	; 0x152c <ks0108Init+0x22>
    1522:	89 81       	ldd	r24, Y+1	; 0x01
    1524:	9a 81       	ldd	r25, Y+2	; 0x02
    1526:	01 96       	adiw	r24, 0x01	; 1
    1528:	9a 83       	std	Y+2, r25	; 0x02
    152a:	89 83       	std	Y+1, r24	; 0x01
    152c:	89 81       	ldd	r24, Y+1	; 0x01
    152e:	9a 81       	ldd	r25, Y+2	; 0x02
    1530:	88 59       	subi	r24, 0x98	; 152
    1532:	9a 43       	sbci	r25, 0x3A	; 58
    1534:	b0 f3       	brcs	.-20     	; 0x1522 <ks0108Init+0x18>
    1536:	10 92 9e 00 	sts	0x009E, r1
    153a:	10 92 9f 00 	sts	0x009F, r1
    153e:	10 92 a0 00 	sts	0x00A0, r1
    1542:	20 93 98 00 	sts	0x0098, r18
    1546:	8f ef       	ldi	r24, 0xFF	; 255
    1548:	84 bb       	out	0x14, r24	; 20
    154a:	8f e3       	ldi	r24, 0x3F	; 63
    154c:	60 e0       	ldi	r22, 0x00	; 0
    154e:	0e 94 04 06 	call	0xc08	; 0xc08 <ks0108WriteCommand>
    1552:	8f e3       	ldi	r24, 0x3F	; 63
    1554:	61 e0       	ldi	r22, 0x01	; 1
    1556:	0e 94 04 06 	call	0xc08	; 0xc08 <ks0108WriteCommand>
    155a:	80 ec       	ldi	r24, 0xC0	; 192
    155c:	60 e0       	ldi	r22, 0x00	; 0
    155e:	0e 94 04 06 	call	0xc08	; 0xc08 <ks0108WriteCommand>
    1562:	80 ec       	ldi	r24, 0xC0	; 192
    1564:	61 e0       	ldi	r22, 0x01	; 1
    1566:	0e 94 04 06 	call	0xc08	; 0xc08 <ks0108WriteCommand>
    156a:	80 e0       	ldi	r24, 0x00	; 0
    156c:	60 e0       	ldi	r22, 0x00	; 0
    156e:	4f e7       	ldi	r20, 0x7F	; 127
    1570:	2f e3       	ldi	r18, 0x3F	; 63
    1572:	00 e0       	ldi	r16, 0x00	; 0
    1574:	0e 94 f7 09 	call	0x13ee	; 0x13ee <ks0108FillRect>
    1578:	80 e0       	ldi	r24, 0x00	; 0
    157a:	60 e0       	ldi	r22, 0x00	; 0
    157c:	0e 94 43 06 	call	0xc86	; 0xc86 <ks0108GotoXY>
    1580:	0f 90       	pop	r0
    1582:	0f 90       	pop	r0
    1584:	cf 91       	pop	r28
    1586:	df 91       	pop	r29
    1588:	0f 91       	pop	r16
    158a:	08 95       	ret

0000158c <ks0108DrawRoundRect>:
    158c:	2f 92       	push	r2
    158e:	3f 92       	push	r3
    1590:	4f 92       	push	r4
    1592:	5f 92       	push	r5
    1594:	6f 92       	push	r6
    1596:	7f 92       	push	r7
    1598:	8f 92       	push	r8
    159a:	9f 92       	push	r9
    159c:	af 92       	push	r10
    159e:	bf 92       	push	r11
    15a0:	cf 92       	push	r12
    15a2:	df 92       	push	r13
    15a4:	ef 92       	push	r14
    15a6:	ff 92       	push	r15
    15a8:	0f 93       	push	r16
    15aa:	1f 93       	push	r17
    15ac:	df 93       	push	r29
    15ae:	cf 93       	push	r28
    15b0:	cd b7       	in	r28, 0x3d	; 61
    15b2:	de b7       	in	r29, 0x3e	; 62
    15b4:	2c 97       	sbiw	r28, 0x0c	; 12
    15b6:	0f b6       	in	r0, 0x3f	; 63
    15b8:	f8 94       	cli
    15ba:	de bf       	out	0x3e, r29	; 62
    15bc:	0f be       	out	0x3f, r0	; 63
    15be:	cd bf       	out	0x3d, r28	; 61
    15c0:	8f 83       	std	Y+7, r24	; 0x07
    15c2:	68 87       	std	Y+8, r22	; 0x08
    15c4:	49 87       	std	Y+9, r20	; 0x09
    15c6:	2a 87       	std	Y+10, r18	; 0x0a
    15c8:	c0 2e       	mov	r12, r16
    15ca:	dd 24       	eor	r13, r13
    15cc:	c6 01       	movw	r24, r12
    15ce:	88 0f       	add	r24, r24
    15d0:	99 1f       	adc	r25, r25
    15d2:	22 27       	eor	r18, r18
    15d4:	33 27       	eor	r19, r19
    15d6:	28 1b       	sub	r18, r24
    15d8:	39 0b       	sbc	r19, r25
    15da:	3e 83       	std	Y+6, r19	; 0x06
    15dc:	2d 83       	std	Y+5, r18	; 0x05
    15de:	2d 5f       	subi	r18, 0xFD	; 253
    15e0:	3f 4f       	sbci	r19, 0xFF	; 255
    15e2:	3c 87       	std	Y+12, r19	; 0x0c
    15e4:	2b 87       	std	Y+11, r18	; 0x0b
    15e6:	3f 80       	ldd	r3, Y+7	; 0x07
    15e8:	30 0e       	add	r3, r16
    15ea:	26 2e       	mov	r2, r22
    15ec:	20 0e       	add	r2, r16
    15ee:	34 2f       	mov	r19, r20
    15f0:	8f 81       	ldd	r24, Y+7	; 0x07
    15f2:	38 0f       	add	r19, r24
    15f4:	3b 83       	std	Y+3, r19	; 0x03
    15f6:	30 1b       	sub	r19, r16
    15f8:	3c 83       	std	Y+4, r19	; 0x04
    15fa:	9a 85       	ldd	r25, Y+10	; 0x0a
    15fc:	96 0f       	add	r25, r22
    15fe:	99 83       	std	Y+1, r25	; 0x01
    1600:	90 1b       	sub	r25, r16
    1602:	9a 83       	std	Y+2, r25	; 0x02
    1604:	43 2c       	mov	r4, r3
    1606:	52 2c       	mov	r5, r2
    1608:	63 2e       	mov	r6, r19
    160a:	79 2e       	mov	r7, r25
    160c:	aa 24       	eor	r10, r10
    160e:	bb 24       	eor	r11, r11
    1610:	88 24       	eor	r8, r8
    1612:	99 24       	eor	r9, r9
    1614:	1c 2d       	mov	r17, r12
    1616:	02 2d       	mov	r16, r2
    1618:	0c 19       	sub	r16, r12
    161a:	84 2d       	mov	r24, r4
    161c:	60 2f       	mov	r22, r16
    161e:	4e 2d       	mov	r20, r14
    1620:	0e 94 31 09 	call	0x1262	; 0x1262 <ks0108SetDot>
    1624:	f3 2c       	mov	r15, r3
    1626:	fc 18       	sub	r15, r12
    1628:	8f 2d       	mov	r24, r15
    162a:	65 2d       	mov	r22, r5
    162c:	4e 2d       	mov	r20, r14
    162e:	0e 94 31 09 	call	0x1262	; 0x1262 <ks0108SetDot>
    1632:	86 2d       	mov	r24, r6
    1634:	60 2f       	mov	r22, r16
    1636:	4e 2d       	mov	r20, r14
    1638:	0e 94 31 09 	call	0x1262	; 0x1262 <ks0108SetDot>
    163c:	0c 81       	ldd	r16, Y+4	; 0x04
    163e:	0c 0d       	add	r16, r12
    1640:	80 2f       	mov	r24, r16
    1642:	65 2d       	mov	r22, r5
    1644:	4e 2d       	mov	r20, r14
    1646:	0e 94 31 09 	call	0x1262	; 0x1262 <ks0108SetDot>
    164a:	fa 81       	ldd	r31, Y+2	; 0x02
    164c:	1f 0f       	add	r17, r31
    164e:	86 2d       	mov	r24, r6
    1650:	61 2f       	mov	r22, r17
    1652:	4e 2d       	mov	r20, r14
    1654:	0e 94 31 09 	call	0x1262	; 0x1262 <ks0108SetDot>
    1658:	80 2f       	mov	r24, r16
    165a:	67 2d       	mov	r22, r7
    165c:	4e 2d       	mov	r20, r14
    165e:	0e 94 31 09 	call	0x1262	; 0x1262 <ks0108SetDot>
    1662:	84 2d       	mov	r24, r4
    1664:	61 2f       	mov	r22, r17
    1666:	4e 2d       	mov	r20, r14
    1668:	0e 94 31 09 	call	0x1262	; 0x1262 <ks0108SetDot>
    166c:	8f 2d       	mov	r24, r15
    166e:	67 2d       	mov	r22, r7
    1670:	4e 2d       	mov	r20, r14
    1672:	0e 94 31 09 	call	0x1262	; 0x1262 <ks0108SetDot>
    1676:	2b 85       	ldd	r18, Y+11	; 0x0b
    1678:	3c 85       	ldd	r19, Y+12	; 0x0c
    167a:	37 ff       	sbrs	r19, 7
    167c:	07 c0       	rjmp	.+14     	; 0x168c <ks0108DrawRoundRect+0x100>
    167e:	2a 5f       	subi	r18, 0xFA	; 250
    1680:	3f 4f       	sbci	r19, 0xFF	; 255
    1682:	28 0d       	add	r18, r8
    1684:	39 1d       	adc	r19, r9
    1686:	3c 87       	std	Y+12, r19	; 0x0c
    1688:	2b 87       	std	Y+11, r18	; 0x0b
    168a:	15 c0       	rjmp	.+42     	; 0x16b6 <ks0108DrawRoundRect+0x12a>
    168c:	8b 85       	ldd	r24, Y+11	; 0x0b
    168e:	9c 85       	ldd	r25, Y+12	; 0x0c
    1690:	0a 96       	adiw	r24, 0x0a	; 10
    1692:	9c 87       	std	Y+12, r25	; 0x0c
    1694:	8b 87       	std	Y+11, r24	; 0x0b
    1696:	c5 01       	movw	r24, r10
    1698:	8c 19       	sub	r24, r12
    169a:	9d 09       	sbc	r25, r13
    169c:	88 0f       	add	r24, r24
    169e:	99 1f       	adc	r25, r25
    16a0:	88 0f       	add	r24, r24
    16a2:	99 1f       	adc	r25, r25
    16a4:	eb 85       	ldd	r30, Y+11	; 0x0b
    16a6:	fc 85       	ldd	r31, Y+12	; 0x0c
    16a8:	e8 0f       	add	r30, r24
    16aa:	f9 1f       	adc	r31, r25
    16ac:	fc 87       	std	Y+12, r31	; 0x0c
    16ae:	eb 87       	std	Y+11, r30	; 0x0b
    16b0:	08 94       	sec
    16b2:	c1 08       	sbc	r12, r1
    16b4:	d1 08       	sbc	r13, r1
    16b6:	08 94       	sec
    16b8:	a1 1c       	adc	r10, r1
    16ba:	b1 1c       	adc	r11, r1
    16bc:	4a 94       	dec	r4
    16be:	5a 94       	dec	r5
    16c0:	63 94       	inc	r6
    16c2:	73 94       	inc	r7
    16c4:	24 e0       	ldi	r18, 0x04	; 4
    16c6:	30 e0       	ldi	r19, 0x00	; 0
    16c8:	82 0e       	add	r8, r18
    16ca:	93 1e       	adc	r9, r19
    16cc:	ca 14       	cp	r12, r10
    16ce:	db 04       	cpc	r13, r11
    16d0:	0c f0       	brlt	.+2      	; 0x16d4 <ks0108DrawRoundRect+0x148>
    16d2:	a0 cf       	rjmp	.-192    	; 0x1614 <ks0108DrawRoundRect+0x88>
    16d4:	1d 81       	ldd	r17, Y+5	; 0x05
    16d6:	f9 84       	ldd	r15, Y+9	; 0x09
    16d8:	f1 0e       	add	r15, r17
    16da:	83 2d       	mov	r24, r3
    16dc:	68 85       	ldd	r22, Y+8	; 0x08
    16de:	4f 2d       	mov	r20, r15
    16e0:	20 e0       	ldi	r18, 0x00	; 0
    16e2:	0e 2d       	mov	r16, r14
    16e4:	0e 94 f7 09 	call	0x13ee	; 0x13ee <ks0108FillRect>
    16e8:	83 2d       	mov	r24, r3
    16ea:	69 81       	ldd	r22, Y+1	; 0x01
    16ec:	4f 2d       	mov	r20, r15
    16ee:	20 e0       	ldi	r18, 0x00	; 0
    16f0:	0e 94 f7 09 	call	0x13ee	; 0x13ee <ks0108FillRect>
    16f4:	3a 85       	ldd	r19, Y+10	; 0x0a
    16f6:	13 0f       	add	r17, r19
    16f8:	8f 81       	ldd	r24, Y+7	; 0x07
    16fa:	62 2d       	mov	r22, r2
    16fc:	40 e0       	ldi	r20, 0x00	; 0
    16fe:	21 2f       	mov	r18, r17
    1700:	0e 94 f7 09 	call	0x13ee	; 0x13ee <ks0108FillRect>
    1704:	8b 81       	ldd	r24, Y+3	; 0x03
    1706:	62 2d       	mov	r22, r2
    1708:	40 e0       	ldi	r20, 0x00	; 0
    170a:	21 2f       	mov	r18, r17
    170c:	0e 94 f7 09 	call	0x13ee	; 0x13ee <ks0108FillRect>
    1710:	2c 96       	adiw	r28, 0x0c	; 12
    1712:	0f b6       	in	r0, 0x3f	; 63
    1714:	f8 94       	cli
    1716:	de bf       	out	0x3e, r29	; 62
    1718:	0f be       	out	0x3f, r0	; 63
    171a:	cd bf       	out	0x3d, r28	; 61
    171c:	cf 91       	pop	r28
    171e:	df 91       	pop	r29
    1720:	1f 91       	pop	r17
    1722:	0f 91       	pop	r16
    1724:	ff 90       	pop	r15
    1726:	ef 90       	pop	r14
    1728:	df 90       	pop	r13
    172a:	cf 90       	pop	r12
    172c:	bf 90       	pop	r11
    172e:	af 90       	pop	r10
    1730:	9f 90       	pop	r9
    1732:	8f 90       	pop	r8
    1734:	7f 90       	pop	r7
    1736:	6f 90       	pop	r6
    1738:	5f 90       	pop	r5
    173a:	4f 90       	pop	r4
    173c:	3f 90       	pop	r3
    173e:	2f 90       	pop	r2
    1740:	08 95       	ret

00001742 <ks0108DrawRect>:
    1742:	cf 92       	push	r12
    1744:	df 92       	push	r13
    1746:	ef 92       	push	r14
    1748:	ff 92       	push	r15
    174a:	0f 93       	push	r16
    174c:	1f 93       	push	r17
    174e:	18 2f       	mov	r17, r24
    1750:	f6 2e       	mov	r15, r22
    1752:	d4 2e       	mov	r13, r20
    1754:	c2 2e       	mov	r12, r18
    1756:	20 e0       	ldi	r18, 0x00	; 0
    1758:	0e 94 f7 09 	call	0x13ee	; 0x13ee <ks0108FillRect>
    175c:	6c 2d       	mov	r22, r12
    175e:	6f 0d       	add	r22, r15
    1760:	81 2f       	mov	r24, r17
    1762:	4d 2d       	mov	r20, r13
    1764:	20 e0       	ldi	r18, 0x00	; 0
    1766:	0e 94 f7 09 	call	0x13ee	; 0x13ee <ks0108FillRect>
    176a:	81 2f       	mov	r24, r17
    176c:	6f 2d       	mov	r22, r15
    176e:	40 e0       	ldi	r20, 0x00	; 0
    1770:	2c 2d       	mov	r18, r12
    1772:	0e 94 f7 09 	call	0x13ee	; 0x13ee <ks0108FillRect>
    1776:	8d 2d       	mov	r24, r13
    1778:	81 0f       	add	r24, r17
    177a:	6f 2d       	mov	r22, r15
    177c:	40 e0       	ldi	r20, 0x00	; 0
    177e:	2c 2d       	mov	r18, r12
    1780:	0e 94 f7 09 	call	0x13ee	; 0x13ee <ks0108FillRect>
    1784:	1f 91       	pop	r17
    1786:	0f 91       	pop	r16
    1788:	ff 90       	pop	r15
    178a:	ef 90       	pop	r14
    178c:	df 90       	pop	r13
    178e:	cf 90       	pop	r12
    1790:	08 95       	ret

00001792 <ks0108DrawLine>:
    1792:	4f 92       	push	r4
    1794:	5f 92       	push	r5
    1796:	6f 92       	push	r6
    1798:	7f 92       	push	r7
    179a:	8f 92       	push	r8
    179c:	9f 92       	push	r9
    179e:	af 92       	push	r10
    17a0:	bf 92       	push	r11
    17a2:	cf 92       	push	r12
    17a4:	df 92       	push	r13
    17a6:	ef 92       	push	r14
    17a8:	ff 92       	push	r15
    17aa:	0f 93       	push	r16
    17ac:	1f 93       	push	r17
    17ae:	cf 93       	push	r28
    17b0:	df 93       	push	r29
    17b2:	d8 2e       	mov	r13, r24
    17b4:	c6 2e       	mov	r12, r22
    17b6:	f4 2e       	mov	r15, r20
    17b8:	e2 2e       	mov	r14, r18
    17ba:	50 2e       	mov	r5, r16
    17bc:	84 17       	cp	r24, r20
    17be:	51 f4       	brne	.+20     	; 0x17d4 <ks0108DrawLine+0x42>
    17c0:	26 17       	cp	r18, r22
    17c2:	10 f4       	brcc	.+4      	; 0x17c8 <ks0108DrawLine+0x36>
    17c4:	e6 2e       	mov	r14, r22
    17c6:	c2 2e       	mov	r12, r18
    17c8:	ec 18       	sub	r14, r12
    17ca:	8d 2d       	mov	r24, r13
    17cc:	6c 2d       	mov	r22, r12
    17ce:	40 e0       	ldi	r20, 0x00	; 0
    17d0:	2e 2d       	mov	r18, r14
    17d2:	0b c0       	rjmp	.+22     	; 0x17ea <ks0108DrawLine+0x58>
    17d4:	62 17       	cp	r22, r18
    17d6:	69 f4       	brne	.+26     	; 0x17f2 <ks0108DrawLine+0x60>
    17d8:	48 17       	cp	r20, r24
    17da:	10 f4       	brcc	.+4      	; 0x17e0 <ks0108DrawLine+0x4e>
    17dc:	fd 2c       	mov	r15, r13
    17de:	d4 2e       	mov	r13, r20
    17e0:	fd 18       	sub	r15, r13
    17e2:	8d 2d       	mov	r24, r13
    17e4:	6c 2d       	mov	r22, r12
    17e6:	4f 2d       	mov	r20, r15
    17e8:	20 e0       	ldi	r18, 0x00	; 0
    17ea:	05 2d       	mov	r16, r5
    17ec:	0e 94 f7 09 	call	0x13ee	; 0x13ee <ks0108FillRect>
    17f0:	d6 c0       	rjmp	.+428    	; 0x199e <ks0108DrawLine+0x20c>
    17f2:	62 2f       	mov	r22, r18
    17f4:	70 e0       	ldi	r23, 0x00	; 0
    17f6:	4c 2d       	mov	r20, r12
    17f8:	50 e0       	ldi	r21, 0x00	; 0
    17fa:	2f 2d       	mov	r18, r15
    17fc:	30 e0       	ldi	r19, 0x00	; 0
    17fe:	28 1b       	sub	r18, r24
    1800:	31 09       	sbc	r19, r1
    1802:	cb 01       	movw	r24, r22
    1804:	84 1b       	sub	r24, r20
    1806:	95 0b       	sbc	r25, r21
    1808:	82 17       	cp	r24, r18
    180a:	93 07       	cpc	r25, r19
    180c:	34 f4       	brge	.+12     	; 0x181a <ks0108DrawLine+0x88>
    180e:	46 1b       	sub	r20, r22
    1810:	57 0b       	sbc	r21, r23
    1812:	42 17       	cp	r20, r18
    1814:	53 07       	cpc	r21, r19
    1816:	0c f4       	brge	.+2      	; 0x181a <ks0108DrawLine+0x88>
    1818:	62 c0       	rjmp	.+196    	; 0x18de <ks0108DrawLine+0x14c>
    181a:	fd 14       	cp	r15, r13
    181c:	30 f4       	brcc	.+12     	; 0x182a <ks0108DrawLine+0x98>
    181e:	8f 2d       	mov	r24, r15
    1820:	fd 2c       	mov	r15, r13
    1822:	d8 2e       	mov	r13, r24
    1824:	8e 2d       	mov	r24, r14
    1826:	ec 2c       	mov	r14, r12
    1828:	c8 2e       	mov	r12, r24
    182a:	4f 2c       	mov	r4, r15
    182c:	4d 18       	sub	r4, r13
    182e:	ee 2d       	mov	r30, r14
    1830:	f0 e0       	ldi	r31, 0x00	; 0
    1832:	2c 2d       	mov	r18, r12
    1834:	30 e0       	ldi	r19, 0x00	; 0
    1836:	4f 01       	movw	r8, r30
    1838:	82 1a       	sub	r8, r18
    183a:	93 0a       	sbc	r9, r19
    183c:	a4 2c       	mov	r10, r4
    183e:	bb 24       	eor	r11, r11
    1840:	88 ec       	ldi	r24, 0xC8	; 200
    1842:	90 e0       	ldi	r25, 0x00	; 0
    1844:	ac 01       	movw	r20, r24
    1846:	84 9e       	mul	r8, r20
    1848:	c0 01       	movw	r24, r0
    184a:	85 9e       	mul	r8, r21
    184c:	90 0d       	add	r25, r0
    184e:	94 9e       	mul	r9, r20
    1850:	90 0d       	add	r25, r0
    1852:	11 24       	eor	r1, r1
    1854:	b5 01       	movw	r22, r10
    1856:	0e 94 8a 0e 	call	0x1d14	; 0x1d14 <__divmodhi4>
    185a:	eb 01       	movw	r28, r22
    185c:	0c 2d       	mov	r16, r12
    185e:	ff 24       	eor	r15, r15
    1860:	39 01       	movw	r6, r18
    1862:	6e 1a       	sub	r6, r30
    1864:	7f 0a       	sbc	r7, r31
    1866:	8f 2d       	mov	r24, r15
    1868:	90 e0       	ldi	r25, 0x00	; 0
    186a:	8c 9f       	mul	r24, r28
    186c:	90 01       	movw	r18, r0
    186e:	8d 9f       	mul	r24, r29
    1870:	30 0d       	add	r19, r0
    1872:	9c 9f       	mul	r25, r28
    1874:	30 0d       	add	r19, r0
    1876:	11 24       	eor	r1, r1
    1878:	c9 01       	movw	r24, r18
    187a:	68 ec       	ldi	r22, 0xC8	; 200
    187c:	70 e0       	ldi	r23, 0x00	; 0
    187e:	0e 94 8a 0e 	call	0x1d14	; 0x1d14 <__divmodhi4>
    1882:	16 2f       	mov	r17, r22
    1884:	1c 0d       	add	r17, r12
    1886:	c9 01       	movw	r24, r18
    1888:	68 ec       	ldi	r22, 0xC8	; 200
    188a:	70 e0       	ldi	r23, 0x00	; 0
    188c:	0e 94 8a 0e 	call	0x1d14	; 0x1d14 <__divmodhi4>
    1890:	84 36       	cpi	r24, 0x64	; 100
    1892:	91 05       	cpc	r25, r1
    1894:	14 f0       	brlt	.+4      	; 0x189a <ks0108DrawLine+0x108>
    1896:	1f 5f       	subi	r17, 0xFF	; 255
    1898:	05 c0       	rjmp	.+10     	; 0x18a4 <ks0108DrawLine+0x112>
    189a:	5f ef       	ldi	r21, 0xFF	; 255
    189c:	8d 39       	cpi	r24, 0x9D	; 157
    189e:	95 07       	cpc	r25, r21
    18a0:	0c f4       	brge	.+2      	; 0x18a4 <ks0108DrawLine+0x112>
    18a2:	11 50       	subi	r17, 0x01	; 1
    18a4:	4f 2d       	mov	r20, r15
    18a6:	4d 0d       	add	r20, r13
    18a8:	84 2f       	mov	r24, r20
    18aa:	60 2f       	mov	r22, r16
    18ac:	21 2f       	mov	r18, r17
    18ae:	05 2d       	mov	r16, r5
    18b0:	0e 94 c9 0b 	call	0x1792	; 0x1792 <ks0108DrawLine>
    18b4:	8a 14       	cp	r8, r10
    18b6:	9b 04       	cpc	r9, r11
    18b8:	2c f0       	brlt	.+10     	; 0x18c4 <ks0108DrawLine+0x132>
    18ba:	ce 14       	cp	r12, r14
    18bc:	18 f4       	brcc	.+6      	; 0x18c4 <ks0108DrawLine+0x132>
    18be:	01 2f       	mov	r16, r17
    18c0:	0f 5f       	subi	r16, 0xFF	; 255
    18c2:	09 c0       	rjmp	.+18     	; 0x18d6 <ks0108DrawLine+0x144>
    18c4:	6a 14       	cp	r6, r10
    18c6:	7b 04       	cpc	r7, r11
    18c8:	2c f0       	brlt	.+10     	; 0x18d4 <ks0108DrawLine+0x142>
    18ca:	ec 14       	cp	r14, r12
    18cc:	18 f4       	brcc	.+6      	; 0x18d4 <ks0108DrawLine+0x142>
    18ce:	01 2f       	mov	r16, r17
    18d0:	01 50       	subi	r16, 0x01	; 1
    18d2:	01 c0       	rjmp	.+2      	; 0x18d6 <ks0108DrawLine+0x144>
    18d4:	01 2f       	mov	r16, r17
    18d6:	f3 94       	inc	r15
    18d8:	4f 14       	cp	r4, r15
    18da:	28 f6       	brcc	.-118    	; 0x1866 <ks0108DrawLine+0xd4>
    18dc:	60 c0       	rjmp	.+192    	; 0x199e <ks0108DrawLine+0x20c>
    18de:	ec 14       	cp	r14, r12
    18e0:	28 f4       	brcc	.+10     	; 0x18ec <ks0108DrawLine+0x15a>
    18e2:	8f 2d       	mov	r24, r15
    18e4:	fd 2c       	mov	r15, r13
    18e6:	d8 2e       	mov	r13, r24
    18e8:	ec 2c       	mov	r14, r12
    18ea:	c6 2e       	mov	r12, r22
    18ec:	4e 2c       	mov	r4, r14
    18ee:	4c 18       	sub	r4, r12
    18f0:	ef 2d       	mov	r30, r15
    18f2:	f0 e0       	ldi	r31, 0x00	; 0
    18f4:	2d 2d       	mov	r18, r13
    18f6:	30 e0       	ldi	r19, 0x00	; 0
    18f8:	4f 01       	movw	r8, r30
    18fa:	82 1a       	sub	r8, r18
    18fc:	93 0a       	sbc	r9, r19
    18fe:	a4 2c       	mov	r10, r4
    1900:	bb 24       	eor	r11, r11
    1902:	88 ec       	ldi	r24, 0xC8	; 200
    1904:	90 e0       	ldi	r25, 0x00	; 0
    1906:	ac 01       	movw	r20, r24
    1908:	84 9e       	mul	r8, r20
    190a:	c0 01       	movw	r24, r0
    190c:	85 9e       	mul	r8, r21
    190e:	90 0d       	add	r25, r0
    1910:	94 9e       	mul	r9, r20
    1912:	90 0d       	add	r25, r0
    1914:	11 24       	eor	r1, r1
    1916:	b5 01       	movw	r22, r10
    1918:	0e 94 8a 0e 	call	0x1d14	; 0x1d14 <__divmodhi4>
    191c:	eb 01       	movw	r28, r22
    191e:	4d 2d       	mov	r20, r13
    1920:	ee 24       	eor	r14, r14
    1922:	39 01       	movw	r6, r18
    1924:	6e 1a       	sub	r6, r30
    1926:	7f 0a       	sbc	r7, r31
    1928:	8e 2d       	mov	r24, r14
    192a:	90 e0       	ldi	r25, 0x00	; 0
    192c:	8c 9f       	mul	r24, r28
    192e:	90 01       	movw	r18, r0
    1930:	8d 9f       	mul	r24, r29
    1932:	30 0d       	add	r19, r0
    1934:	9c 9f       	mul	r25, r28
    1936:	30 0d       	add	r19, r0
    1938:	11 24       	eor	r1, r1
    193a:	c9 01       	movw	r24, r18
    193c:	68 ec       	ldi	r22, 0xC8	; 200
    193e:	70 e0       	ldi	r23, 0x00	; 0
    1940:	0e 94 8a 0e 	call	0x1d14	; 0x1d14 <__divmodhi4>
    1944:	16 2f       	mov	r17, r22
    1946:	1d 0d       	add	r17, r13
    1948:	c9 01       	movw	r24, r18
    194a:	68 ec       	ldi	r22, 0xC8	; 200
    194c:	70 e0       	ldi	r23, 0x00	; 0
    194e:	0e 94 8a 0e 	call	0x1d14	; 0x1d14 <__divmodhi4>
    1952:	84 36       	cpi	r24, 0x64	; 100
    1954:	91 05       	cpc	r25, r1
    1956:	14 f0       	brlt	.+4      	; 0x195c <ks0108DrawLine+0x1ca>
    1958:	1f 5f       	subi	r17, 0xFF	; 255
    195a:	05 c0       	rjmp	.+10     	; 0x1966 <ks0108DrawLine+0x1d4>
    195c:	5f ef       	ldi	r21, 0xFF	; 255
    195e:	8d 39       	cpi	r24, 0x9D	; 157
    1960:	95 07       	cpc	r25, r21
    1962:	0c f4       	brge	.+2      	; 0x1966 <ks0108DrawLine+0x1d4>
    1964:	11 50       	subi	r17, 0x01	; 1
    1966:	2e 2d       	mov	r18, r14
    1968:	2c 0d       	add	r18, r12
    196a:	84 2f       	mov	r24, r20
    196c:	62 2f       	mov	r22, r18
    196e:	41 2f       	mov	r20, r17
    1970:	05 2d       	mov	r16, r5
    1972:	0e 94 c9 0b 	call	0x1792	; 0x1792 <ks0108DrawLine>
    1976:	8a 14       	cp	r8, r10
    1978:	9b 04       	cpc	r9, r11
    197a:	2c f0       	brlt	.+10     	; 0x1986 <ks0108DrawLine+0x1f4>
    197c:	df 14       	cp	r13, r15
    197e:	18 f4       	brcc	.+6      	; 0x1986 <ks0108DrawLine+0x1f4>
    1980:	41 2f       	mov	r20, r17
    1982:	4f 5f       	subi	r20, 0xFF	; 255
    1984:	09 c0       	rjmp	.+18     	; 0x1998 <ks0108DrawLine+0x206>
    1986:	6a 14       	cp	r6, r10
    1988:	7b 04       	cpc	r7, r11
    198a:	2c f0       	brlt	.+10     	; 0x1996 <ks0108DrawLine+0x204>
    198c:	fd 14       	cp	r15, r13
    198e:	18 f4       	brcc	.+6      	; 0x1996 <ks0108DrawLine+0x204>
    1990:	41 2f       	mov	r20, r17
    1992:	41 50       	subi	r20, 0x01	; 1
    1994:	01 c0       	rjmp	.+2      	; 0x1998 <ks0108DrawLine+0x206>
    1996:	41 2f       	mov	r20, r17
    1998:	e3 94       	inc	r14
    199a:	4e 14       	cp	r4, r14
    199c:	28 f6       	brcc	.-118    	; 0x1928 <ks0108DrawLine+0x196>
    199e:	df 91       	pop	r29
    19a0:	cf 91       	pop	r28
    19a2:	1f 91       	pop	r17
    19a4:	0f 91       	pop	r16
    19a6:	ff 90       	pop	r15
    19a8:	ef 90       	pop	r14
    19aa:	df 90       	pop	r13
    19ac:	cf 90       	pop	r12
    19ae:	bf 90       	pop	r11
    19b0:	af 90       	pop	r10
    19b2:	9f 90       	pop	r9
    19b4:	8f 90       	pop	r8
    19b6:	7f 90       	pop	r7
    19b8:	6f 90       	pop	r6
    19ba:	5f 90       	pop	r5
    19bc:	4f 90       	pop	r4
    19be:	08 95       	ret

000019c0 <init_kb>:
    19c0:	8b ea       	ldi	r24, 0xAB	; 171
    19c2:	90 e0       	ldi	r25, 0x00	; 0
    19c4:	90 93 a6 00 	sts	0x00A6, r25
    19c8:	80 93 a5 00 	sts	0x00A5, r24
    19cc:	90 93 a9 00 	sts	0x00A9, r25
    19d0:	80 93 a8 00 	sts	0x00A8, r24
    19d4:	10 92 bb 00 	sts	0x00BB, r1
    19d8:	8b b7       	in	r24, 0x3b	; 59
    19da:	80 64       	ori	r24, 0x40	; 64
    19dc:	8b bf       	out	0x3b, r24	; 59
    19de:	85 b7       	in	r24, 0x35	; 53
    19e0:	82 60       	ori	r24, 0x02	; 2
    19e2:	85 bf       	out	0x35, r24	; 53
    19e4:	10 92 aa 00 	sts	0x00AA, r1
    19e8:	8b e0       	ldi	r24, 0x0B	; 11
    19ea:	80 93 a7 00 	sts	0x00A7, r24
    19ee:	82 b3       	in	r24, 0x12	; 18
    19f0:	84 61       	ori	r24, 0x14	; 20
    19f2:	82 bb       	out	0x12, r24	; 18
    19f4:	08 95       	ret

000019f6 <decode>:
    19f6:	98 2f       	mov	r25, r24
    19f8:	80 91 9b 00 	lds	r24, 0x009B
    19fc:	88 23       	and	r24, r24
    19fe:	09 f0       	breq	.+2      	; 0x1a02 <decode+0xc>
    1a00:	5a c0       	rjmp	.+180    	; 0x1ab6 <decode+0xc0>
    1a02:	92 31       	cpi	r25, 0x12	; 18
    1a04:	69 f0       	breq	.+26     	; 0x1a20 <decode+0x2a>
    1a06:	93 31       	cpi	r25, 0x13	; 19
    1a08:	18 f4       	brcc	.+6      	; 0x1a10 <decode+0x1a>
    1a0a:	95 30       	cpi	r25, 0x05	; 5
    1a0c:	e9 f4       	brne	.+58     	; 0x1a48 <decode+0x52>
    1a0e:	0c c0       	rjmp	.+24     	; 0x1a28 <decode+0x32>
    1a10:	99 35       	cpi	r25, 0x59	; 89
    1a12:	31 f0       	breq	.+12     	; 0x1a20 <decode+0x2a>
    1a14:	90 3f       	cpi	r25, 0xF0	; 240
    1a16:	c1 f4       	brne	.+48     	; 0x1a48 <decode+0x52>
    1a18:	81 e0       	ldi	r24, 0x01	; 1
    1a1a:	80 93 9b 00 	sts	0x009B, r24
    1a1e:	08 95       	ret
    1a20:	81 e0       	ldi	r24, 0x01	; 1
    1a22:	80 93 9a 00 	sts	0x009A, r24
    1a26:	08 95       	ret
    1a28:	80 91 99 00 	lds	r24, 0x0099
    1a2c:	88 23       	and	r24, r24
    1a2e:	19 f4       	brne	.+6      	; 0x1a36 <decode+0x40>
    1a30:	81 e0       	ldi	r24, 0x01	; 1
    1a32:	80 93 99 00 	sts	0x0099, r24
    1a36:	80 91 99 00 	lds	r24, 0x0099
    1a3a:	82 30       	cpi	r24, 0x02	; 2
    1a3c:	09 f0       	breq	.+2      	; 0x1a40 <decode+0x4a>
    1a3e:	54 c0       	rjmp	.+168    	; 0x1ae8 <decode+0xf2>
    1a40:	83 e0       	ldi	r24, 0x03	; 3
    1a42:	80 93 99 00 	sts	0x0099, r24
    1a46:	08 95       	ret
    1a48:	80 91 99 00 	lds	r24, 0x0099
    1a4c:	88 23       	and	r24, r24
    1a4e:	11 f0       	breq	.+4      	; 0x1a54 <decode+0x5e>
    1a50:	83 30       	cpi	r24, 0x03	; 3
    1a52:	79 f4       	brne	.+30     	; 0x1a72 <decode+0x7c>
    1a54:	97 fd       	sbrc	r25, 7
    1a56:	48 c0       	rjmp	.+144    	; 0x1ae8 <decode+0xf2>
    1a58:	80 91 9a 00 	lds	r24, 0x009A
    1a5c:	e9 2f       	mov	r30, r25
    1a5e:	f0 e0       	ldi	r31, 0x00	; 0
    1a60:	88 23       	and	r24, r24
    1a62:	21 f4       	brne	.+8      	; 0x1a6c <decode+0x76>
    1a64:	ef 58       	subi	r30, 0x8F	; 143
    1a66:	fd 4f       	sbci	r31, 0xFD	; 253
    1a68:	94 91       	lpm	r25, Z+
    1a6a:	03 c0       	rjmp	.+6      	; 0x1a72 <decode+0x7c>
    1a6c:	ef 50       	subi	r30, 0x0F	; 15
    1a6e:	fd 4f       	sbci	r31, 0xFD	; 253
    1a70:	94 91       	lpm	r25, Z+
    1a72:	80 91 bb 00 	lds	r24, 0x00BB
    1a76:	80 31       	cpi	r24, 0x10	; 16
    1a78:	b8 f5       	brcc	.+110    	; 0x1ae8 <decode+0xf2>
    1a7a:	e0 91 a5 00 	lds	r30, 0x00A5
    1a7e:	f0 91 a6 00 	lds	r31, 0x00A6
    1a82:	90 83       	st	Z, r25
    1a84:	20 91 a5 00 	lds	r18, 0x00A5
    1a88:	30 91 a6 00 	lds	r19, 0x00A6
    1a8c:	2f 5f       	subi	r18, 0xFF	; 255
    1a8e:	3f 4f       	sbci	r19, 0xFF	; 255
    1a90:	30 93 a6 00 	sts	0x00A6, r19
    1a94:	20 93 a5 00 	sts	0x00A5, r18
    1a98:	80 91 bb 00 	lds	r24, 0x00BB
    1a9c:	8f 5f       	subi	r24, 0xFF	; 255
    1a9e:	80 93 bb 00 	sts	0x00BB, r24
    1aa2:	2b 5b       	subi	r18, 0xBB	; 187
    1aa4:	30 40       	sbci	r19, 0x00	; 0
    1aa6:	00 f1       	brcs	.+64     	; 0x1ae8 <decode+0xf2>
    1aa8:	8b ea       	ldi	r24, 0xAB	; 171
    1aaa:	90 e0       	ldi	r25, 0x00	; 0
    1aac:	90 93 a6 00 	sts	0x00A6, r25
    1ab0:	80 93 a5 00 	sts	0x00A5, r24
    1ab4:	08 95       	ret
    1ab6:	10 92 9b 00 	sts	0x009B, r1
    1aba:	92 31       	cpi	r25, 0x12	; 18
    1abc:	29 f0       	breq	.+10     	; 0x1ac8 <decode+0xd2>
    1abe:	99 35       	cpi	r25, 0x59	; 89
    1ac0:	19 f0       	breq	.+6      	; 0x1ac8 <decode+0xd2>
    1ac2:	95 30       	cpi	r25, 0x05	; 5
    1ac4:	89 f4       	brne	.+34     	; 0x1ae8 <decode+0xf2>
    1ac6:	03 c0       	rjmp	.+6      	; 0x1ace <decode+0xd8>
    1ac8:	10 92 9a 00 	sts	0x009A, r1
    1acc:	08 95       	ret
    1ace:	80 91 99 00 	lds	r24, 0x0099
    1ad2:	81 30       	cpi	r24, 0x01	; 1
    1ad4:	19 f4       	brne	.+6      	; 0x1adc <decode+0xe6>
    1ad6:	82 e0       	ldi	r24, 0x02	; 2
    1ad8:	80 93 99 00 	sts	0x0099, r24
    1adc:	80 91 99 00 	lds	r24, 0x0099
    1ae0:	83 30       	cpi	r24, 0x03	; 3
    1ae2:	11 f4       	brne	.+4      	; 0x1ae8 <decode+0xf2>
    1ae4:	10 92 99 00 	sts	0x0099, r1
    1ae8:	08 95       	ret

00001aea <__vector_1>:
    1aea:	1f 92       	push	r1
    1aec:	0f 92       	push	r0
    1aee:	0f b6       	in	r0, 0x3f	; 63
    1af0:	0f 92       	push	r0
    1af2:	11 24       	eor	r1, r1
    1af4:	2f 93       	push	r18
    1af6:	3f 93       	push	r19
    1af8:	4f 93       	push	r20
    1afa:	5f 93       	push	r21
    1afc:	6f 93       	push	r22
    1afe:	7f 93       	push	r23
    1b00:	8f 93       	push	r24
    1b02:	9f 93       	push	r25
    1b04:	af 93       	push	r26
    1b06:	bf 93       	push	r27
    1b08:	ef 93       	push	r30
    1b0a:	ff 93       	push	r31
    1b0c:	80 91 aa 00 	lds	r24, 0x00AA
    1b10:	88 23       	and	r24, r24
    1b12:	e1 f4       	brne	.+56     	; 0x1b4c <__vector_1+0x62>
    1b14:	80 91 a7 00 	lds	r24, 0x00A7
    1b18:	8b 30       	cpi	r24, 0x0B	; 11
    1b1a:	70 f4       	brcc	.+28     	; 0x1b38 <__vector_1+0x4e>
    1b1c:	80 91 a7 00 	lds	r24, 0x00A7
    1b20:	83 30       	cpi	r24, 0x03	; 3
    1b22:	50 f0       	brcs	.+20     	; 0x1b38 <__vector_1+0x4e>
    1b24:	80 91 9c 00 	lds	r24, 0x009C
    1b28:	86 95       	lsr	r24
    1b2a:	80 93 9c 00 	sts	0x009C, r24
    1b2e:	84 9b       	sbis	0x10, 4	; 16
    1b30:	03 c0       	rjmp	.+6      	; 0x1b38 <__vector_1+0x4e>
    1b32:	80 68       	ori	r24, 0x80	; 128
    1b34:	80 93 9c 00 	sts	0x009C, r24
    1b38:	85 b7       	in	r24, 0x35	; 53
    1b3a:	82 60       	ori	r24, 0x02	; 2
    1b3c:	85 bf       	out	0x35, r24	; 53
    1b3e:	85 b7       	in	r24, 0x35	; 53
    1b40:	81 60       	ori	r24, 0x01	; 1
    1b42:	85 bf       	out	0x35, r24	; 53
    1b44:	81 e0       	ldi	r24, 0x01	; 1
    1b46:	80 93 aa 00 	sts	0x00AA, r24
    1b4a:	18 c0       	rjmp	.+48     	; 0x1b7c <__vector_1+0x92>
    1b4c:	85 b7       	in	r24, 0x35	; 53
    1b4e:	8e 7f       	andi	r24, 0xFE	; 254
    1b50:	85 bf       	out	0x35, r24	; 53
    1b52:	85 b7       	in	r24, 0x35	; 53
    1b54:	82 60       	ori	r24, 0x02	; 2
    1b56:	85 bf       	out	0x35, r24	; 53
    1b58:	10 92 aa 00 	sts	0x00AA, r1
    1b5c:	80 91 a7 00 	lds	r24, 0x00A7
    1b60:	81 50       	subi	r24, 0x01	; 1
    1b62:	80 93 a7 00 	sts	0x00A7, r24
    1b66:	80 91 a7 00 	lds	r24, 0x00A7
    1b6a:	88 23       	and	r24, r24
    1b6c:	39 f4       	brne	.+14     	; 0x1b7c <__vector_1+0x92>
    1b6e:	80 91 9c 00 	lds	r24, 0x009C
    1b72:	0e 94 fb 0c 	call	0x19f6	; 0x19f6 <decode>
    1b76:	8b e0       	ldi	r24, 0x0B	; 11
    1b78:	80 93 a7 00 	sts	0x00A7, r24
    1b7c:	ff 91       	pop	r31
    1b7e:	ef 91       	pop	r30
    1b80:	bf 91       	pop	r27
    1b82:	af 91       	pop	r26
    1b84:	9f 91       	pop	r25
    1b86:	8f 91       	pop	r24
    1b88:	7f 91       	pop	r23
    1b8a:	6f 91       	pop	r22
    1b8c:	5f 91       	pop	r21
    1b8e:	4f 91       	pop	r20
    1b90:	3f 91       	pop	r19
    1b92:	2f 91       	pop	r18
    1b94:	0f 90       	pop	r0
    1b96:	0f be       	out	0x3f, r0	; 63
    1b98:	0f 90       	pop	r0
    1b9a:	1f 90       	pop	r1
    1b9c:	18 95       	reti

00001b9e <put_kbbuff>:
    1b9e:	98 2f       	mov	r25, r24
    1ba0:	80 91 bb 00 	lds	r24, 0x00BB
    1ba4:	80 31       	cpi	r24, 0x10	; 16
    1ba6:	e8 f4       	brcc	.+58     	; 0x1be2 <put_kbbuff+0x44>
    1ba8:	e0 91 a5 00 	lds	r30, 0x00A5
    1bac:	f0 91 a6 00 	lds	r31, 0x00A6
    1bb0:	90 83       	st	Z, r25
    1bb2:	20 91 a5 00 	lds	r18, 0x00A5
    1bb6:	30 91 a6 00 	lds	r19, 0x00A6
    1bba:	2f 5f       	subi	r18, 0xFF	; 255
    1bbc:	3f 4f       	sbci	r19, 0xFF	; 255
    1bbe:	30 93 a6 00 	sts	0x00A6, r19
    1bc2:	20 93 a5 00 	sts	0x00A5, r18
    1bc6:	80 91 bb 00 	lds	r24, 0x00BB
    1bca:	8f 5f       	subi	r24, 0xFF	; 255
    1bcc:	80 93 bb 00 	sts	0x00BB, r24
    1bd0:	2b 5b       	subi	r18, 0xBB	; 187
    1bd2:	30 40       	sbci	r19, 0x00	; 0
    1bd4:	30 f0       	brcs	.+12     	; 0x1be2 <put_kbbuff+0x44>
    1bd6:	8b ea       	ldi	r24, 0xAB	; 171
    1bd8:	90 e0       	ldi	r25, 0x00	; 0
    1bda:	90 93 a6 00 	sts	0x00A6, r25
    1bde:	80 93 a5 00 	sts	0x00A5, r24
    1be2:	08 95       	ret

00001be4 <getcharkb>:
    1be4:	80 91 bb 00 	lds	r24, 0x00BB
    1be8:	88 23       	and	r24, r24
    1bea:	e1 f3       	breq	.-8      	; 0x1be4 <getcharkb>
    1bec:	e0 91 a8 00 	lds	r30, 0x00A8
    1bf0:	f0 91 a9 00 	lds	r31, 0x00A9
    1bf4:	21 91       	ld	r18, Z+
    1bf6:	f0 93 a9 00 	sts	0x00A9, r31
    1bfa:	e0 93 a8 00 	sts	0x00A8, r30
    1bfe:	eb 5b       	subi	r30, 0xBB	; 187
    1c00:	f0 40       	sbci	r31, 0x00	; 0
    1c02:	30 f0       	brcs	.+12     	; 0x1c10 <getcharkb+0x2c>
    1c04:	8b ea       	ldi	r24, 0xAB	; 171
    1c06:	90 e0       	ldi	r25, 0x00	; 0
    1c08:	90 93 a9 00 	sts	0x00A9, r25
    1c0c:	80 93 a8 00 	sts	0x00A8, r24
    1c10:	80 91 bb 00 	lds	r24, 0x00BB
    1c14:	81 50       	subi	r24, 0x01	; 1
    1c16:	80 93 bb 00 	sts	0x00BB, r24
    1c1a:	82 2f       	mov	r24, r18
    1c1c:	90 e0       	ldi	r25, 0x00	; 0
    1c1e:	08 95       	ret

00001c20 <getcharx>:
    1c20:	80 91 bb 00 	lds	r24, 0x00BB
    1c24:	88 23       	and	r24, r24
    1c26:	11 f4       	brne	.+4      	; 0x1c2c <getcharx+0xc>
    1c28:	20 e0       	ldi	r18, 0x00	; 0
    1c2a:	17 c0       	rjmp	.+46     	; 0x1c5a <getcharx+0x3a>
    1c2c:	e0 91 a8 00 	lds	r30, 0x00A8
    1c30:	f0 91 a9 00 	lds	r31, 0x00A9
    1c34:	21 91       	ld	r18, Z+
    1c36:	f0 93 a9 00 	sts	0x00A9, r31
    1c3a:	e0 93 a8 00 	sts	0x00A8, r30
    1c3e:	eb 5b       	subi	r30, 0xBB	; 187
    1c40:	f0 40       	sbci	r31, 0x00	; 0
    1c42:	30 f0       	brcs	.+12     	; 0x1c50 <getcharx+0x30>
    1c44:	8b ea       	ldi	r24, 0xAB	; 171
    1c46:	90 e0       	ldi	r25, 0x00	; 0
    1c48:	90 93 a9 00 	sts	0x00A9, r25
    1c4c:	80 93 a8 00 	sts	0x00A8, r24
    1c50:	80 91 bb 00 	lds	r24, 0x00BB
    1c54:	81 50       	subi	r24, 0x01	; 1
    1c56:	80 93 bb 00 	sts	0x00BB, r24
    1c5a:	82 2f       	mov	r24, r18
    1c5c:	08 95       	ret

00001c5e <itoa>:
    1c5e:	fb 01       	movw	r30, r22
    1c60:	9f 01       	movw	r18, r30
    1c62:	e8 94       	clt
    1c64:	42 30       	cpi	r20, 0x02	; 2
    1c66:	c4 f0       	brlt	.+48     	; 0x1c98 <itoa+0x3a>
    1c68:	45 32       	cpi	r20, 0x25	; 37
    1c6a:	b4 f4       	brge	.+44     	; 0x1c98 <itoa+0x3a>
    1c6c:	4a 30       	cpi	r20, 0x0A	; 10
    1c6e:	29 f4       	brne	.+10     	; 0x1c7a <itoa+0x1c>
    1c70:	97 fb       	bst	r25, 7
    1c72:	1e f4       	brtc	.+6      	; 0x1c7a <itoa+0x1c>
    1c74:	90 95       	com	r25
    1c76:	81 95       	neg	r24
    1c78:	9f 4f       	sbci	r25, 0xFF	; 255
    1c7a:	64 2f       	mov	r22, r20
    1c7c:	77 27       	eor	r23, r23
    1c7e:	0e 94 76 0e 	call	0x1cec	; 0x1cec <__udivmodhi4>
    1c82:	80 5d       	subi	r24, 0xD0	; 208
    1c84:	8a 33       	cpi	r24, 0x3A	; 58
    1c86:	0c f0       	brlt	.+2      	; 0x1c8a <itoa+0x2c>
    1c88:	89 5d       	subi	r24, 0xD9	; 217
    1c8a:	81 93       	st	Z+, r24
    1c8c:	cb 01       	movw	r24, r22
    1c8e:	00 97       	sbiw	r24, 0x00	; 0
    1c90:	a1 f7       	brne	.-24     	; 0x1c7a <itoa+0x1c>
    1c92:	16 f4       	brtc	.+4      	; 0x1c98 <itoa+0x3a>
    1c94:	5d e2       	ldi	r21, 0x2D	; 45
    1c96:	51 93       	st	Z+, r21
    1c98:	10 82       	st	Z, r1
    1c9a:	c9 01       	movw	r24, r18
    1c9c:	0c 94 66 0e 	jmp	0x1ccc	; 0x1ccc <strrev>

00001ca0 <utoa>:
    1ca0:	fb 01       	movw	r30, r22
    1ca2:	9f 01       	movw	r18, r30
    1ca4:	42 30       	cpi	r20, 0x02	; 2
    1ca6:	74 f0       	brlt	.+28     	; 0x1cc4 <utoa+0x24>
    1ca8:	45 32       	cpi	r20, 0x25	; 37
    1caa:	64 f4       	brge	.+24     	; 0x1cc4 <utoa+0x24>
    1cac:	64 2f       	mov	r22, r20
    1cae:	77 27       	eor	r23, r23
    1cb0:	0e 94 76 0e 	call	0x1cec	; 0x1cec <__udivmodhi4>
    1cb4:	80 5d       	subi	r24, 0xD0	; 208
    1cb6:	8a 33       	cpi	r24, 0x3A	; 58
    1cb8:	0c f0       	brlt	.+2      	; 0x1cbc <utoa+0x1c>
    1cba:	89 5d       	subi	r24, 0xD9	; 217
    1cbc:	81 93       	st	Z+, r24
    1cbe:	cb 01       	movw	r24, r22
    1cc0:	00 97       	sbiw	r24, 0x00	; 0
    1cc2:	a1 f7       	brne	.-24     	; 0x1cac <utoa+0xc>
    1cc4:	10 82       	st	Z, r1
    1cc6:	c9 01       	movw	r24, r18
    1cc8:	0c 94 66 0e 	jmp	0x1ccc	; 0x1ccc <strrev>

00001ccc <strrev>:
    1ccc:	dc 01       	movw	r26, r24
    1cce:	fc 01       	movw	r30, r24
    1cd0:	67 2f       	mov	r22, r23
    1cd2:	71 91       	ld	r23, Z+
    1cd4:	77 23       	and	r23, r23
    1cd6:	e1 f7       	brne	.-8      	; 0x1cd0 <strrev+0x4>
    1cd8:	32 97       	sbiw	r30, 0x02	; 2
    1cda:	04 c0       	rjmp	.+8      	; 0x1ce4 <strrev+0x18>
    1cdc:	7c 91       	ld	r23, X
    1cde:	6d 93       	st	X+, r22
    1ce0:	70 83       	st	Z, r23
    1ce2:	62 91       	ld	r22, -Z
    1ce4:	ae 17       	cp	r26, r30
    1ce6:	bf 07       	cpc	r27, r31
    1ce8:	c8 f3       	brcs	.-14     	; 0x1cdc <strrev+0x10>
    1cea:	08 95       	ret

00001cec <__udivmodhi4>:
    1cec:	aa 1b       	sub	r26, r26
    1cee:	bb 1b       	sub	r27, r27
    1cf0:	51 e1       	ldi	r21, 0x11	; 17
    1cf2:	07 c0       	rjmp	.+14     	; 0x1d02 <__udivmodhi4_ep>

00001cf4 <__udivmodhi4_loop>:
    1cf4:	aa 1f       	adc	r26, r26
    1cf6:	bb 1f       	adc	r27, r27
    1cf8:	a6 17       	cp	r26, r22
    1cfa:	b7 07       	cpc	r27, r23
    1cfc:	10 f0       	brcs	.+4      	; 0x1d02 <__udivmodhi4_ep>
    1cfe:	a6 1b       	sub	r26, r22
    1d00:	b7 0b       	sbc	r27, r23

00001d02 <__udivmodhi4_ep>:
    1d02:	88 1f       	adc	r24, r24
    1d04:	99 1f       	adc	r25, r25
    1d06:	5a 95       	dec	r21
    1d08:	a9 f7       	brne	.-22     	; 0x1cf4 <__udivmodhi4_loop>
    1d0a:	80 95       	com	r24
    1d0c:	90 95       	com	r25
    1d0e:	bc 01       	movw	r22, r24
    1d10:	cd 01       	movw	r24, r26
    1d12:	08 95       	ret

00001d14 <__divmodhi4>:
    1d14:	97 fb       	bst	r25, 7
    1d16:	09 2e       	mov	r0, r25
    1d18:	07 26       	eor	r0, r23
    1d1a:	0a d0       	rcall	.+20     	; 0x1d30 <__divmodhi4_neg1>
    1d1c:	77 fd       	sbrc	r23, 7
    1d1e:	04 d0       	rcall	.+8      	; 0x1d28 <__divmodhi4_neg2>
    1d20:	e5 df       	rcall	.-54     	; 0x1cec <__udivmodhi4>
    1d22:	06 d0       	rcall	.+12     	; 0x1d30 <__divmodhi4_neg1>
    1d24:	00 20       	and	r0, r0
    1d26:	1a f4       	brpl	.+6      	; 0x1d2e <__divmodhi4_exit>

00001d28 <__divmodhi4_neg2>:
    1d28:	70 95       	com	r23
    1d2a:	61 95       	neg	r22
    1d2c:	7f 4f       	sbci	r23, 0xFF	; 255

00001d2e <__divmodhi4_exit>:
    1d2e:	08 95       	ret

00001d30 <__divmodhi4_neg1>:
    1d30:	f6 f7       	brtc	.-4      	; 0x1d2e <__divmodhi4_exit>
    1d32:	90 95       	com	r25
    1d34:	81 95       	neg	r24
    1d36:	9f 4f       	sbci	r25, 0xFF	; 255
    1d38:	08 95       	ret

00001d3a <__divmodsi4>:
    1d3a:	97 fb       	bst	r25, 7
    1d3c:	09 2e       	mov	r0, r25
    1d3e:	05 26       	eor	r0, r21
    1d40:	0e d0       	rcall	.+28     	; 0x1d5e <__divmodsi4_neg1>
    1d42:	57 fd       	sbrc	r21, 7
    1d44:	04 d0       	rcall	.+8      	; 0x1d4e <__divmodsi4_neg2>
    1d46:	14 d0       	rcall	.+40     	; 0x1d70 <__udivmodsi4>
    1d48:	0a d0       	rcall	.+20     	; 0x1d5e <__divmodsi4_neg1>
    1d4a:	00 1c       	adc	r0, r0
    1d4c:	38 f4       	brcc	.+14     	; 0x1d5c <__divmodsi4_exit>

00001d4e <__divmodsi4_neg2>:
    1d4e:	50 95       	com	r21
    1d50:	40 95       	com	r20
    1d52:	30 95       	com	r19
    1d54:	21 95       	neg	r18
    1d56:	3f 4f       	sbci	r19, 0xFF	; 255
    1d58:	4f 4f       	sbci	r20, 0xFF	; 255
    1d5a:	5f 4f       	sbci	r21, 0xFF	; 255

00001d5c <__divmodsi4_exit>:
    1d5c:	08 95       	ret

00001d5e <__divmodsi4_neg1>:
    1d5e:	f6 f7       	brtc	.-4      	; 0x1d5c <__divmodsi4_exit>
    1d60:	90 95       	com	r25
    1d62:	80 95       	com	r24
    1d64:	70 95       	com	r23
    1d66:	61 95       	neg	r22
    1d68:	7f 4f       	sbci	r23, 0xFF	; 255
    1d6a:	8f 4f       	sbci	r24, 0xFF	; 255
    1d6c:	9f 4f       	sbci	r25, 0xFF	; 255
    1d6e:	08 95       	ret

00001d70 <__udivmodsi4>:
    1d70:	a1 e2       	ldi	r26, 0x21	; 33
    1d72:	1a 2e       	mov	r1, r26
    1d74:	aa 1b       	sub	r26, r26
    1d76:	bb 1b       	sub	r27, r27
    1d78:	fd 01       	movw	r30, r26
    1d7a:	0d c0       	rjmp	.+26     	; 0x1d96 <__udivmodsi4_ep>

00001d7c <__udivmodsi4_loop>:
    1d7c:	aa 1f       	adc	r26, r26
    1d7e:	bb 1f       	adc	r27, r27
    1d80:	ee 1f       	adc	r30, r30
    1d82:	ff 1f       	adc	r31, r31
    1d84:	a2 17       	cp	r26, r18
    1d86:	b3 07       	cpc	r27, r19
    1d88:	e4 07       	cpc	r30, r20
    1d8a:	f5 07       	cpc	r31, r21
    1d8c:	20 f0       	brcs	.+8      	; 0x1d96 <__udivmodsi4_ep>
    1d8e:	a2 1b       	sub	r26, r18
    1d90:	b3 0b       	sbc	r27, r19
    1d92:	e4 0b       	sbc	r30, r20
    1d94:	f5 0b       	sbc	r31, r21

00001d96 <__udivmodsi4_ep>:
    1d96:	66 1f       	adc	r22, r22
    1d98:	77 1f       	adc	r23, r23
    1d9a:	88 1f       	adc	r24, r24
    1d9c:	99 1f       	adc	r25, r25
    1d9e:	1a 94       	dec	r1
    1da0:	69 f7       	brne	.-38     	; 0x1d7c <__udivmodsi4_loop>
    1da2:	60 95       	com	r22
    1da4:	70 95       	com	r23
    1da6:	80 95       	com	r24
    1da8:	90 95       	com	r25
    1daa:	9b 01       	movw	r18, r22
    1dac:	ac 01       	movw	r20, r24
    1dae:	bd 01       	movw	r22, r26
    1db0:	cf 01       	movw	r24, r30
    1db2:	08 95       	ret

00001db4 <_exit>:
    1db4:	f8 94       	cli

00001db6 <__stop_program>:
    1db6:	ff cf       	rjmp	.-2      	; 0x1db6 <__stop_program>
