Archive member included because of file (symbol)

../../AvrX2.6f/avrx/avrx.a(avrx_tasking.o)
                              main.o (IntProlog)
../../AvrX2.6f/avrx/avrx.a(avrx_semaphores.o)
                              xcan.o (AvrXWaitSemaphore)
../../AvrX2.6f/avrx/avrx.a(avrx_resetsemaphore.o)
                              xcan.o (AvrXResetSemaphore)
../../AvrX2.6f/avrx/avrx.a(avrx_timequeue.o)
                              keys.o (AvrXDelay)
../../AvrX2.6f/avrx/avrx.a(avrx_eeprom.o)
                              main.o (EEPromMutex)
../../AvrX2.6f/avrx/avrx.a(avrx_message.o)
                              ../../AvrX2.6f/avrx/avrx.a(avrx_timequeue.o) (AvrXIntSendMessage)
/usr/lib/gcc/avr/3.4.6/avr5/libgcc.a(_copy_data.o)
                              main.o (__do_copy_data)
/usr/lib/gcc/avr/3.4.6/avr5/libgcc.a(_clear_bss.o)
                              main.o (__do_clear_bss)
/usr/lib/gcc/avr/3.4.6/../../../../avr/lib/avr5/libc.a(ee_rb.1C1D1E.o)
                              xlap.o (__eeprom_read_byte_1C1D1E)

Allocating common symbols
Common symbol       size              file

_TimerQueue         0x2               ../../AvrX2.6f/avrx/avrx.a(avrx_timequeue.o)
_TimQLevel          0x1               ../../AvrX2.6f/avrx/avrx.a(avrx_timequeue.o)
pos                 0x2               menu.o
keysPid             0x6               keys.o
AvrXKernelData      0x7               ../../AvrX2.6f/avrx/avrx.a(avrx_tasking.o)
rx_msg              0xd               xcan.o
laptaskStk          0x5a              xlap.o
menuPid             0x6               menu.o
switchtimer         0x6               keys.o
myaddr              0x1               xlap.o
menuStk             0x87              menu.o
EEPromMutex         0x2               ../../AvrX2.6f/avrx/avrx.a(avrx_eeprom.o)
laptaskPid          0x6               xlap.o
fonts               0x9               text.o
keysStk             0x37              keys.o

Memory Configuration

Name             Origin             Length             Attributes
text             0x00000000         0x00020000         xr
data             0x00800060         0x0000ffa0         rw !x
eeprom           0x00810000         0x00010000         rw !x
*default*        0x00000000         0xffffffff

Linker script and memory map

LOAD /usr/lib/gcc/avr/3.4.6/../../../../avr/lib/avr5/crtm32.o
LOAD main.o
LOAD xcan.o
LOAD spi.o
LOAD keys.o
LOAD xlap.o
LOAD text.o
LOAD font_small6.o
LOAD grafiklcd.o
LOAD s1d1565.o
LOAD menu.o
LOAD ../../AvrX2.6f/avrx/avrx.a
LOAD /usr/lib/gcc/avr/3.4.6/../../../../avr/lib/avr5/libm.a
LOAD /usr/lib/gcc/avr/3.4.6/avr5/libgcc.a
LOAD /usr/lib/gcc/avr/3.4.6/../../../../avr/lib/avr5/libc.a
LOAD /usr/lib/gcc/avr/3.4.6/avr5/libgcc.a

.hash
 *(.hash)

.dynsym
 *(.dynsym)

.dynstr
 *(.dynstr)

.gnu.version
 *(.gnu.version)

.gnu.version_d
 *(.gnu.version_d)

.gnu.version_r
 *(.gnu.version_r)

.rel.init
 *(.rel.init)

.rela.init
 *(.rela.init)

.rel.text
 *(.rel.text)
 *(.rel.text.*)
 *(.rel.gnu.linkonce.t*)

.rela.text
 *(.rela.text)
 *(.rela.text.*)
 *(.rela.gnu.linkonce.t*)

.rel.fini
 *(.rel.fini)

.rela.fini
 *(.rela.fini)

.rel.rodata
 *(.rel.rodata)
 *(.rel.rodata.*)
 *(.rel.gnu.linkonce.r*)

.rela.rodata
 *(.rela.rodata)
 *(.rela.rodata.*)
 *(.rela.gnu.linkonce.r*)

.rel.data
 *(.rel.data)
 *(.rel.data.*)
 *(.rel.gnu.linkonce.d*)

.rela.data
 *(.rela.data)
 *(.rela.data.*)
 *(.rela.gnu.linkonce.d*)

.rel.ctors
 *(.rel.ctors)

.rela.ctors
 *(.rela.ctors)

.rel.dtors
 *(.rel.dtors)

.rela.dtors
 *(.rela.dtors)

.rel.got
 *(.rel.got)

.rela.got
 *(.rela.got)

.rel.bss
 *(.rel.bss)

.rela.bss
 *(.rela.bss)

.rel.plt
 *(.rel.plt)

.rela.plt
 *(.rela.plt)

.text           0x00000000     0x1646
 *(.vectors)
 .vectors       0x00000000       0x54 /usr/lib/gcc/avr/3.4.6/../../../../avr/lib/avr5/crtm32.o
                0x00000000                __vectors
                0x00000000                __vector_default
                0x00000054                __ctors_start = .
 *(.ctors)
                0x00000054                __ctors_end = .
                0x00000054                __dtors_start = .
 *(.dtors)
                0x00000054                __dtors_end = .
 *(.progmem.gcc*)
 *(.progmem*)
 .progmem.data  0x00000054        0x7 keys.o
                0x00000054                keysTcb
 .progmem.data  0x0000005b        0x7 xlap.o
                0x0000005b                laptaskTcb
 .progmem.data  0x00000062      0x212 font_small6.o
                0x00000062                fontData_small6
                0x000001ac                fontIndex_small6
 .progmem.data  0x00000274        0x7 menu.o
                0x00000274                menuTcb
                0x0000027c                . = ALIGN (0x2)
 *fill*         0x0000027b        0x1 00
 *(.init0)
 *(.init1)
 *(.init2)
 .init2         0x0000027c        0xc /usr/lib/gcc/avr/3.4.6/../../../../avr/lib/avr5/crtm32.o
 *(.init3)
 *(.init4)
 .init4         0x00000288       0x16 /usr/lib/gcc/avr/3.4.6/avr5/libgcc.a(_copy_data.o)
                0x00000288                __do_copy_data
 .init4         0x0000029e       0x10 /usr/lib/gcc/avr/3.4.6/avr5/libgcc.a(_clear_bss.o)
                0x0000029e                __do_clear_bss
 *(.init5)
 *(.init6)
 *(.init7)
 *(.init8)
 *(.init9)
 .init9         0x000002ae        0x4 /usr/lib/gcc/avr/3.4.6/../../../../avr/lib/avr5/crtm32.o
 *(.text)
 .text          0x000002b2        0x4 /usr/lib/gcc/avr/3.4.6/../../../../avr/lib/avr5/crtm32.o
                0x000002b2                __vector_12
                0x000002b2                __bad_interrupt
                0x000002b2                __vector_6
                0x000002b2                __vector_3
                0x000002b2                __vector_13
                0x000002b2                __vector_17
                0x000002b2                __vector_19
                0x000002b2                __vector_7
                0x000002b2                __vector_5
                0x000002b2                __vector_4
                0x000002b2                __vector_9
                0x000002b2                __vector_2
                0x000002b2                __vector_15
                0x000002b2                __vector_8
                0x000002b2                __vector_14
                0x000002b2                __vector_10
                0x000002b2                __vector_16
                0x000002b2                __vector_18
                0x000002b2                __vector_20
 .text          0x000002b6       0x50 main.o
                0x000002b6                __vector_11
                0x000002c6                main
 .text          0x00000306      0x360 xcan.o
                0x00000578                delayloop
                0x0000046a                __vector_1
                0x0000034a                message_load
                0x0000051c                mcp_read
                0x00000558                can_setled
                0x0000054e                can_setfilter
                0x00000584                can_init
                0x000003d2                message_fetch
                0x00000600                can_put
                0x00000306                mcp_status
                0x000004ec                mcp_reset
                0x000004f8                mcp_write
                0x0000031a                mcp_bitmod
                0x0000053c                can_setmode
                0x000005e8                can_get
 .text          0x00000666       0x1c spi.o
                0x00000666                spi_init
                0x00000676                spi_data
 .text          0x00000682        0xe keys.o
                0x00000682                keys
 .text          0x00000690       0xa6 xlap.o
                0x00000700                laptask
                0x0000071e                xlap_init
                0x00000690                process_mgt_msg
 .text          0x00000736      0x2aa text.o
                0x00000736                draw_Text
 .text          0x000009e0      0x4b2 grafiklcd.o
                0x000009e0                dispSetPix
                0x00000bf0                fillRect
                0x00000d3a                drawLine
                0x00000cf0                dispDrawRect
                0x00000b54                dispVLine
                0x00000a68                dispHLine
 .text          0x00000e92       0xf2 s1d1565.o
                0x00000ea6                dispWriteByte
                0x00000f66                dispReadByte
                0x00000f08                dispInit
                0x00000e92                dispEnable
                0x00000eb4                dispGotoXY
                0x00000e98                dispWriteCommand
                0x00000ed8                dispClear
 .text          0x00000f84      0x260 menu.o
                0x00001166                menu
                0x00001170                show_menu
                0x000011e2                show_text
                0x00000f84                getKey
                0x00000fc0                menu_handler
                0x000011e4                . = ALIGN (0x2)
 *(.text.*)
 .text.avrx.avrx_tasking
                0x000011e4      0x1d4 ../../AvrX2.6f/avrx/avrx.a(avrx_tasking.o)
                0x00001306                AvrXRunTask
                0x00001350                AvrXResume
                0x00001280                _Epilog
                0x0000130a                AvrXInitTask
                0x000011e4                IntProlog
                0x000012ee                AvrXSetKernelStack
                0x0000136c                _QueuePid
                0x0000127c                Epilog
 .text.avrx.avrx_semaphores
                0x000013b8       0xe2 ../../AvrX2.6f/avrx/avrx.a(avrx_semaphores.o)
                0x000013b8                AvrXWaitTimer
                0x000013e6                AvrXSetObjectSemaphore
                0x000013e6                AvrXAckMessage
                0x000013b8                AvrXWaitObjectSemaphore
                0x000013bc                AvrXWaitSemaphore
                0x00001404                AvrXIntSetSemaphore
                0x00001474                _RemoveObjectAt
                0x000013b8                AvrXWaitMessageAck
                0x00001400                AvrXIntSetObjectSemaphore
                0x00001468                _RemoveFirstObject
                0x000013b8                AvrXWaitTask
                0x0000143a                _AppendObject
                0x00001456                _RemoveObject
                0x000013ea                AvrXSetSemaphore
 .text.avrx.avrx_resetsemaphore
                0x0000149a       0x22 ../../AvrX2.6f/avrx/avrx.a(avrx_resetsemaphore.o)
                0x0000149a                AvrXResetObjectSemaphore
                0x000014a2                AvrXIntResetSemaphore
                0x000014a2                AvrXResetSemaphore
                0x0000149a                AvrXIntResetObjectSemaphore
 .text.avrx.avrx_timequeue
                0x000014bc       0xe4 ../../AvrX2.6f/avrx/avrx.a(avrx_timequeue.o)
                0x000014bc                AvrXDelay
                0x000014c0                AvrXStartTimer
                0x000014c8                CountNotZero
                0x00001518                AvrXTimerHandler
 .text.avrx.avrx_eeprom
                0x000015a0       0x68 ../../AvrX2.6f/avrx/avrx.a(avrx_eeprom.o)
                0x000015a0                AvrXReadEEProm
                0x000015ec                AvrXWriteEEProm
                0x000015be                AvrXReadEEPromWord
 .text.avrx.avrx_message
                0x00001608       0x2e ../../AvrX2.6f/avrx/avrx.a(avrx_message.o)
                0x00001612                AvrXIntSendMessage
                0x0000161a                AvrXWaitMessage
                0x00001608                AvrXSendMessage
 .text.eeprom   0x00001636       0x10 /usr/lib/gcc/avr/3.4.6/../../../../avr/lib/avr5/libc.a(ee_rb.1C1D1E.o)
                0x00001636                __eeprom_read_byte_1C1D1E
                0x00001646                . = ALIGN (0x2)
 *(.fini9)
 *(.fini8)
 *(.fini7)
 *(.fini6)
 *(.fini5)
 *(.fini4)
 *(.fini3)
 *(.fini2)
 *(.fini1)
 *(.fini0)
                0x00001646                _etext = .

.data           0x00800060       0x64 load address 0x00001646
                0x00800060                PROVIDE (__data_start, .)
 *(.data)
 .data          0x00800060        0x1 keys.o
                0x00800060                mprog
 .data          0x00800061        0xd xlap.o
 .data          0x0080006e        0x9 font_small6.o
                0x0080006e                font_small6
 .data          0x00800077       0x4c menu.o
                0x008000a8                its_ctrl
                0x008000b5                mtemp
                0x0080008f                mctrl
                0x00800083                ictrl
                0x008000aa                itemp
                0x008000bd                mi_i0
                0x00800095                iinfo
                0x00800079                root
                0x008000bb                bla
                0x008000a2                minfo
                0x0080007f                items_root
 *(.gnu.linkonce.d*)
                0x008000c4                . = ALIGN (0x2)
 *fill*         0x008000c3        0x1 00
                0x008000c4                _edata = .
                0x008000c4                PROVIDE (__data_end, .)

.bss            0x008000c4      0x1e2
                0x008000c4                PROVIDE (__bss_start, .)
 *(.bss)
 .bss           0x008000c4       0x89 xcan.o
 *(COMMON)
 COMMON         0x0080014d        0xd xcan.o
                0x0080014d                rx_msg
 COMMON         0x0080015a       0x43 keys.o
                0x0080015a                keysPid
                0x00800160                switchtimer
                0x00800166                keysStk
 COMMON         0x0080019d       0x61 xlap.o
                0x0080019d                laptaskStk
                0x008001f7                myaddr
                0x008001f8                laptaskPid
 COMMON         0x008001fe        0x9 text.o
                0x008001fe                fonts
 COMMON         0x00800207       0x8f menu.o
                0x00800207                pos
                0x00800209                menuPid
                0x0080020f                menuStk
 *fill*         0x00800296        0x2 00
 COMMON         0x00800298        0x7 ../../AvrX2.6f/avrx/avrx.a(avrx_tasking.o)
                0x00800298                AvrXKernelData
 *fill*         0x0080029f        0x1 00
 COMMON         0x008002a0        0x3 ../../AvrX2.6f/avrx/avrx.a(avrx_timequeue.o)
                0x008002a0                _TimerQueue
                0x008002a2                _TimQLevel
 *fill*         0x008002a3        0x1 00
 COMMON         0x008002a4        0x2 ../../AvrX2.6f/avrx/avrx.a(avrx_eeprom.o)
                0x008002a4                EEPromMutex
                0x008002a6                PROVIDE (__bss_end, .)
                0x00001646                __data_load_start = LOADADDR (.data)
                0x000016aa                __data_load_end = (__data_load_start + SIZEOF (.data))

.noinit         0x008002a6        0x0
                0x008002a6                PROVIDE (__noinit_start, .)
 *(.noinit*)
                0x008002a6                PROVIDE (__noinit_end, .)
                0x008002a6                _end = .
                0x008002a6                PROVIDE (__heap_start, .)

.eeprom         0x00810000        0x0
 *(.eeprom*)
                0x00810000                __eeprom_end = .

.stab           0x00000000     0x537c
 *(.stab)
 .stab          0x00000000      0x36c /usr/lib/gcc/avr/3.4.6/../../../../avr/lib/avr5/crtm32.o
 .stab          0x0000036c      0x630 main.o
                                0x63c (size before relaxing)
 .stab          0x0000099c      0xae0 xcan.o
                                0xd80 (size before relaxing)
 .stab          0x0000147c      0x1e0 spi.o
                                0x384 (size before relaxing)
 .stab          0x0000165c      0x1f8 keys.o
                                0x5b8 (size before relaxing)
 .stab          0x00001854      0x3b4 xlap.o
                                0x780 (size before relaxing)
 .stab          0x00001c08      0x5d0 text.o
                                0x774 (size before relaxing)
 .stab          0x000021d8      0x180 font_small6.o
                                0x3cc (size before relaxing)
 .stab          0x00002358      0x8dc grafiklcd.o
                                0xa80 (size before relaxing)
 .stab          0x00002c34      0x4c8 s1d1565.o
                                0x66c (size before relaxing)
 .stab          0x000030fc      0x558 menu.o
                                0x918 (size before relaxing)
 .stab          0x00003654      0xbc4 ../../AvrX2.6f/avrx/avrx.a(avrx_tasking.o)
                                0xbd0 (size before relaxing)
 .stab          0x00004218      0x654 ../../AvrX2.6f/avrx/avrx.a(avrx_semaphores.o)
                                0x660 (size before relaxing)
 .stab          0x0000486c      0x120 ../../AvrX2.6f/avrx/avrx.a(avrx_resetsemaphore.o)
                                0x12c (size before relaxing)
 .stab          0x0000498c      0x534 ../../AvrX2.6f/avrx/avrx.a(avrx_timequeue.o)
                                0x540 (size before relaxing)
 .stab          0x00004ec0      0x2dc ../../AvrX2.6f/avrx/avrx.a(avrx_eeprom.o)
                                0x2e8 (size before relaxing)
 .stab          0x0000519c      0x168 ../../AvrX2.6f/avrx/avrx.a(avrx_message.o)
                                0x174 (size before relaxing)
 .stab          0x00005304       0x78 /usr/lib/gcc/avr/3.4.6/../../../../avr/lib/avr5/libc.a(ee_rb.1C1D1E.o)
                                 0x84 (size before relaxing)

.stabstr        0x00000000     0x2426
 *(.stabstr)
 .stabstr       0x00000000     0x2426 /usr/lib/gcc/avr/3.4.6/../../../../avr/lib/avr5/crtm32.o

.stab.excl
 *(.stab.excl)

.stab.exclstr
 *(.stab.exclstr)

.stab.index
 *(.stab.index)

.stab.indexstr
 *(.stab.indexstr)

.comment
 *(.comment)

.debug
 *(.debug)

.line
 *(.line)

.debug_srcinfo
 *(.debug_srcinfo)

.debug_sfnames
 *(.debug_sfnames)

.debug_aranges
 *(.debug_aranges)

.debug_pubnames
 *(.debug_pubnames)

.debug_info
 *(.debug_info)
 *(.gnu.linkonce.wi.*)

.debug_abbrev
 *(.debug_abbrev)

.debug_line
 *(.debug_line)

.debug_frame
 *(.debug_frame)

.debug_str
 *(.debug_str)

.debug_loc
 *(.debug_loc)

.debug_macinfo
 *(.debug_macinfo)
OUTPUT(canmacht.elf elf32-avr)

Cross Reference Table

Symbol                                            File
AvrXAckMessage                                    ../../AvrX2.6f/avrx/avrx.a(avrx_semaphores.o)
AvrXDelay                                         ../../AvrX2.6f/avrx/avrx.a(avrx_timequeue.o)
                                                  menu.o
                                                  keys.o
AvrXInitTask                                      ../../AvrX2.6f/avrx/avrx.a(avrx_tasking.o)
AvrXIntResetObjectSemaphore                       ../../AvrX2.6f/avrx/avrx.a(avrx_resetsemaphore.o)
                                                  ../../AvrX2.6f/avrx/avrx.a(avrx_timequeue.o)
AvrXIntResetSemaphore                             ../../AvrX2.6f/avrx/avrx.a(avrx_resetsemaphore.o)
AvrXIntSendMessage                                ../../AvrX2.6f/avrx/avrx.a(avrx_message.o)
                                                  ../../AvrX2.6f/avrx/avrx.a(avrx_timequeue.o)
AvrXIntSetObjectSemaphore                         ../../AvrX2.6f/avrx/avrx.a(avrx_semaphores.o)
                                                  ../../AvrX2.6f/avrx/avrx.a(avrx_message.o)
                                                  ../../AvrX2.6f/avrx/avrx.a(avrx_timequeue.o)
AvrXIntSetSemaphore                               ../../AvrX2.6f/avrx/avrx.a(avrx_semaphores.o)
                                                  xcan.o
AvrXKernelData                                    ../../AvrX2.6f/avrx/avrx.a(avrx_semaphores.o)
                                                  ../../AvrX2.6f/avrx/avrx.a(avrx_tasking.o)
AvrXReadEEProm                                    ../../AvrX2.6f/avrx/avrx.a(avrx_eeprom.o)
AvrXReadEEPromWord                                ../../AvrX2.6f/avrx/avrx.a(avrx_eeprom.o)
AvrXResetObjectSemaphore                          ../../AvrX2.6f/avrx/avrx.a(avrx_resetsemaphore.o)
                                                  ../../AvrX2.6f/avrx/avrx.a(avrx_message.o)
AvrXResetSemaphore                                ../../AvrX2.6f/avrx/avrx.a(avrx_resetsemaphore.o)
                                                  xcan.o
AvrXResume                                        ../../AvrX2.6f/avrx/avrx.a(avrx_tasking.o)
AvrXRunTask                                       ../../AvrX2.6f/avrx/avrx.a(avrx_tasking.o)
                                                  main.o
AvrXSendMessage                                   ../../AvrX2.6f/avrx/avrx.a(avrx_message.o)
AvrXSetKernelStack                                ../../AvrX2.6f/avrx/avrx.a(avrx_tasking.o)
                                                  main.o
AvrXSetObjectSemaphore                            ../../AvrX2.6f/avrx/avrx.a(avrx_semaphores.o)
                                                  ../../AvrX2.6f/avrx/avrx.a(avrx_timequeue.o)
AvrXSetSemaphore                                  ../../AvrX2.6f/avrx/avrx.a(avrx_semaphores.o)
                                                  ../../AvrX2.6f/avrx/avrx.a(avrx_eeprom.o)
                                                  main.o
AvrXStartTimer                                    ../../AvrX2.6f/avrx/avrx.a(avrx_timequeue.o)
AvrXTimerHandler                                  ../../AvrX2.6f/avrx/avrx.a(avrx_timequeue.o)
                                                  main.o
AvrXWaitMessage                                   ../../AvrX2.6f/avrx/avrx.a(avrx_message.o)
AvrXWaitMessageAck                                ../../AvrX2.6f/avrx/avrx.a(avrx_semaphores.o)
AvrXWaitObjectSemaphore                           ../../AvrX2.6f/avrx/avrx.a(avrx_semaphores.o)
                                                  ../../AvrX2.6f/avrx/avrx.a(avrx_message.o)
AvrXWaitSemaphore                                 ../../AvrX2.6f/avrx/avrx.a(avrx_semaphores.o)
                                                  ../../AvrX2.6f/avrx/avrx.a(avrx_eeprom.o)
                                                  xcan.o
AvrXWaitTask                                      ../../AvrX2.6f/avrx/avrx.a(avrx_semaphores.o)
AvrXWaitTimer                                     ../../AvrX2.6f/avrx/avrx.a(avrx_semaphores.o)
                                                  ../../AvrX2.6f/avrx/avrx.a(avrx_timequeue.o)
AvrXWriteEEProm                                   ../../AvrX2.6f/avrx/avrx.a(avrx_eeprom.o)
CountNotZero                                      ../../AvrX2.6f/avrx/avrx.a(avrx_timequeue.o)
EEPromMutex                                       ../../AvrX2.6f/avrx/avrx.a(avrx_eeprom.o)
                                                  main.o
Epilog                                            ../../AvrX2.6f/avrx/avrx.a(avrx_tasking.o)
                                                  xcan.o
                                                  main.o
IntProlog                                         ../../AvrX2.6f/avrx/avrx.a(avrx_tasking.o)
                                                  ../../AvrX2.6f/avrx/avrx.a(avrx_message.o)
                                                  ../../AvrX2.6f/avrx/avrx.a(avrx_timequeue.o)
                                                  ../../AvrX2.6f/avrx/avrx.a(avrx_semaphores.o)
                                                  xcan.o
                                                  main.o
_AppendObject                                     ../../AvrX2.6f/avrx/avrx.a(avrx_semaphores.o)
                                                  ../../AvrX2.6f/avrx/avrx.a(avrx_message.o)
_Epilog                                           ../../AvrX2.6f/avrx/avrx.a(avrx_tasking.o)
                                                  ../../AvrX2.6f/avrx/avrx.a(avrx_message.o)
                                                  ../../AvrX2.6f/avrx/avrx.a(avrx_timequeue.o)
                                                  ../../AvrX2.6f/avrx/avrx.a(avrx_semaphores.o)
_QueuePid                                         ../../AvrX2.6f/avrx/avrx.a(avrx_tasking.o)
                                                  ../../AvrX2.6f/avrx/avrx.a(avrx_semaphores.o)
_RemoveFirstObject                                ../../AvrX2.6f/avrx/avrx.a(avrx_semaphores.o)
                                                  ../../AvrX2.6f/avrx/avrx.a(avrx_message.o)
_RemoveObject                                     ../../AvrX2.6f/avrx/avrx.a(avrx_semaphores.o)
_RemoveObjectAt                                   ../../AvrX2.6f/avrx/avrx.a(avrx_semaphores.o)
_TimQLevel                                        ../../AvrX2.6f/avrx/avrx.a(avrx_timequeue.o)
_TimerQueue                                       ../../AvrX2.6f/avrx/avrx.a(avrx_timequeue.o)
__bad_interrupt                                   /usr/lib/gcc/avr/3.4.6/../../../../avr/lib/avr5/crtm32.o
__bss_end                                         /usr/lib/gcc/avr/3.4.6/avr5/libgcc.a(_clear_bss.o)
__bss_start                                       /usr/lib/gcc/avr/3.4.6/avr5/libgcc.a(_clear_bss.o)
__data_end                                        /usr/lib/gcc/avr/3.4.6/avr5/libgcc.a(_copy_data.o)
__data_load_start                                 /usr/lib/gcc/avr/3.4.6/avr5/libgcc.a(_copy_data.o)
__data_start                                      /usr/lib/gcc/avr/3.4.6/avr5/libgcc.a(_copy_data.o)
__do_clear_bss                                    /usr/lib/gcc/avr/3.4.6/avr5/libgcc.a(_clear_bss.o)
                                                  menu.o
                                                  s1d1565.o
                                                  grafiklcd.o
                                                  font_small6.o
                                                  text.o
                                                  xlap.o
                                                  keys.o
                                                  spi.o
                                                  xcan.o
                                                  main.o
__do_copy_data                                    /usr/lib/gcc/avr/3.4.6/avr5/libgcc.a(_copy_data.o)
                                                  menu.o
                                                  s1d1565.o
                                                  grafiklcd.o
                                                  font_small6.o
                                                  text.o
                                                  xlap.o
                                                  keys.o
                                                  spi.o
                                                  xcan.o
                                                  main.o
__eeprom_read_byte_1C1D1E                         /usr/lib/gcc/avr/3.4.6/../../../../avr/lib/avr5/libc.a(ee_rb.1C1D1E.o)
                                                  xlap.o
__heap_end                                        /usr/lib/gcc/avr/3.4.6/../../../../avr/lib/avr5/crtm32.o
__init                                            /usr/lib/gcc/avr/3.4.6/../../../../avr/lib/avr5/crtm32.o
__stack                                           /usr/lib/gcc/avr/3.4.6/../../../../avr/lib/avr5/crtm32.o
                                                  main.o
__vector_1                                        xcan.o
                                                  /usr/lib/gcc/avr/3.4.6/../../../../avr/lib/avr5/crtm32.o
__vector_10                                       /usr/lib/gcc/avr/3.4.6/../../../../avr/lib/avr5/crtm32.o
__vector_11                                       main.o
                                                  /usr/lib/gcc/avr/3.4.6/../../../../avr/lib/avr5/crtm32.o
__vector_12                                       /usr/lib/gcc/avr/3.4.6/../../../../avr/lib/avr5/crtm32.o
__vector_13                                       /usr/lib/gcc/avr/3.4.6/../../../../avr/lib/avr5/crtm32.o
__vector_14                                       /usr/lib/gcc/avr/3.4.6/../../../../avr/lib/avr5/crtm32.o
__vector_15                                       /usr/lib/gcc/avr/3.4.6/../../../../avr/lib/avr5/crtm32.o
__vector_16                                       /usr/lib/gcc/avr/3.4.6/../../../../avr/lib/avr5/crtm32.o
__vector_17                                       /usr/lib/gcc/avr/3.4.6/../../../../avr/lib/avr5/crtm32.o
__vector_18                                       /usr/lib/gcc/avr/3.4.6/../../../../avr/lib/avr5/crtm32.o
__vector_19                                       /usr/lib/gcc/avr/3.4.6/../../../../avr/lib/avr5/crtm32.o
__vector_2                                        /usr/lib/gcc/avr/3.4.6/../../../../avr/lib/avr5/crtm32.o
__vector_20                                       /usr/lib/gcc/avr/3.4.6/../../../../avr/lib/avr5/crtm32.o
__vector_3                                        /usr/lib/gcc/avr/3.4.6/../../../../avr/lib/avr5/crtm32.o
__vector_4                                        /usr/lib/gcc/avr/3.4.6/../../../../avr/lib/avr5/crtm32.o
__vector_5                                        /usr/lib/gcc/avr/3.4.6/../../../../avr/lib/avr5/crtm32.o
__vector_6                                        /usr/lib/gcc/avr/3.4.6/../../../../avr/lib/avr5/crtm32.o
__vector_7                                        /usr/lib/gcc/avr/3.4.6/../../../../avr/lib/avr5/crtm32.o
__vector_8                                        /usr/lib/gcc/avr/3.4.6/../../../../avr/lib/avr5/crtm32.o
__vector_9                                        /usr/lib/gcc/avr/3.4.6/../../../../avr/lib/avr5/crtm32.o
__vector_default                                  /usr/lib/gcc/avr/3.4.6/../../../../avr/lib/avr5/crtm32.o
__vectors                                         /usr/lib/gcc/avr/3.4.6/../../../../avr/lib/avr5/crtm32.o
bla                                               menu.o
can_get                                           xcan.o
                                                  xlap.o
can_init                                          xcan.o
                                                  xlap.o
can_put                                           xcan.o
                                                  xlap.o
can_setfilter                                     xcan.o
can_setled                                        xcan.o
can_setmode                                       xcan.o
delayloop                                         xcan.o
dispClear                                         s1d1565.o
dispDrawRect                                      grafiklcd.o
                                                  menu.o
dispEnable                                        s1d1565.o
dispGotoXY                                        s1d1565.o
dispHLine                                         grafiklcd.o
dispInit                                          s1d1565.o
                                                  main.o
dispReadByte                                      s1d1565.o
                                                  grafiklcd.o
dispSetPix                                        grafiklcd.o
                                                  text.o
dispVLine                                         grafiklcd.o
dispWriteByte                                     s1d1565.o
                                                  grafiklcd.o
dispWriteCommand                                  s1d1565.o
                                                  grafiklcd.o
drawLine                                          grafiklcd.o
draw_Text                                         text.o
                                                  menu.o
fillRect                                          grafiklcd.o
                                                  menu.o
fontData_small6                                   font_small6.o
fontIndex_small6                                  font_small6.o
font_small6                                       font_small6.o
                                                  text.o
fonts                                             text.o
getKey                                            menu.o
ictrl                                             menu.o
iinfo                                             menu.o
itemp                                             menu.o
items_root                                        menu.o
its_ctrl                                          menu.o
keys                                              keys.o
keysPid                                           keys.o
keysStk                                           keys.o
keysTcb                                           keys.o
laptask                                           xlap.o
laptaskPid                                        xlap.o
laptaskStk                                        xlap.o
laptaskTcb                                        xlap.o
main                                              main.o
                                                  /usr/lib/gcc/avr/3.4.6/../../../../avr/lib/avr5/crtm32.o
mcp_bitmod                                        xcan.o
mcp_read                                          xcan.o
mcp_reset                                         xcan.o
mcp_status                                        xcan.o
mcp_write                                         xcan.o
mctrl                                             menu.o
menu                                              menu.o
menuPid                                           menu.o
menuStk                                           menu.o
menuTcb                                           menu.o
                                                  main.o
menu_handler                                      menu.o
message_fetch                                     xcan.o
message_load                                      xcan.o
mi_i0                                             menu.o
minfo                                             menu.o
mprog                                             keys.o
mtemp                                             menu.o
myaddr                                            xlap.o
pos                                               menu.o
process_mgt_msg                                   xlap.o
root                                              menu.o
rx_msg                                            xlap.o
                                                  xcan.o
show_menu                                         menu.o
show_text                                         menu.o
spi_data                                          spi.o
                                                  xcan.o
spi_init                                          spi.o
                                                  xlap.o
switchtimer                                       menu.o
                                                  keys.o
xlap_init                                         xlap.o
