
Memory Configuration

Name             Origin             Length             Attributes
prom             0x00000000         0x00000800
ram              0x00000800         0x00000800
*default*        0x00000000         0xffffffff

Linker script and memory map

                0x00000000                __DYNAMIC = 0x0
                0x00000000                _PROM_START = 0x0
                0x00000800                _PROM_SIZE = 0x800
                0x00000800                _PROM_END = (_PROM_START + _PROM_SIZE)
                0x00000800                _RAM_START = 0x800
                0x00000800                _RAM_SIZE = 0x800
                0x00001000                _RAM_END = (_RAM_START + _RAM_SIZE)

.text           0x00000000      0x594
                0x00000000                _stext = .
 *(.text)
 .text          0x00000000       0xfc crt0ram.o
                0x00000048                irq_enable
                0x00000000                _start
                0x0000006c                jump
                0x00000054                irq_mask
                0x00000060                irq_disable
                0x00000070                halt
 .text          0x000000fc      0x364 main.o
                0x000000fc                readint
                0x00000238                memtest
                0x000001ac                writeint
                0x000002cc                main
 .text          0x00000460      0x134 spike_hw.o
                0x00000560                uart_putstr
                0x00000494                sleep
                0x00000514                uart_getchar
                0x000004f0                uart_init
                0x00000460                irq_handler
                0x000004c8                tic_init
                0x0000053c                uart_putchar
                0x00000594                _etext = .

.data           0x00000594      0x12b
                0x00000594                _sdata = .
 *(.data)
 .data          0x00000594       0x14 spike_hw.o
                0x000005a0                uart0
                0x000005a4                timer0
                0x00000594                msec
                0x0000059c                gpio0
                0x00000598                sram0
 *(.rodata)
 .rodata        0x000005a8       0xc8 main.o
 *(.rodata.*)
 .rodata.str1.4
                0x00000670       0x4f main.o
                                 0x50 (size before relaxing)
                0x000006bf                _edata = .

.bss            0x00000800        0x0
                0x00000800                _sbss = .
 *(.bss)
                0x00000800                _ebss = .
LOAD crt0ram.o
LOAD main.o
LOAD spike_hw.o
OUTPUT(image elf32-lm32)

.debug_abbrev   0x00000000      0x1e7
 .debug_abbrev  0x00000000       0xeb main.o
 .debug_abbrev  0x000000eb       0xfc spike_hw.o

.debug_info     0x00000000      0x556
 .debug_info    0x00000000      0x20e main.o
 .debug_info    0x0000020e      0x348 spike_hw.o

.debug_line     0x00000000      0x490
 .debug_line    0x00000000      0x2fc main.o
 .debug_line    0x000002fc      0x194 spike_hw.o

.debug_pubnames
                0x00000000       0xeb
 .debug_pubnames
                0x00000000       0x40 main.o
 .debug_pubnames
                0x00000040       0xab spike_hw.o

.debug_aranges  0x00000000       0x40
 .debug_aranges
                0x00000000       0x20 main.o
 .debug_aranges
                0x00000020       0x20 spike_hw.o

.debug_str      0x00000000      0x1b8
 .debug_str     0x00000000       0xea main.o
                                0x10a (size before relaxing)
 .debug_str     0x000000ea       0xce spike_hw.o
                                0x16b (size before relaxing)

.comment        0x00000000       0x62
 .comment       0x00000000       0x31 main.o
 .comment       0x00000031       0x31 spike_hw.o
