
image.elf:     file format elf32-avr

Sections:
Idx Name          Size      VMA       LMA       File off  Algn
  0 .text         000038ee  00000000  00000000  00000094  2**0
                  CONTENTS, ALLOC, LOAD, READONLY, CODE
  1 .data         000001b0  00800060  000038ee  00003982  2**0
                  CONTENTS, ALLOC, LOAD, DATA
  2 .bss          00000093  00800210  00800210  00003b32  2**0
                  ALLOC
  3 .noinit       00000000  008002a3  008002a3  00003b32  2**0
                  CONTENTS
  4 .eeprom       00000000  00810000  00810000  00003b32  2**0
                  CONTENTS
Disassembly of section .text:

00000000 <__vectors>:
       0:	0c 94 a8 03 	jmp	0x750
       4:	0c 94 c3 03 	jmp	0x786
       8:	0c 94 c3 03 	jmp	0x786
       c:	0c 94 c3 03 	jmp	0x786
      10:	0c 94 c3 03 	jmp	0x786
      14:	0c 94 c3 03 	jmp	0x786
      18:	0c 94 c3 03 	jmp	0x786
      1c:	0c 94 c3 03 	jmp	0x786
      20:	0c 94 c3 03 	jmp	0x786
      24:	0c 94 c3 03 	jmp	0x786
      28:	0c 94 03 04 	jmp	0x806
      2c:	0c 94 c3 03 	jmp	0x786
      30:	0c 94 c3 03 	jmp	0x786
      34:	0c 94 c3 03 	jmp	0x786
      38:	0c 94 c3 03 	jmp	0x786
      3c:	0c 94 c3 03 	jmp	0x786
      40:	0c 94 c3 03 	jmp	0x786
      44:	0c 94 c3 03 	jmp	0x786
      48:	0c 94 c3 03 	jmp	0x786
      4c:	0c 94 c3 03 	jmp	0x786
      50:	0c 94 c3 03 	jmp	0x786

00000054 <__ctors_end>:
      54:	01 01       	movw	r0, r2
      56:	02 03       	mulsu	r16, r18
      58:	03 02       	muls	r16, r19
      5a:	01 01       	movw	r0, r2
      5c:	03 03       	mulsu	r16, r19
      5e:	02 01       	movw	r0, r4
      60:	01 02       	muls	r16, r17
      62:	03 03       	mulsu	r16, r19
      64:	03 03       	mulsu	r16, r19
      66:	02 02       	muls	r16, r18
      68:	03 03       	mulsu	r16, r19
      6a:	02 02       	muls	r16, r18
	...

00000084 <fontData_arial8>:
      84:	00 00 fc 02 1c 00 00 00 1c 00 90 03 f0 00 9c 03     ................
      94:	f0 00 9c 00 18 01 24 02 fc 07 24 02 c8 01 18 00     ......$...$.....
      a4:	24 00 24 02 98 01 60 00 98 01 44 02 40 02 80 01     $.$...`...D.@...
      b4:	80 01 58 02 24 02 64 02 98 01 80 02 1c 00 f0 03     ..X.$.d.........
      c4:	08 04 04 08 04 08 08 04 f0 03 28 00 1c 00 28 00     ..........(...(.
      d4:	40 00 40 00 f0 01 40 00 40 00 00 00 00 0e 80 00     @.@...@.@.......
      e4:	80 00 80 00 00 00 00 02 00 03 f0 00 0c 00 f8 01     ................
      f4:	04 02 04 02 04 02 f8 01 10 00 08 00 fc 03 08 02     ................
     104:	04 03 84 02 44 02 38 02 08 01 04 02 24 02 24 02     ....D.8.....$.$.
     114:	d8 01 c0 00 b0 00 88 00 fc 03 80 00 30 01 2c 02     ............0.,.
     124:	24 02 24 02 c4 01 f8 01 24 02 24 02 24 02 c8 01     $.$.....$.$.$...
     134:	04 00 84 03 64 00 1c 00 04 00 d8 01 24 02 24 02     ....d.......$.$.
     144:	24 02 d8 01 38 01 44 02 44 02 44 02 f8 01 10 02     $...8.D.D.D.....
     154:	10 0e 40 00 a0 00 a0 00 a0 00 10 01 a0 00 a0 00     ..@.............
     164:	a0 00 a0 00 a0 00 10 01 a0 00 a0 00 a0 00 40 00     ..............@.
     174:	08 00 04 00 c4 02 24 00 18 00 e0 03 18 04 c8 09     ......$.........
     184:	24 0a 14 0a 14 09 e4 0b 34 0a 08 05 f0 04 00 03     $.......4.......
     194:	c0 00 b8 00 84 00 b8 00 c0 00 00 03 fc 03 24 02     ..............$.
     1a4:	24 02 24 02 24 02 f8 01 f0 00 08 01 04 02 04 02     $.$.$...........
     1b4:	04 02 08 01 fc 03 04 02 04 02 04 02 08 01 f0 00     ................
     1c4:	fc 03 24 02 24 02 24 02 24 02 fc 03 24 00 24 00     ..$.$.$.$...$.$.
     1d4:	24 00 04 00 f0 00 08 01 04 02 04 02 44 02 48 01     $...........D.H.
     1e4:	c0 00 fc 03 20 00 20 00 20 00 20 00 fc 03 fc 03     .... . . . .....
     1f4:	80 01 00 02 00 02 fc 01 fc 03 40 00 20 00 70 00     ..........@. .p.
     204:	88 01 04 02 fc 03 00 02 00 02 00 02 00 02 fc 03     ................
     214:	18 00 e0 00 00 03 e0 00 18 00 fc 03 fc 03 08 00     ................
     224:	30 00 c0 00 00 01 fc 03 f0 00 08 01 04 02 04 02     0...............
     234:	04 02 08 01 f0 00 fc 03 44 00 44 00 44 00 38 00     ........D.D.D.8.
     244:	f0 00 08 01 04 02 84 02 84 02 08 01 f0 02 fc 03     ................
     254:	24 00 24 00 64 00 a4 01 18 02 18 01 24 02 24 02     $.$.d.......$.$.
     264:	44 02 44 02 88 01 04 00 04 00 fc 03 04 00 04 00     D.D.............
     274:	fc 01 00 02 00 02 00 02 00 02 fc 01 0c 00 30 00     ..............0.
     284:	c0 00 00 03 c0 00 30 00 0c 00 0c 00 f0 00 00 03     ......0.........
     294:	c0 00 38 00 04 00 38 00 c0 00 00 03 f0 00 0c 00     ..8...8.........
     2a4:	04 02 98 01 60 00 60 00 98 01 04 02 04 00 18 00     ....`.`.........
     2b4:	20 00 c0 03 20 00 18 00 04 00 04 02 04 03 c4 02      ... ...........
     2c4:	34 02 0c 02 04 02 fc 0f 04 08 0c 00 f0 00 00 03     4...............
     2d4:	04 08 fc 0f 20 00 18 00 04 00 18 00 20 00 00 08     .... ....... ...
     2e4:	00 08 00 08 00 08 00 08 00 08 04 00 08 00 a0 01     ................
     2f4:	50 02 50 02 50 01 e0 03 fc 03 20 01 10 02 10 02     P.P.P..... .....
     304:	e0 01 e0 01 10 02 10 02 10 02 20 01 e0 01 10 02     .......... .....
     314:	10 02 20 01 fc 03 e0 01 50 02 50 02 50 02 60 01     .. .....P.P.P.`.
     324:	10 00 f8 03 14 00 e0 09 10 0a 10 0a 20 09 f0 07     ............ ...
     334:	fc 03 20 00 10 00 10 00 e0 03 f4 03 f4 07 fc 03     .. .............
     344:	40 00 a0 01 10 02 fc 03 f0 03 20 00 10 00 f0 03     @......... .....
     354:	20 00 10 00 e0 03 f0 03 10 00 10 00 10 00 e0 03      ...............
     364:	e0 01 10 02 10 02 10 02 e0 01 f0 0f 20 01 10 02     ............ ...
     374:	10 02 e0 01 e0 01 10 02 10 02 20 01 f0 0f f0 03     .......... .....
     384:	20 00 10 00 20 01 50 02 50 02 90 02 20 01 10 00      ... .P.P... ...
     394:	fc 03 10 00 f0 01 00 02 00 02 00 01 f0 03 30 00     ..............0.
     3a4:	c0 00 00 03 c0 00 30 00 30 00 c0 00 00 03 e0 00     ......0.0.......
     3b4:	10 00 e0 00 00 03 c0 00 30 00 10 02 20 01 c0 00     ........0... ...
     3c4:	20 01 10 02 10 00 e0 09 00 07 c0 00 30 00 10 02      ...........0...
     3d4:	10 03 90 02 70 02 10 02 40 00 b8 07 04 08 fc 0f     ....p...@.......
     3e4:	04 08 b8 07 40 00 08 00 10 00 10 00 08 00 08 00     ....@...........
     3f4:	10 00 a4 01 50 02 50 02 50 01 e4 03 e4 01 10 02     ....P.P.P.......
     404:	10 02 10 02 e4 01 f4 01 00 02 00 02 00 01 f4 03     ................
     414:	02 03 c0 00 b8 00 84 00 b8 00 c0 00 02 03 f2 00     ................
     424:	08 01 04 02 04 02 04 02 08 01 f2 00 fa 01 00 02     ................
     434:	00 02 00 02 00 02 fa 01 fc 07 22 02 22 02 dc 01     .........."."...

00000444 <fontIndex_arial8>:
     444:	00 00 02 00 04 00 0a 00 14 00 1e 00 30 00 3c 00     ............0.<.
     454:	3e 00 44 00 4a 00 50 00 5a 00 5e 00 64 00 68 00     >.D.J.P.Z.^.d.h.
     464:	6e 00 78 00 7e 00 88 00 92 00 9c 00 a6 00 b0 00     n.x.~...........
     474:	ba 00 c4 00 ce 00 d0 00 d2 00 dc 00 e6 00 f0 00     ................
     484:	fa 00 0e 01 1c 01 28 01 34 01 40 01 4a 01 54 01     ......(.4.@.J.T.
     494:	62 01 6e 01 70 01 78 01 84 01 8e 01 9c 01 a8 01     b.n.p.x.........
     4a4:	b6 01 c0 01 ce 01 da 01 e6 01 f0 01 fc 01 0a 02     ................
     4b4:	20 02 2c 02 3a 02 46 02 4a 02 50 02 54 02 5e 02      .,.:.F.J.P.T.^.
     4c4:	6a 02 6e 02 78 02 82 02 8c 02 96 02 a0 02 a6 02     j.n.x...........
     4d4:	b0 02 ba 02 bc 02 be 02 c6 02 c8 02 d6 02 e0 02     ................
     4e4:	ea 02 f4 02 fe 02 04 03 0e 03 14 03 1e 03 28 03     ..............(.
     4f4:	3a 03 44 03 4e 03 58 03 5e 03 60 03 66 03 72 03     :.D.N.X.^.`.f.r.
     504:	7c 03 86 03 90 03 9e 03 ac 03 b8 03 c0 03           |.............

00000512 <player2>:
     512:	00 03 00 00 03 03 03 00 00 00 03 03 00 00 03 03     ................
     522:	03 03 03 00 00 03 00 00                             ........

0000052a <player>:
     52a:	00 01 00 00 02 02 00 03 00 00 02 00 01 00 00 00     ................
     53a:	01 00 00 02 00 00 03 00 02 02 00 00 01 00 01 00     ................
     54a:	00 00 02 00 00 03 00 00 02 02 00 01 00 00 01 00     ................
     55a:	02 02 00 00 03 00 00 02 00 00 01 00                 ............

00000566 <numbers>:
     566:	03 03 03 03 00 03 03 00 03 03 00 03 03 03 03 00     ................
     576:	03 03 03 00 03 00 00 03 00 00 03 00 00 03 03 03     ................
     586:	03 00 00 03 00 03 00 03 00 00 03 03 03 03 03 03     ................
     596:	00 00 03 00 03 03 00 00 03 03 03 03 03 00 03 03     ................
     5a6:	00 03 03 03 03 00 00 03 00 00 03 03 03 03 03 00     ................
     5b6:	00 03 03 03 00 00 03 03 03 03 02 03 02 03 00 00     ................
     5c6:	03 02 03 03 00 03 02 03 02                          .........

000005cf <Smile2>:
     5cf:	00 00 02 02 02 02 00 00 00 02 00 00 00 00 02 00     ................
     5df:	02 00 03 00 00 03 00 02 02 00 00 00 00 00 00 02     ................
     5ef:	02 00 00 03 03 00 00 02 02 00 03 00 00 03 00 02     ................
     5ff:	00 02 00 00 00 00 02 00 00 00 02 02 02 02 00 00     ................

0000060f <Smile1>:
     60f:	00 00 02 02 02 02 00 00 00 02 00 00 00 00 02 00     ................
     61f:	02 00 03 00 00 03 00 02 02 00 00 00 00 00 00 02     ................
     62f:	02 00 03 00 00 03 00 02 02 00 00 03 03 00 00 02     ................
     63f:	00 02 00 00 00 00 02 00 00 00 02 02 02 02 00 00     ................

0000064f <rhein>:
	...
     683:	00 00 00 03 03 00 00 00 00 00 00 00 03 00 00 00     ................
     693:	00 00 03 03 00 00 00 00 00 00 00 00 03 00 00 00     ................
     6a3:	00 00 03 02 03 00 00 00 03 00 00 00 03 03 03 00     ................
     6b3:	00 00 03 02 03 00 00 03 00 00 00 00 03 02 02 03     ................
     6c3:	03 03 02 02 02 03 03 02 03 00 00 00 00 03 02 02     ................
     6d3:	02 02 02 02 02 02 02 02 02 03 03 00 00 00 03 03     ................
     6e3:	02 02 02 02 02 02 02 02 02 02 02 03 00 00 00 00     ................
     6f3:	03 03 03 03 03 03 03 03 03 02 02 03 00 00 00 00     ................
     703:	00 00 00 00 00 00 03 00 00 03 02 03 00 00 00 00     ................
     713:	00 00 00 00 00 03 02 03 03 02 02 03 00 00 00 00     ................
     723:	00 00 00 00 00 03 02 02 02 02 02 03 00 00 00 00     ................
     733:	00 00 00 00 00 00 03 02 02 02 03 00 00 00 00 00     ................
     743:	00 00 00 00 00 00 00 03 03 03 00 00 00              .............

00000750 <__init>:
     750:	11 24       	eor	r1, r1
     752:	1f be       	out	0x3f, r1	; 63
     754:	cf e5       	ldi	r28, 0x5F	; 95
     756:	d8 e0       	ldi	r29, 0x08	; 8
     758:	de bf       	out	0x3e, r29	; 62
     75a:	cd bf       	out	0x3d, r28	; 61

0000075c <__do_copy_data>:
     75c:	12 e0       	ldi	r17, 0x02	; 2
     75e:	a0 e6       	ldi	r26, 0x60	; 96
     760:	b0 e0       	ldi	r27, 0x00	; 0
     762:	ee ee       	ldi	r30, 0xEE	; 238
     764:	f8 e3       	ldi	r31, 0x38	; 56
     766:	02 c0       	rjmp	.+4      	; 0x76c

00000768 <.do_copy_data_loop>:
     768:	05 90       	lpm	r0, Z+
     76a:	0d 92       	st	X+, r0

0000076c <.do_copy_data_start>:
     76c:	a0 31       	cpi	r26, 0x10	; 16
     76e:	b1 07       	cpc	r27, r17
     770:	d9 f7       	brne	.-10     	; 0x768

00000772 <__do_clear_bss>:
     772:	12 e0       	ldi	r17, 0x02	; 2
     774:	a0 e1       	ldi	r26, 0x10	; 16
     776:	b2 e0       	ldi	r27, 0x02	; 2
     778:	01 c0       	rjmp	.+2      	; 0x77c

0000077a <.do_clear_bss_loop>:
     77a:	1d 92       	st	X+, r1

0000077c <.do_clear_bss_start>:
     77c:	a3 3a       	cpi	r26, 0xA3	; 163
     77e:	b1 07       	cpc	r27, r17
     780:	e1 f7       	brne	.-8      	; 0x77a
     782:	0c 94 90 04 	jmp	0x920

00000786 <__bad_interrupt>:
     786:	0c 94 00 00 	jmp	0x0

0000078a <rowshow>:
     78a:	38 2f       	mov	r19, r24
     78c:	1b ba       	out	0x1b, r1	; 27
     78e:	15 ba       	out	0x15, r1	; 21
     790:	23 e1       	ldi	r18, 0x13	; 19
     792:	00 00       	nop
     794:	21 50       	subi	r18, 0x01	; 1
     796:	27 ff       	sbrs	r18, 7
     798:	fc cf       	rjmp	.-8      	; 0x792
     79a:	24 e1       	ldi	r18, 0x14	; 20
     79c:	33 23       	and	r19, r19
     79e:	d1 f4       	brne	.+52     	; 0x7d4
     7a0:	94 9a       	sbi	0x12, 4	; 18
     7a2:	96 98       	cbi	0x12, 6	; 18
     7a4:	95 9a       	sbi	0x12, 5	; 18
     7a6:	95 98       	cbi	0x12, 5	; 18
     7a8:	96 9a       	sbi	0x12, 6	; 18
     7aa:	86 2f       	mov	r24, r22
     7ac:	99 27       	eor	r25, r25
     7ae:	81 30       	cpi	r24, 0x01	; 1
     7b0:	91 05       	cpc	r25, r1
     7b2:	59 f0       	breq	.+22     	; 0x7ca
     7b4:	82 30       	cpi	r24, 0x02	; 2
     7b6:	91 05       	cpc	r25, r1
     7b8:	1c f4       	brge	.+6      	; 0x7c0
     7ba:	89 2b       	or	r24, r25
     7bc:	21 f0       	breq	.+8      	; 0x7c6
     7be:	0c c0       	rjmp	.+24     	; 0x7d8
     7c0:	02 97       	sbiw	r24, 0x02	; 2
     7c2:	31 f0       	breq	.+12     	; 0x7d0
     7c4:	09 c0       	rjmp	.+18     	; 0x7d8
     7c6:	85 e0       	ldi	r24, 0x05	; 5
     7c8:	01 c0       	rjmp	.+2      	; 0x7cc
     7ca:	88 e0       	ldi	r24, 0x08	; 8
     7cc:	8c bf       	out	0x3c, r24	; 60
     7ce:	04 c0       	rjmp	.+8      	; 0x7d8
     7d0:	2c bf       	out	0x3c, r18	; 60
     7d2:	02 c0       	rjmp	.+4      	; 0x7d8
     7d4:	95 9a       	sbi	0x12, 5	; 18
     7d6:	95 98       	cbi	0x12, 5	; 18
     7d8:	23 e1       	ldi	r18, 0x13	; 19
     7da:	00 00       	nop
     7dc:	21 50       	subi	r18, 0x01	; 1
     7de:	27 ff       	sbrs	r18, 7
     7e0:	fc cf       	rjmp	.-8      	; 0x7da
     7e2:	e6 2f       	mov	r30, r22
     7e4:	ff 27       	eor	r31, r31
     7e6:	84 e0       	ldi	r24, 0x04	; 4
     7e8:	ee 0f       	add	r30, r30
     7ea:	ff 1f       	adc	r31, r31
     7ec:	8a 95       	dec	r24
     7ee:	e1 f7       	brne	.-8      	; 0x7e8
     7f0:	e3 0f       	add	r30, r19
     7f2:	f1 1d       	adc	r31, r1
     7f4:	ee 0f       	add	r30, r30
     7f6:	ff 1f       	adc	r31, r31
     7f8:	e9 5e       	subi	r30, 0xE9	; 233
     7fa:	fd 4f       	sbci	r31, 0xFD	; 253
     7fc:	80 81       	ld	r24, Z
     7fe:	8b bb       	out	0x1b, r24	; 27
     800:	81 81       	ldd	r24, Z+1	; 0x01
     802:	85 bb       	out	0x15, r24	; 21
     804:	08 95       	ret

00000806 <__vector_10>:
     806:	1f 92       	push	r1
     808:	0f 92       	push	r0
     80a:	0f b6       	in	r0, 0x3f	; 63
     80c:	0f 92       	push	r0
     80e:	11 24       	eor	r1, r1
     810:	2f 93       	push	r18
     812:	3f 93       	push	r19
     814:	4f 93       	push	r20
     816:	8f 93       	push	r24
     818:	9f 93       	push	r25
     81a:	ef 93       	push	r30
     81c:	ff 93       	push	r31
     81e:	a8 95       	wdr
     820:	30 91 11 02 	lds	r19, 0x0211
     824:	40 91 10 02 	lds	r20, 0x0210
     828:	1b ba       	out	0x1b, r1	; 27
     82a:	15 ba       	out	0x15, r1	; 21
     82c:	23 e1       	ldi	r18, 0x13	; 19
     82e:	00 00       	nop
     830:	21 50       	subi	r18, 0x01	; 1
     832:	27 ff       	sbrs	r18, 7
     834:	fc cf       	rjmp	.-8      	; 0x82e
     836:	24 e1       	ldi	r18, 0x14	; 20
     838:	33 23       	and	r19, r19
     83a:	d1 f4       	brne	.+52     	; 0x870
     83c:	94 9a       	sbi	0x12, 4	; 18
     83e:	96 98       	cbi	0x12, 6	; 18
     840:	95 9a       	sbi	0x12, 5	; 18
     842:	95 98       	cbi	0x12, 5	; 18
     844:	96 9a       	sbi	0x12, 6	; 18
     846:	84 2f       	mov	r24, r20
     848:	99 27       	eor	r25, r25
     84a:	81 30       	cpi	r24, 0x01	; 1
     84c:	91 05       	cpc	r25, r1
     84e:	59 f0       	breq	.+22     	; 0x866
     850:	82 30       	cpi	r24, 0x02	; 2
     852:	91 05       	cpc	r25, r1
     854:	1c f4       	brge	.+6      	; 0x85c
     856:	89 2b       	or	r24, r25
     858:	21 f0       	breq	.+8      	; 0x862
     85a:	0c c0       	rjmp	.+24     	; 0x874
     85c:	02 97       	sbiw	r24, 0x02	; 2
     85e:	31 f0       	breq	.+12     	; 0x86c
     860:	09 c0       	rjmp	.+18     	; 0x874
     862:	85 e0       	ldi	r24, 0x05	; 5
     864:	01 c0       	rjmp	.+2      	; 0x868
     866:	88 e0       	ldi	r24, 0x08	; 8
     868:	8c bf       	out	0x3c, r24	; 60
     86a:	04 c0       	rjmp	.+8      	; 0x874
     86c:	2c bf       	out	0x3c, r18	; 60
     86e:	02 c0       	rjmp	.+4      	; 0x874
     870:	95 9a       	sbi	0x12, 5	; 18
     872:	95 98       	cbi	0x12, 5	; 18
     874:	23 e1       	ldi	r18, 0x13	; 19
     876:	00 00       	nop
     878:	21 50       	subi	r18, 0x01	; 1
     87a:	27 ff       	sbrs	r18, 7
     87c:	fc cf       	rjmp	.-8      	; 0x876
     87e:	e4 2f       	mov	r30, r20
     880:	ff 27       	eor	r31, r31
     882:	94 e0       	ldi	r25, 0x04	; 4
     884:	ee 0f       	add	r30, r30
     886:	ff 1f       	adc	r31, r31
     888:	9a 95       	dec	r25
     88a:	e1 f7       	brne	.-8      	; 0x884
     88c:	e3 0f       	add	r30, r19
     88e:	f1 1d       	adc	r31, r1
     890:	ee 0f       	add	r30, r30
     892:	ff 1f       	adc	r31, r31
     894:	e9 5e       	subi	r30, 0xE9	; 233
     896:	fd 4f       	sbci	r31, 0xFD	; 253
     898:	80 81       	ld	r24, Z
     89a:	8b bb       	out	0x1b, r24	; 27
     89c:	81 81       	ldd	r24, Z+1	; 0x01
     89e:	85 bb       	out	0x15, r24	; 21
     8a0:	83 2f       	mov	r24, r19
     8a2:	8f 5f       	subi	r24, 0xFF	; 255
     8a4:	80 93 11 02 	sts	0x0211, r24
     8a8:	80 31       	cpi	r24, 0x10	; 16
     8aa:	51 f4       	brne	.+20     	; 0x8c0
     8ac:	10 92 11 02 	sts	0x0211, r1
     8b0:	84 2f       	mov	r24, r20
     8b2:	8f 5f       	subi	r24, 0xFF	; 255
     8b4:	80 93 10 02 	sts	0x0210, r24
     8b8:	83 30       	cpi	r24, 0x03	; 3
     8ba:	11 f4       	brne	.+4      	; 0x8c0
     8bc:	10 92 10 02 	sts	0x0210, r1
     8c0:	ff 91       	pop	r31
     8c2:	ef 91       	pop	r30
     8c4:	9f 91       	pop	r25
     8c6:	8f 91       	pop	r24
     8c8:	4f 91       	pop	r20
     8ca:	3f 91       	pop	r19
     8cc:	2f 91       	pop	r18
     8ce:	0f 90       	pop	r0
     8d0:	0f be       	out	0x3f, r0	; 63
     8d2:	0f 90       	pop	r0
     8d4:	1f 90       	pop	r1
     8d6:	18 95       	reti

000008d8 <timer0_off>:
     8d8:	f8 94       	cli
     8da:	1b ba       	out	0x1b, r1	; 27
     8dc:	15 ba       	out	0x15, r1	; 21
     8de:	12 ba       	out	0x12, r1	; 18
     8e0:	13 be       	out	0x33, r1	; 51
     8e2:	78 94       	sei
     8e4:	08 95       	ret

000008e6 <timer0_on>:
     8e6:	8b e0       	ldi	r24, 0x0B	; 11
     8e8:	83 bf       	out	0x33, r24	; 51
     8ea:	12 be       	out	0x32, r1	; 50
     8ec:	84 e1       	ldi	r24, 0x14	; 20
     8ee:	8c bf       	out	0x3c, r24	; 60
     8f0:	82 e0       	ldi	r24, 0x02	; 2
     8f2:	89 bf       	out	0x39, r24	; 57
     8f4:	08 95       	ret

000008f6 <borg_hw_init>:
     8f6:	8f ef       	ldi	r24, 0xFF	; 255
     8f8:	8a bb       	out	0x1a, r24	; 26
     8fa:	84 bb       	out	0x14, r24	; 20
     8fc:	80 ef       	ldi	r24, 0xF0	; 240
     8fe:	81 bb       	out	0x11, r24	; 17
     900:	1b ba       	out	0x1b, r1	; 27
     902:	15 ba       	out	0x15, r1	; 21
     904:	12 ba       	out	0x12, r1	; 18
     906:	0e 94 73 04 	call	0x8e6
     90a:	a8 95       	wdr
     90c:	88 e1       	ldi	r24, 0x18	; 24
     90e:	90 e0       	ldi	r25, 0x00	; 0
     910:	28 e0       	ldi	r18, 0x08	; 8
     912:	0f b6       	in	r0, 0x3f	; 63
     914:	f8 94       	cli
     916:	a8 95       	wdr
     918:	81 bd       	out	0x21, r24	; 33
     91a:	0f be       	out	0x3f, r0	; 63
     91c:	21 bd       	out	0x21, r18	; 33
     91e:	08 95       	ret

00000920 <main>:
     920:	ce e5       	ldi	r28, 0x5E	; 94
     922:	d8 e0       	ldi	r29, 0x08	; 8
     924:	de bf       	out	0x3e, r29	; 62
     926:	cd bf       	out	0x3d, r28	; 61
     928:	21 e0       	ldi	r18, 0x01	; 1
     92a:	29 83       	std	Y+1, r18	; 0x01
     92c:	80 e0       	ldi	r24, 0x00	; 0
     92e:	0e 94 da 05 	call	0xbb4
     932:	0e 94 7b 04 	call	0x8f6
     936:	0e 94 8a 15 	call	0x2b14
     93a:	78 94       	sei
     93c:	8a e7       	ldi	r24, 0x7A	; 122
     93e:	92 e0       	ldi	r25, 0x02	; 2
     940:	0e 94 cf 1b 	call	0x379e
     944:	80 93 78 02 	sts	0x0278, r24
     948:	80 91 79 02 	lds	r24, 0x0279
     94c:	80 93 77 02 	sts	0x0277, r24
     950:	81 e0       	ldi	r24, 0x01	; 1
     952:	80 93 9e 02 	sts	0x029E, r24
     956:	b1 99       	sbic	0x16, 1	; 22
     958:	08 c0       	rjmp	.+16     	; 0x96a
     95a:	b2 9b       	sbis	0x16, 2	; 22
     95c:	06 c0       	rjmp	.+12     	; 0x96a
     95e:	b3 9b       	sbis	0x16, 3	; 22
     960:	04 c0       	rjmp	.+8      	; 0x96a
     962:	80 e1       	ldi	r24, 0x10	; 16
     964:	97 e2       	ldi	r25, 0x27	; 39
     966:	0e 94 00 18 	call	0x3000
     96a:	b1 9b       	sbis	0x16, 1	; 22
     96c:	18 c0       	rjmp	.+48     	; 0x99e
     96e:	b2 99       	sbic	0x16, 2	; 22
     970:	16 c0       	rjmp	.+44     	; 0x99e
     972:	b3 9b       	sbis	0x16, 3	; 22
     974:	14 c0       	rjmp	.+40     	; 0x99e
     976:	80 e6       	ldi	r24, 0x60	; 96
     978:	90 e0       	ldi	r25, 0x00	; 0
     97a:	0e 94 43 14 	call	0x2886
     97e:	8a ef       	ldi	r24, 0xFA	; 250
     980:	90 e0       	ldi	r25, 0x00	; 0
     982:	0e 94 bb 05 	call	0xb76
     986:	86 e8       	ldi	r24, 0x86	; 134
     988:	90 e0       	ldi	r25, 0x00	; 0
     98a:	0e 94 43 14 	call	0x2886
     98e:	86 e9       	ldi	r24, 0x96	; 150
     990:	90 e0       	ldi	r25, 0x00	; 0
     992:	0e 94 bb 05 	call	0xb76
     996:	8d e8       	ldi	r24, 0x8D	; 141
     998:	90 e0       	ldi	r25, 0x00	; 0
     99a:	0e 94 43 14 	call	0x2886
     99e:	b1 9b       	sbis	0x16, 1	; 22
     9a0:	07 c0       	rjmp	.+14     	; 0x9b0
     9a2:	b2 9b       	sbis	0x16, 2	; 22
     9a4:	05 c0       	rjmp	.+10     	; 0x9b0
     9a6:	b3 99       	sbic	0x16, 3	; 22
     9a8:	03 c0       	rjmp	.+6      	; 0x9b0
     9aa:	83 e0       	ldi	r24, 0x03	; 3
     9ac:	80 93 78 02 	sts	0x0278, r24
     9b0:	b1 99       	sbic	0x16, 1	; 22
     9b2:	18 c0       	rjmp	.+48     	; 0x9e4
     9b4:	b2 99       	sbic	0x16, 2	; 22
     9b6:	16 c0       	rjmp	.+44     	; 0x9e4
     9b8:	b3 99       	sbic	0x16, 3	; 22
     9ba:	14 c0       	rjmp	.+40     	; 0x9e4
     9bc:	84 e9       	ldi	r24, 0x94	; 148
     9be:	90 e0       	ldi	r25, 0x00	; 0
     9c0:	0e 94 43 14 	call	0x2886
     9c4:	88 ea       	ldi	r24, 0xA8	; 168
     9c6:	90 e0       	ldi	r25, 0x00	; 0
     9c8:	0e 94 43 14 	call	0x2886
     9cc:	88 eb       	ldi	r24, 0xB8	; 184
     9ce:	90 e0       	ldi	r25, 0x00	; 0
     9d0:	0e 94 43 14 	call	0x2886
     9d4:	8e eb       	ldi	r24, 0xBE	; 190
     9d6:	90 e0       	ldi	r25, 0x00	; 0
     9d8:	0e 94 43 14 	call	0x2886
     9dc:	84 ef       	ldi	r24, 0xF4	; 244
     9de:	91 e0       	ldi	r25, 0x01	; 1
     9e0:	0e 94 bb 05 	call	0xb76
     9e4:	b1 9b       	sbis	0x16, 1	; 22
     9e6:	18 c0       	rjmp	.+48     	; 0xa18
     9e8:	b2 99       	sbic	0x16, 2	; 22
     9ea:	16 c0       	rjmp	.+44     	; 0xa18
     9ec:	b3 99       	sbic	0x16, 3	; 22
     9ee:	14 c0       	rjmp	.+40     	; 0xa18
     9f0:	84 e9       	ldi	r24, 0x94	; 148
     9f2:	90 e0       	ldi	r25, 0x00	; 0
     9f4:	0e 94 43 14 	call	0x2886
     9f8:	8e eb       	ldi	r24, 0xBE	; 190
     9fa:	90 e0       	ldi	r25, 0x00	; 0
     9fc:	0e 94 43 14 	call	0x2886
     a00:	88 eb       	ldi	r24, 0xB8	; 184
     a02:	90 e0       	ldi	r25, 0x00	; 0
     a04:	0e 94 43 14 	call	0x2886
     a08:	86 ed       	ldi	r24, 0xD6	; 214
     a0a:	90 e0       	ldi	r25, 0x00	; 0
     a0c:	0e 94 43 14 	call	0x2886
     a10:	84 ef       	ldi	r24, 0xF4	; 244
     a12:	91 e0       	ldi	r25, 0x01	; 1
     a14:	0e 94 bb 05 	call	0xb76
     a18:	80 91 78 02 	lds	r24, 0x0278
     a1c:	80 93 79 02 	sts	0x0279, r24
     a20:	80 91 78 02 	lds	r24, 0x0278
     a24:	99 27       	eor	r25, r25
     a26:	87 30       	cpi	r24, 0x07	; 7
     a28:	91 05       	cpc	r25, r1
     a2a:	09 f4       	brne	.+2      	; 0xa2e
     a2c:	63 c0       	rjmp	.+198    	; 0xaf4
     a2e:	88 30       	cpi	r24, 0x08	; 8
     a30:	91 05       	cpc	r25, r1
     a32:	ac f4       	brge	.+42     	; 0xa5e
     a34:	84 30       	cpi	r24, 0x04	; 4
     a36:	91 05       	cpc	r25, r1
     a38:	d1 f1       	breq	.+116    	; 0xaae
     a3a:	85 30       	cpi	r24, 0x05	; 5
     a3c:	91 05       	cpc	r25, r1
     a3e:	3c f4       	brge	.+14     	; 0xa4e
     a40:	82 30       	cpi	r24, 0x02	; 2
     a42:	91 05       	cpc	r25, r1
     a44:	19 f1       	breq	.+70     	; 0xa8c
     a46:	03 97       	sbiw	r24, 0x03	; 3
     a48:	09 f4       	brne	.+2      	; 0xa4c
     a4a:	58 c0       	rjmp	.+176    	; 0xafc
     a4c:	89 c0       	rjmp	.+274    	; 0xb60
     a4e:	85 30       	cpi	r24, 0x05	; 5
     a50:	91 05       	cpc	r25, r1
     a52:	09 f4       	brne	.+2      	; 0xa56
     a54:	3f c0       	rjmp	.+126    	; 0xad4
     a56:	06 97       	sbiw	r24, 0x06	; 6
     a58:	09 f4       	brne	.+2      	; 0xa5c
     a5a:	41 c0       	rjmp	.+130    	; 0xade
     a5c:	81 c0       	rjmp	.+258    	; 0xb60
     a5e:	8c 30       	cpi	r24, 0x0C	; 12
     a60:	91 05       	cpc	r25, r1
     a62:	09 f4       	brne	.+2      	; 0xa66
     a64:	59 c0       	rjmp	.+178    	; 0xb18
     a66:	8d 30       	cpi	r24, 0x0D	; 13
     a68:	91 05       	cpc	r25, r1
     a6a:	44 f4       	brge	.+16     	; 0xa7c
     a6c:	89 30       	cpi	r24, 0x09	; 9
     a6e:	91 05       	cpc	r25, r1
     a70:	09 f4       	brne	.+2      	; 0xa74
     a72:	44 c0       	rjmp	.+136    	; 0xafc
     a74:	0b 97       	sbiw	r24, 0x0b	; 11
     a76:	09 f4       	brne	.+2      	; 0xa7a
     a78:	48 c0       	rjmp	.+144    	; 0xb0a
     a7a:	72 c0       	rjmp	.+228    	; 0xb60
     a7c:	8d 30       	cpi	r24, 0x0D	; 13
     a7e:	91 05       	cpc	r25, r1
     a80:	09 f4       	brne	.+2      	; 0xa84
     a82:	68 c0       	rjmp	.+208    	; 0xb54
     a84:	8b 97       	sbiw	r24, 0x2b	; 43
     a86:	09 f4       	brne	.+2      	; 0xa8a
     a88:	67 c0       	rjmp	.+206    	; 0xb58
     a8a:	6a c0       	rjmp	.+212    	; 0xb60
     a8c:	87 ef       	ldi	r24, 0xF7	; 247
     a8e:	90 e0       	ldi	r25, 0x00	; 0
     a90:	0e 94 43 14 	call	0x2886
     a94:	88 eb       	ldi	r24, 0xB8	; 184
     a96:	90 e0       	ldi	r25, 0x00	; 0
     a98:	0e 94 43 14 	call	0x2886
     a9c:	82 e1       	ldi	r24, 0x12	; 18
     a9e:	91 e0       	ldi	r25, 0x01	; 1
     aa0:	0e 94 43 14 	call	0x2886
     aa4:	8a ef       	ldi	r24, 0xFA	; 250
     aa6:	90 e0       	ldi	r25, 0x00	; 0
     aa8:	0e 94 bb 05 	call	0xb76
     aac:	59 c0       	rjmp	.+178    	; 0xb60
     aae:	87 ef       	ldi	r24, 0xF7	; 247
     ab0:	90 e0       	ldi	r25, 0x00	; 0
     ab2:	0e 94 43 14 	call	0x2886
     ab6:	88 eb       	ldi	r24, 0xB8	; 184
     ab8:	90 e0       	ldi	r25, 0x00	; 0
     aba:	0e 94 43 14 	call	0x2886
     abe:	82 e1       	ldi	r24, 0x12	; 18
     ac0:	91 e0       	ldi	r25, 0x01	; 1
     ac2:	0e 94 43 14 	call	0x2886
     ac6:	8a e2       	ldi	r24, 0x2A	; 42
     ac8:	91 e0       	ldi	r25, 0x01	; 1
     aca:	0e 94 43 14 	call	0x2886
     ace:	85 e4       	ldi	r24, 0x45	; 69
     ad0:	91 e0       	ldi	r25, 0x01	; 1
     ad2:	18 c0       	rjmp	.+48     	; 0xb04
     ad4:	84 e6       	ldi	r24, 0x64	; 100
     ad6:	90 e0       	ldi	r25, 0x00	; 0
     ad8:	0e 94 00 18 	call	0x3000
     adc:	41 c0       	rjmp	.+130    	; 0xb60
     ade:	80 e6       	ldi	r24, 0x60	; 96
     ae0:	91 e0       	ldi	r25, 0x01	; 1
     ae2:	0e 94 43 14 	call	0x2886
     ae6:	8c e7       	ldi	r24, 0x7C	; 124
     ae8:	91 e0       	ldi	r25, 0x01	; 1
     aea:	0e 94 43 14 	call	0x2886
     aee:	84 e9       	ldi	r24, 0x94	; 148
     af0:	91 e0       	ldi	r25, 0x01	; 1
     af2:	08 c0       	rjmp	.+16     	; 0xb04
     af4:	8a e0       	ldi	r24, 0x0A	; 10
     af6:	0e 94 7f 0a 	call	0x14fe
     afa:	32 c0       	rjmp	.+100    	; 0xb60
     afc:	0e 94 30 17 	call	0x2e60
     b00:	8b ea       	ldi	r24, 0xAB	; 171
     b02:	91 e0       	ldi	r25, 0x01	; 1
     b04:	0e 94 43 14 	call	0x2886
     b08:	2b c0       	rjmp	.+86     	; 0xb60
     b0a:	85 e0       	ldi	r24, 0x05	; 5
     b0c:	90 e0       	ldi	r25, 0x00	; 0
     b0e:	0e 94 74 07 	call	0xee8
     b12:	0e 94 57 0a 	call	0x14ae
     b16:	24 c0       	rjmp	.+72     	; 0xb60
     b18:	e9 81       	ldd	r30, Y+1	; 0x01
     b1a:	8e 2f       	mov	r24, r30
     b1c:	99 27       	eor	r25, r25
     b1e:	82 30       	cpi	r24, 0x02	; 2
     b20:	91 05       	cpc	r25, r1
     b22:	61 f0       	breq	.+24     	; 0xb3c
     b24:	83 30       	cpi	r24, 0x03	; 3
     b26:	91 05       	cpc	r25, r1
     b28:	1c f4       	brge	.+6      	; 0xb30
     b2a:	01 97       	sbiw	r24, 0x01	; 1
     b2c:	21 f0       	breq	.+8      	; 0xb36
     b2e:	0e c0       	rjmp	.+28     	; 0xb4c
     b30:	03 97       	sbiw	r24, 0x03	; 3
     b32:	39 f0       	breq	.+14     	; 0xb42
     b34:	0b c0       	rjmp	.+22     	; 0xb4c
     b36:	0e 94 69 0c 	call	0x18d2
     b3a:	08 c0       	rjmp	.+16     	; 0xb4c
     b3c:	0e 94 ee 0a 	call	0x15dc
     b40:	05 c0       	rjmp	.+10     	; 0xb4c
     b42:	88 ee       	ldi	r24, 0xE8	; 232
     b44:	93 e0       	ldi	r25, 0x03	; 3
     b46:	0e 94 00 18 	call	0x3000
     b4a:	19 82       	std	Y+1, r1	; 0x01
     b4c:	f9 81       	ldd	r31, Y+1	; 0x01
     b4e:	ff 5f       	subi	r31, 0xFF	; 255
     b50:	f9 83       	std	Y+1, r31	; 0x01
     b52:	06 c0       	rjmp	.+12     	; 0xb60
     b54:	81 e0       	ldi	r24, 0x01	; 1
     b56:	02 c0       	rjmp	.+4      	; 0xb5c
     b58:	80 91 77 02 	lds	r24, 0x0277
     b5c:	80 93 78 02 	sts	0x0278, r24
     b60:	b0 9b       	sbis	0x16, 0	; 22
     b62:	fe cf       	rjmp	.-4      	; 0xb60
     b64:	81 e0       	ldi	r24, 0x01	; 1
     b66:	80 93 9e 02 	sts	0x029E, r24
     b6a:	80 91 78 02 	lds	r24, 0x0278
     b6e:	8f 5f       	subi	r24, 0xFF	; 255
     b70:	80 93 78 02 	sts	0x0278, r24
     b74:	f0 ce       	rjmp	.-544    	; 0x956

00000b76 <wait>:
     b76:	9c 01       	movw	r18, r24
     b78:	8d e0       	ldi	r24, 0x0D	; 13
     b7a:	85 bd       	out	0x25, r24	; 37
     b7c:	8d e7       	ldi	r24, 0x7D	; 125
     b7e:	83 bd       	out	0x23, r24	; 35
     b80:	12 16       	cp	r1, r18
     b82:	13 06       	cpc	r1, r19
     b84:	b4 f4       	brge	.+44     	; 0xbb2
     b86:	80 91 9e 02 	lds	r24, 0x029E
     b8a:	88 23       	and	r24, r24
     b8c:	51 f0       	breq	.+20     	; 0xba2
     b8e:	b0 99       	sbic	0x16, 0	; 22
     b90:	08 c0       	rjmp	.+16     	; 0xba2
     b92:	10 92 9e 02 	sts	0x029E, r1
     b96:	6b e2       	ldi	r22, 0x2B	; 43
     b98:	70 e0       	ldi	r23, 0x00	; 0
     b9a:	8a e7       	ldi	r24, 0x7A	; 122
     b9c:	92 e0       	ldi	r25, 0x02	; 2
     b9e:	0e 94 f0 1b 	call	0x37e0
     ba2:	08 b6       	in	r0, 0x38	; 56
     ba4:	07 fe       	sbrs	r0, 7
     ba6:	fd cf       	rjmp	.-6      	; 0xba2
     ba8:	80 e8       	ldi	r24, 0x80	; 128
     baa:	88 bf       	out	0x38, r24	; 56
     bac:	21 50       	subi	r18, 0x01	; 1
     bae:	30 40       	sbci	r19, 0x00	; 0
     bb0:	e7 cf       	rjmp	.-50     	; 0xb80
     bb2:	08 95       	ret

00000bb4 <clear_screen>:
     bb4:	4f ef       	ldi	r20, 0xFF	; 255
     bb6:	90 e0       	ldi	r25, 0x00	; 0
     bb8:	29 2f       	mov	r18, r25
     bba:	33 27       	eor	r19, r19
     bbc:	55 e0       	ldi	r21, 0x05	; 5
     bbe:	22 0f       	add	r18, r18
     bc0:	33 1f       	adc	r19, r19
     bc2:	5a 95       	dec	r21
     bc4:	e1 f7       	brne	.-8      	; 0xbbe
     bc6:	29 5e       	subi	r18, 0xE9	; 233
     bc8:	3d 4f       	sbci	r19, 0xFD	; 253
     bca:	98 17       	cp	r25, r24
     bcc:	09 f4       	brne	.+2      	; 0xbd0
     bce:	40 e0       	ldi	r20, 0x00	; 0
     bd0:	f9 01       	movw	r30, r18
     bd2:	21 5e       	subi	r18, 0xE1	; 225
     bd4:	3f 4f       	sbci	r19, 0xFF	; 255
     bd6:	41 93       	st	Z+, r20
     bd8:	2e 17       	cp	r18, r30
     bda:	3f 07       	cpc	r19, r31
     bdc:	e0 f7       	brcc	.-8      	; 0xbd6
     bde:	9f 5f       	subi	r25, 0xFF	; 255
     be0:	93 30       	cpi	r25, 0x03	; 3
     be2:	50 f3       	brcs	.-44     	; 0xbb8
     be4:	08 95       	ret

00000be6 <setpixel>:
     be6:	e8 2f       	mov	r30, r24
     be8:	28 2f       	mov	r18, r24
     bea:	2f 70       	andi	r18, 0x0F	; 15
     bec:	64 30       	cpi	r22, 0x04	; 4
     bee:	08 f0       	brcs	.+2      	; 0xbf2
     bf0:	63 e0       	ldi	r22, 0x03	; 3
     bf2:	9f 70       	andi	r25, 0x0F	; 15
     bf4:	99 0f       	add	r25, r25
     bf6:	26 95       	lsr	r18
     bf8:	26 95       	lsr	r18
     bfa:	26 95       	lsr	r18
     bfc:	92 0f       	add	r25, r18
     bfe:	e7 70       	andi	r30, 0x07	; 7
     c00:	ff 27       	eor	r31, r31
     c02:	ee 53       	subi	r30, 0x3E	; 62
     c04:	fe 4f       	sbci	r31, 0xFE	; 254
     c06:	e0 81       	ld	r30, Z
     c08:	20 e0       	ldi	r18, 0x00	; 0
     c0a:	26 17       	cp	r18, r22
     c0c:	68 f4       	brcc	.+26     	; 0xc28
     c0e:	a9 2f       	mov	r26, r25
     c10:	bb 27       	eor	r27, r27
     c12:	a9 5e       	subi	r26, 0xE9	; 233
     c14:	bd 4f       	sbci	r27, 0xFD	; 253
     c16:	26 2f       	mov	r18, r22
     c18:	8c 91       	ld	r24, X
     c1a:	8e 2b       	or	r24, r30
     c1c:	8c 93       	st	X, r24
     c1e:	21 50       	subi	r18, 0x01	; 1
     c20:	90 96       	adiw	r26, 0x20	; 32
     c22:	22 23       	and	r18, r18
     c24:	c9 f7       	brne	.-14     	; 0xc18
     c26:	26 2f       	mov	r18, r22
     c28:	e0 95       	com	r30
     c2a:	23 30       	cpi	r18, 0x03	; 3
     c2c:	a0 f4       	brcc	.+40     	; 0xc56
     c2e:	89 2f       	mov	r24, r25
     c30:	99 27       	eor	r25, r25
     c32:	a2 2f       	mov	r26, r18
     c34:	bb 27       	eor	r27, r27
     c36:	65 e0       	ldi	r22, 0x05	; 5
     c38:	aa 0f       	add	r26, r26
     c3a:	bb 1f       	adc	r27, r27
     c3c:	6a 95       	dec	r22
     c3e:	e1 f7       	brne	.-8      	; 0xc38
     c40:	89 5e       	subi	r24, 0xE9	; 233
     c42:	9d 4f       	sbci	r25, 0xFD	; 253
     c44:	a8 0f       	add	r26, r24
     c46:	b9 1f       	adc	r27, r25
     c48:	8c 91       	ld	r24, X
     c4a:	8e 23       	and	r24, r30
     c4c:	8c 93       	st	X, r24
     c4e:	2f 5f       	subi	r18, 0xFF	; 255
     c50:	90 96       	adiw	r26, 0x20	; 32
     c52:	23 30       	cpi	r18, 0x03	; 3
     c54:	c8 f3       	brcs	.-14     	; 0xc48
     c56:	08 95       	ret

00000c58 <shift_pixmap_l>:
     c58:	1f 93       	push	r17
     c5a:	cf 93       	push	r28
     c5c:	df 93       	push	r29
     c5e:	30 e0       	ldi	r19, 0x00	; 0
     c60:	83 2f       	mov	r24, r19
     c62:	99 27       	eor	r25, r25
     c64:	1f e0       	ldi	r17, 0x0F	; 15
     c66:	c5 e0       	ldi	r28, 0x05	; 5
     c68:	88 0f       	add	r24, r24
     c6a:	99 1f       	adc	r25, r25
     c6c:	ca 95       	dec	r28
     c6e:	e1 f7       	brne	.-8      	; 0xc68
     c70:	ec 01       	movw	r28, r24
     c72:	c9 5e       	subi	r28, 0xE9	; 233
     c74:	dd 4f       	sbci	r29, 0xFD	; 253
     c76:	ac 01       	movw	r20, r24
     c78:	bc 01       	movw	r22, r24
     c7a:	db 01       	movw	r26, r22
     c7c:	a8 5e       	subi	r26, 0xE8	; 232
     c7e:	bd 4f       	sbci	r27, 0xFD	; 253
     c80:	fa 01       	movw	r30, r20
     c82:	e9 5e       	subi	r30, 0xE9	; 233
     c84:	fd 4f       	sbci	r31, 0xFD	; 253
     c86:	20 81       	ld	r18, Z
     c88:	26 95       	lsr	r18
     c8a:	20 83       	st	Z, r18
     c8c:	8c 91       	ld	r24, X
     c8e:	99 27       	eor	r25, r25
     c90:	81 70       	andi	r24, 0x01	; 1
     c92:	90 70       	andi	r25, 0x00	; 0
     c94:	96 95       	lsr	r25
     c96:	98 2f       	mov	r25, r24
     c98:	88 27       	eor	r24, r24
     c9a:	97 95       	ror	r25
     c9c:	87 95       	ror	r24
     c9e:	28 2b       	or	r18, r24
     ca0:	20 83       	st	Z, r18
     ca2:	89 81       	ldd	r24, Y+1	; 0x01
     ca4:	86 95       	lsr	r24
     ca6:	89 83       	std	Y+1, r24	; 0x01
     ca8:	11 50       	subi	r17, 0x01	; 1
     caa:	6e 5f       	subi	r22, 0xFE	; 254
     cac:	7f 4f       	sbci	r23, 0xFF	; 255
     cae:	4e 5f       	subi	r20, 0xFE	; 254
     cb0:	5f 4f       	sbci	r21, 0xFF	; 255
     cb2:	22 96       	adiw	r28, 0x02	; 2
     cb4:	17 ff       	sbrs	r17, 7
     cb6:	e1 cf       	rjmp	.-62     	; 0xc7a
     cb8:	3f 5f       	subi	r19, 0xFF	; 255
     cba:	33 30       	cpi	r19, 0x03	; 3
     cbc:	88 f2       	brcs	.-94     	; 0xc60
     cbe:	df 91       	pop	r29
     cc0:	cf 91       	pop	r28
     cc2:	1f 91       	pop	r17
     cc4:	08 95       	ret

00000cc6 <get_pixel>:
     cc6:	ac 01       	movw	r20, r24
     cc8:	80 31       	cpi	r24, 0x10	; 16
     cca:	10 f4       	brcc	.+4      	; 0xcd0
     ccc:	50 31       	cpi	r21, 0x10	; 16
     cce:	18 f0       	brcs	.+6      	; 0xcd6
     cd0:	8f ef       	ldi	r24, 0xFF	; 255
     cd2:	90 e0       	ldi	r25, 0x00	; 0
     cd4:	08 95       	ret
     cd6:	60 e0       	ldi	r22, 0x00	; 0
     cd8:	70 e0       	ldi	r23, 0x00	; 0
     cda:	98 2f       	mov	r25, r24
     cdc:	28 2f       	mov	r18, r24
     cde:	26 95       	lsr	r18
     ce0:	26 95       	lsr	r18
     ce2:	26 95       	lsr	r18
     ce4:	e5 2f       	mov	r30, r21
     ce6:	ff 27       	eor	r31, r31
     ce8:	ee 0f       	add	r30, r30
     cea:	ff 1f       	adc	r31, r31
     cec:	e2 0f       	add	r30, r18
     cee:	f1 1d       	adc	r31, r1
     cf0:	e9 5e       	subi	r30, 0xE9	; 233
     cf2:	fd 4f       	sbci	r31, 0xFD	; 253
     cf4:	97 70       	andi	r25, 0x07	; 7
     cf6:	a9 2f       	mov	r26, r25
     cf8:	bb 27       	eor	r27, r27
     cfa:	ae 53       	subi	r26, 0x3E	; 62
     cfc:	be 4f       	sbci	r27, 0xFE	; 254
     cfe:	80 81       	ld	r24, Z
     d00:	9c 91       	ld	r25, X
     d02:	89 23       	and	r24, r25
     d04:	11 f0       	breq	.+4      	; 0xd0a
     d06:	61 e0       	ldi	r22, 0x01	; 1
     d08:	70 e0       	ldi	r23, 0x00	; 0
     d0a:	cb 01       	movw	r24, r22
     d0c:	08 95       	ret

00000d0e <get_next_pixel>:
     d0e:	9c 01       	movw	r18, r24
     d10:	61 30       	cpi	r22, 0x01	; 1
     d12:	71 05       	cpc	r23, r1
     d14:	61 f0       	breq	.+24     	; 0xd2e
     d16:	61 30       	cpi	r22, 0x01	; 1
     d18:	71 05       	cpc	r23, r1
     d1a:	38 f0       	brcs	.+14     	; 0xd2a
     d1c:	62 30       	cpi	r22, 0x02	; 2
     d1e:	71 05       	cpc	r23, r1
     d20:	61 f0       	breq	.+24     	; 0xd3a
     d22:	63 30       	cpi	r22, 0x03	; 3
     d24:	71 05       	cpc	r23, r1
     d26:	31 f0       	breq	.+12     	; 0xd34
     d28:	0b c0       	rjmp	.+22     	; 0xd40
     d2a:	81 50       	subi	r24, 0x01	; 1
     d2c:	01 c0       	rjmp	.+2      	; 0xd30
     d2e:	8f 5f       	subi	r24, 0xFF	; 255
     d30:	93 2f       	mov	r25, r19
     d32:	05 c0       	rjmp	.+10     	; 0xd3e
     d34:	93 2f       	mov	r25, r19
     d36:	9f 5f       	subi	r25, 0xFF	; 255
     d38:	02 c0       	rjmp	.+4      	; 0xd3e
     d3a:	93 2f       	mov	r25, r19
     d3c:	91 50       	subi	r25, 0x01	; 1
     d3e:	ac 01       	movw	r20, r24
     d40:	ca 01       	movw	r24, r20
     d42:	0e 94 63 06 	call	0xcc6
     d46:	99 27       	eor	r25, r25
     d48:	08 95       	ret

00000d4a <direction_r>:
     d4a:	81 30       	cpi	r24, 0x01	; 1
     d4c:	91 05       	cpc	r25, r1
     d4e:	79 f0       	breq	.+30     	; 0xd6e
     d50:	81 30       	cpi	r24, 0x01	; 1
     d52:	91 05       	cpc	r25, r1
     d54:	30 f0       	brcs	.+12     	; 0xd62
     d56:	82 30       	cpi	r24, 0x02	; 2
     d58:	91 05       	cpc	r25, r1
     d5a:	61 f0       	breq	.+24     	; 0xd74
     d5c:	03 97       	sbiw	r24, 0x03	; 3
     d5e:	21 f0       	breq	.+8      	; 0xd68
     d60:	0c c0       	rjmp	.+24     	; 0xd7a
     d62:	83 e0       	ldi	r24, 0x03	; 3
     d64:	90 e0       	ldi	r25, 0x00	; 0
     d66:	08 95       	ret
     d68:	81 e0       	ldi	r24, 0x01	; 1
     d6a:	90 e0       	ldi	r25, 0x00	; 0
     d6c:	08 95       	ret
     d6e:	82 e0       	ldi	r24, 0x02	; 2
     d70:	90 e0       	ldi	r25, 0x00	; 0
     d72:	08 95       	ret
     d74:	80 e0       	ldi	r24, 0x00	; 0
     d76:	90 e0       	ldi	r25, 0x00	; 0
     d78:	08 95       	ret
     d7a:	80 e0       	ldi	r24, 0x00	; 0
     d7c:	90 e0       	ldi	r25, 0x00	; 0
     d7e:	08 95       	ret

00000d80 <set_cursor>:
     d80:	fc 01       	movw	r30, r24
     d82:	cb 01       	movw	r24, r22
     d84:	60 83       	st	Z, r22
     d86:	71 83       	std	Z+1, r23	; 0x01
     d88:	24 81       	ldd	r18, Z+4	; 0x04
     d8a:	35 81       	ldd	r19, Z+5	; 0x05
     d8c:	21 15       	cp	r18, r1
     d8e:	31 05       	cpc	r19, r1
     d90:	21 f0       	breq	.+8      	; 0xd9a
     d92:	21 30       	cpi	r18, 0x01	; 1
     d94:	31 05       	cpc	r19, r1
     d96:	19 f0       	breq	.+6      	; 0xd9e
     d98:	08 95       	ret
     d9a:	60 e0       	ldi	r22, 0x00	; 0
     d9c:	01 c0       	rjmp	.+2      	; 0xda0
     d9e:	63 e0       	ldi	r22, 0x03	; 3
     da0:	0e 94 f3 05 	call	0xbe6
     da4:	08 95       	ret

00000da6 <next_pixel>:
     da6:	9c 01       	movw	r18, r24
     da8:	61 30       	cpi	r22, 0x01	; 1
     daa:	71 05       	cpc	r23, r1
     dac:	61 f0       	breq	.+24     	; 0xdc6
     dae:	61 30       	cpi	r22, 0x01	; 1
     db0:	71 05       	cpc	r23, r1
     db2:	38 f0       	brcs	.+14     	; 0xdc2
     db4:	62 30       	cpi	r22, 0x02	; 2
     db6:	71 05       	cpc	r23, r1
     db8:	61 f0       	breq	.+24     	; 0xdd2
     dba:	63 30       	cpi	r22, 0x03	; 3
     dbc:	71 05       	cpc	r23, r1
     dbe:	31 f0       	breq	.+12     	; 0xdcc
     dc0:	0b c0       	rjmp	.+22     	; 0xdd8
     dc2:	81 50       	subi	r24, 0x01	; 1
     dc4:	01 c0       	rjmp	.+2      	; 0xdc8
     dc6:	8f 5f       	subi	r24, 0xFF	; 255
     dc8:	93 2f       	mov	r25, r19
     dca:	08 95       	ret
     dcc:	93 2f       	mov	r25, r19
     dce:	9f 5f       	subi	r25, 0xFF	; 255
     dd0:	08 95       	ret
     dd2:	93 2f       	mov	r25, r19
     dd4:	91 50       	subi	r25, 0x01	; 1
     dd6:	08 95       	ret
     dd8:	80 e0       	ldi	r24, 0x00	; 0
     dda:	90 e0       	ldi	r25, 0x00	; 0
     ddc:	08 95       	ret

00000dde <walk>:
     dde:	ef 92       	push	r14
     de0:	ff 92       	push	r15
     de2:	1f 93       	push	r17
     de4:	cf 93       	push	r28
     de6:	df 93       	push	r29
     de8:	ec 01       	movw	r28, r24
     dea:	7a 01       	movw	r14, r20
     dec:	66 23       	and	r22, r22
     dee:	81 f0       	breq	.+32     	; 0xe10
     df0:	16 2f       	mov	r17, r22
     df2:	6a 81       	ldd	r22, Y+2	; 0x02
     df4:	7b 81       	ldd	r23, Y+3	; 0x03
     df6:	88 81       	ld	r24, Y
     df8:	99 81       	ldd	r25, Y+1	; 0x01
     dfa:	0e 94 d3 06 	call	0xda6
     dfe:	bc 01       	movw	r22, r24
     e00:	ce 01       	movw	r24, r28
     e02:	0e 94 c0 06 	call	0xd80
     e06:	c7 01       	movw	r24, r14
     e08:	0e 94 bb 05 	call	0xb76
     e0c:	11 50       	subi	r17, 0x01	; 1
     e0e:	89 f7       	brne	.-30     	; 0xdf2
     e10:	df 91       	pop	r29
     e12:	cf 91       	pop	r28
     e14:	1f 91       	pop	r17
     e16:	ff 90       	pop	r15
     e18:	ef 90       	pop	r14
     e1a:	08 95       	ret

00000e1c <test1>:
     e1c:	1f 93       	push	r17
     e1e:	cf 93       	push	r28
     e20:	10 e0       	ldi	r17, 0x00	; 0
     e22:	c0 e0       	ldi	r28, 0x00	; 0
     e24:	8c 2f       	mov	r24, r28
     e26:	91 2f       	mov	r25, r17
     e28:	63 e0       	ldi	r22, 0x03	; 3
     e2a:	0e 94 f3 05 	call	0xbe6
     e2e:	84 e6       	ldi	r24, 0x64	; 100
     e30:	90 e0       	ldi	r25, 0x00	; 0
     e32:	0e 94 bb 05 	call	0xb76
     e36:	cf 5f       	subi	r28, 0xFF	; 255
     e38:	c0 31       	cpi	r28, 0x10	; 16
     e3a:	a0 f3       	brcs	.-24     	; 0xe24
     e3c:	1f 5f       	subi	r17, 0xFF	; 255
     e3e:	10 31       	cpi	r17, 0x10	; 16
     e40:	80 f3       	brcs	.-32     	; 0xe22
     e42:	cf 91       	pop	r28
     e44:	1f 91       	pop	r17
     e46:	08 95       	ret

00000e48 <test_level1>:
     e48:	1f 93       	push	r17
     e4a:	cf 93       	push	r28
     e4c:	10 e0       	ldi	r17, 0x00	; 0
     e4e:	c0 e0       	ldi	r28, 0x00	; 0
     e50:	8c 2f       	mov	r24, r28
     e52:	91 2f       	mov	r25, r17
     e54:	61 e0       	ldi	r22, 0x01	; 1
     e56:	0e 94 f3 05 	call	0xbe6
     e5a:	85 e0       	ldi	r24, 0x05	; 5
     e5c:	90 e0       	ldi	r25, 0x00	; 0
     e5e:	0e 94 bb 05 	call	0xb76
     e62:	cf 5f       	subi	r28, 0xFF	; 255
     e64:	c0 31       	cpi	r28, 0x10	; 16
     e66:	a0 f3       	brcs	.-24     	; 0xe50
     e68:	1f 5f       	subi	r17, 0xFF	; 255
     e6a:	10 31       	cpi	r17, 0x10	; 16
     e6c:	80 f3       	brcs	.-32     	; 0xe4e
     e6e:	84 e6       	ldi	r24, 0x64	; 100
     e70:	90 e0       	ldi	r25, 0x00	; 0
     e72:	0e 94 bb 05 	call	0xb76
     e76:	fb cf       	rjmp	.-10     	; 0xe6e

00000e78 <test_level2>:
     e78:	1f 93       	push	r17
     e7a:	cf 93       	push	r28
     e7c:	10 e0       	ldi	r17, 0x00	; 0
     e7e:	c0 e0       	ldi	r28, 0x00	; 0
     e80:	8c 2f       	mov	r24, r28
     e82:	91 2f       	mov	r25, r17
     e84:	62 e0       	ldi	r22, 0x02	; 2
     e86:	0e 94 f3 05 	call	0xbe6
     e8a:	85 e0       	ldi	r24, 0x05	; 5
     e8c:	90 e0       	ldi	r25, 0x00	; 0
     e8e:	0e 94 bb 05 	call	0xb76
     e92:	cf 5f       	subi	r28, 0xFF	; 255
     e94:	c0 31       	cpi	r28, 0x10	; 16
     e96:	a0 f3       	brcs	.-24     	; 0xe80
     e98:	1f 5f       	subi	r17, 0xFF	; 255
     e9a:	10 31       	cpi	r17, 0x10	; 16
     e9c:	80 f3       	brcs	.-32     	; 0xe7e
     e9e:	84 e6       	ldi	r24, 0x64	; 100
     ea0:	90 e0       	ldi	r25, 0x00	; 0
     ea2:	0e 94 bb 05 	call	0xb76
     ea6:	fb cf       	rjmp	.-10     	; 0xe9e

00000ea8 <test_level3>:
     ea8:	1f 93       	push	r17
     eaa:	cf 93       	push	r28
     eac:	10 e0       	ldi	r17, 0x00	; 0
     eae:	c0 e0       	ldi	r28, 0x00	; 0
     eb0:	8c 2f       	mov	r24, r28
     eb2:	91 2f       	mov	r25, r17
     eb4:	63 e0       	ldi	r22, 0x03	; 3
     eb6:	0e 94 f3 05 	call	0xbe6
     eba:	85 e0       	ldi	r24, 0x05	; 5
     ebc:	90 e0       	ldi	r25, 0x00	; 0
     ebe:	0e 94 bb 05 	call	0xb76
     ec2:	cf 5f       	subi	r28, 0xFF	; 255
     ec4:	c0 31       	cpi	r28, 0x10	; 16
     ec6:	a0 f3       	brcs	.-24     	; 0xeb0
     ec8:	1f 5f       	subi	r17, 0xFF	; 255
     eca:	10 31       	cpi	r17, 0x10	; 16
     ecc:	80 f3       	brcs	.-32     	; 0xeae
     ece:	84 e6       	ldi	r24, 0x64	; 100
     ed0:	90 e0       	ldi	r25, 0x00	; 0
     ed2:	0e 94 bb 05 	call	0xb76
     ed6:	fb cf       	rjmp	.-10     	; 0xece

00000ed8 <off>:
     ed8:	80 e0       	ldi	r24, 0x00	; 0
     eda:	0e 94 da 05 	call	0xbb4
     ede:	84 e6       	ldi	r24, 0x64	; 100
     ee0:	90 e0       	ldi	r25, 0x00	; 0
     ee2:	0e 94 bb 05 	call	0xb76
     ee6:	fb cf       	rjmp	.-10     	; 0xede

00000ee8 <spirale>:
     ee8:	ef 92       	push	r14
     eea:	ff 92       	push	r15
     eec:	1f 93       	push	r17
     eee:	cf 93       	push	r28
     ef0:	df 93       	push	r29
     ef2:	cd b7       	in	r28, 0x3d	; 61
     ef4:	de b7       	in	r29, 0x3e	; 62
     ef6:	26 97       	sbiw	r28, 0x06	; 6
     ef8:	0f b6       	in	r0, 0x3f	; 63
     efa:	f8 94       	cli
     efc:	de bf       	out	0x3e, r29	; 62
     efe:	0f be       	out	0x3f, r0	; 63
     f00:	cd bf       	out	0x3d, r28	; 61
     f02:	7c 01       	movw	r14, r24
     f04:	80 e0       	ldi	r24, 0x00	; 0
     f06:	0e 94 da 05 	call	0xbb4
     f0a:	1b 82       	std	Y+3, r1	; 0x03
     f0c:	1c 82       	std	Y+4, r1	; 0x04
     f0e:	81 e0       	ldi	r24, 0x01	; 1
     f10:	90 e0       	ldi	r25, 0x00	; 0
     f12:	8d 83       	std	Y+5, r24	; 0x05
     f14:	9e 83       	std	Y+6, r25	; 0x06
     f16:	8f e0       	ldi	r24, 0x0F	; 15
     f18:	90 e0       	ldi	r25, 0x00	; 0
     f1a:	bc 01       	movw	r22, r24
     f1c:	ce 01       	movw	r24, r28
     f1e:	01 96       	adiw	r24, 0x01	; 1
     f20:	0e 94 c0 06 	call	0xd80
     f24:	11 e0       	ldi	r17, 0x01	; 1
     f26:	07 c0       	rjmp	.+14     	; 0xf36
     f28:	18 2f       	mov	r17, r24
     f2a:	a7 01       	movw	r20, r14
     f2c:	61 e0       	ldi	r22, 0x01	; 1
     f2e:	ce 01       	movw	r24, r28
     f30:	01 96       	adiw	r24, 0x01	; 1
     f32:	0e 94 ef 06 	call	0xdde
     f36:	6b 81       	ldd	r22, Y+3	; 0x03
     f38:	7c 81       	ldd	r23, Y+4	; 0x04
     f3a:	89 81       	ldd	r24, Y+1	; 0x01
     f3c:	9a 81       	ldd	r25, Y+2	; 0x02
     f3e:	0e 94 87 06 	call	0xd0e
     f42:	88 23       	and	r24, r24
     f44:	89 f3       	breq	.-30     	; 0xf28
     f46:	8b 81       	ldd	r24, Y+3	; 0x03
     f48:	9c 81       	ldd	r25, Y+4	; 0x04
     f4a:	0e 94 a5 06 	call	0xd4a
     f4e:	8b 83       	std	Y+3, r24	; 0x03
     f50:	9c 83       	std	Y+4, r25	; 0x04
     f52:	11 23       	and	r17, r17
     f54:	39 f3       	breq	.-50     	; 0xf24
     f56:	1d 82       	std	Y+5, r1	; 0x05
     f58:	1e 82       	std	Y+6, r1	; 0x06
     f5a:	87 e0       	ldi	r24, 0x07	; 7
     f5c:	98 2f       	mov	r25, r24
     f5e:	bc 01       	movw	r22, r24
     f60:	ce 01       	movw	r24, r28
     f62:	01 96       	adiw	r24, 0x01	; 1
     f64:	0e 94 c0 06 	call	0xd80
     f68:	10 e0       	ldi	r17, 0x00	; 0
     f6a:	8b 81       	ldd	r24, Y+3	; 0x03
     f6c:	9c 81       	ldd	r25, Y+4	; 0x04
     f6e:	0e 94 a5 06 	call	0xd4a
     f72:	bc 01       	movw	r22, r24
     f74:	89 81       	ldd	r24, Y+1	; 0x01
     f76:	9a 81       	ldd	r25, Y+2	; 0x02
     f78:	0e 94 87 06 	call	0xd0e
     f7c:	88 23       	and	r24, r24
     f7e:	31 f0       	breq	.+12     	; 0xf8c
     f80:	8b 81       	ldd	r24, Y+3	; 0x03
     f82:	9c 81       	ldd	r25, Y+4	; 0x04
     f84:	0e 94 a5 06 	call	0xd4a
     f88:	8b 83       	std	Y+3, r24	; 0x03
     f8a:	9c 83       	std	Y+4, r25	; 0x04
     f8c:	6b 81       	ldd	r22, Y+3	; 0x03
     f8e:	7c 81       	ldd	r23, Y+4	; 0x04
     f90:	89 81       	ldd	r24, Y+1	; 0x01
     f92:	9a 81       	ldd	r25, Y+2	; 0x02
     f94:	0e 94 87 06 	call	0xd0e
     f98:	68 2f       	mov	r22, r24
     f9a:	81 30       	cpi	r24, 0x01	; 1
     f9c:	31 f4       	brne	.+12     	; 0xfaa
     f9e:	a7 01       	movw	r20, r14
     fa0:	ce 01       	movw	r24, r28
     fa2:	01 96       	adiw	r24, 0x01	; 1
     fa4:	0e 94 ef 06 	call	0xdde
     fa8:	01 c0       	rjmp	.+2      	; 0xfac
     faa:	11 e0       	ldi	r17, 0x01	; 1
     fac:	11 23       	and	r17, r17
     fae:	e9 f2       	breq	.-70     	; 0xf6a
     fb0:	26 96       	adiw	r28, 0x06	; 6
     fb2:	0f b6       	in	r0, 0x3f	; 63
     fb4:	f8 94       	cli
     fb6:	de bf       	out	0x3e, r29	; 62
     fb8:	0f be       	out	0x3f, r0	; 63
     fba:	cd bf       	out	0x3d, r28	; 61
     fbc:	df 91       	pop	r29
     fbe:	cf 91       	pop	r28
     fc0:	1f 91       	pop	r17
     fc2:	ff 90       	pop	r15
     fc4:	ef 90       	pop	r14
     fc6:	08 95       	ret

00000fc8 <random>:
     fc8:	e1 e0       	ldi	r30, 0x01	; 1
     fca:	f0 e0       	ldi	r31, 0x00	; 0
     fcc:	40 91 ca 01 	lds	r20, 0x01CA
     fd0:	50 91 cb 01 	lds	r21, 0x01CB
     fd4:	67 e0       	ldi	r22, 0x07	; 7
     fd6:	9a 01       	movw	r18, r20
     fd8:	22 0f       	add	r18, r18
     fda:	33 1f       	adc	r19, r19
     fdc:	ca 01       	movw	r24, r20
     fde:	96 95       	lsr	r25
     fe0:	87 95       	ror	r24
     fe2:	81 70       	andi	r24, 0x01	; 1
     fe4:	90 70       	andi	r25, 0x00	; 0
     fe6:	28 27       	eor	r18, r24
     fe8:	39 27       	eor	r19, r25
     fea:	85 2f       	mov	r24, r21
     fec:	99 27       	eor	r25, r25
     fee:	81 70       	andi	r24, 0x01	; 1
     ff0:	90 70       	andi	r25, 0x00	; 0
     ff2:	28 27       	eor	r18, r24
     ff4:	39 27       	eor	r19, r25
     ff6:	ca 01       	movw	r24, r20
     ff8:	89 2f       	mov	r24, r25
     ffa:	99 27       	eor	r25, r25
     ffc:	86 95       	lsr	r24
     ffe:	81 70       	andi	r24, 0x01	; 1
    1000:	90 70       	andi	r25, 0x00	; 0
    1002:	28 27       	eor	r18, r24
    1004:	39 27       	eor	r19, r25
    1006:	ca 01       	movw	r24, r20
    1008:	89 2f       	mov	r24, r25
    100a:	99 27       	eor	r25, r25
    100c:	82 95       	swap	r24
    100e:	86 95       	lsr	r24
    1010:	87 70       	andi	r24, 0x07	; 7
    1012:	81 70       	andi	r24, 0x01	; 1
    1014:	90 70       	andi	r25, 0x00	; 0
    1016:	28 27       	eor	r18, r24
    1018:	39 27       	eor	r19, r25
    101a:	57 ff       	sbrs	r21, 7
    101c:	02 c0       	rjmp	.+4      	; 0x1022
    101e:	2e 27       	eor	r18, r30
    1020:	3f 27       	eor	r19, r31
    1022:	a9 01       	movw	r20, r18
    1024:	61 50       	subi	r22, 0x01	; 1
    1026:	67 ff       	sbrs	r22, 7
    1028:	d6 cf       	rjmp	.-84     	; 0xfd6
    102a:	30 93 cb 01 	sts	0x01CB, r19
    102e:	20 93 ca 01 	sts	0x01CA, r18
    1032:	80 91 ca 01 	lds	r24, 0x01CA
    1036:	99 27       	eor	r25, r25
    1038:	08 95       	ret

0000103a <snake>:
    103a:	2f 92       	push	r2
    103c:	3f 92       	push	r3
    103e:	4f 92       	push	r4
    1040:	5f 92       	push	r5
    1042:	6f 92       	push	r6
    1044:	7f 92       	push	r7
    1046:	8f 92       	push	r8
    1048:	9f 92       	push	r9
    104a:	af 92       	push	r10
    104c:	bf 92       	push	r11
    104e:	cf 92       	push	r12
    1050:	df 92       	push	r13
    1052:	ef 92       	push	r14
    1054:	ff 92       	push	r15
    1056:	0f 93       	push	r16
    1058:	1f 93       	push	r17
    105a:	cf 93       	push	r28
    105c:	df 93       	push	r29
    105e:	cd b7       	in	r28, 0x3d	; 61
    1060:	de b7       	in	r29, 0x3e	; 62
    1062:	ca 59       	subi	r28, 0x9A	; 154
    1064:	d0 40       	sbci	r29, 0x00	; 0
    1066:	0f b6       	in	r0, 0x3f	; 63
    1068:	f8 94       	cli
    106a:	de bf       	out	0x3e, r29	; 62
    106c:	0f be       	out	0x3f, r0	; 63
    106e:	cd bf       	out	0x3d, r28	; 61
    1070:	88 e0       	ldi	r24, 0x08	; 8
    1072:	98 2f       	mov	r25, r24
    1074:	89 83       	std	Y+1, r24	; 0x01
    1076:	9a 83       	std	Y+2, r25	; 0x02
    1078:	97 e0       	ldi	r25, 0x07	; 7
    107a:	8b 83       	std	Y+3, r24	; 0x03
    107c:	9c 83       	std	Y+4, r25	; 0x04
    107e:	9e 01       	movw	r18, r28
    1080:	2d 5f       	subi	r18, 0xFD	; 253
    1082:	3f 4f       	sbci	r19, 0xFF	; 255
    1084:	cb 56       	subi	r28, 0x6B	; 107
    1086:	df 4f       	sbci	r29, 0xFF	; 255
    1088:	28 83       	st	Y, r18
    108a:	39 83       	std	Y+1, r19	; 0x01
    108c:	c5 59       	subi	r28, 0x95	; 149
    108e:	d0 40       	sbci	r29, 0x00	; 0
    1090:	ce 01       	movw	r24, r28
    1092:	01 96       	adiw	r24, 0x01	; 1
    1094:	c9 56       	subi	r28, 0x69	; 105
    1096:	df 4f       	sbci	r29, 0xFF	; 255
    1098:	88 83       	st	Y, r24
    109a:	99 83       	std	Y+1, r25	; 0x01
    109c:	c7 59       	subi	r28, 0x97	; 151
    109e:	d0 40       	sbci	r29, 0x00	; 0
    10a0:	33 24       	eor	r3, r3
    10a2:	32 e0       	ldi	r19, 0x02	; 2
    10a4:	63 2e       	mov	r6, r19
    10a6:	71 2c       	mov	r7, r1
    10a8:	83 2d       	mov	r24, r3
    10aa:	0e 94 da 05 	call	0xbb4
    10ae:	c7 56       	subi	r28, 0x67	; 103
    10b0:	df 4f       	sbci	r29, 0xFF	; 255
    10b2:	38 82       	st	Y, r3
    10b4:	c9 59       	subi	r28, 0x99	; 153
    10b6:	d0 40       	sbci	r29, 0x00	; 0
    10b8:	c7 56       	subi	r28, 0x67	; 103
    10ba:	df 4f       	sbci	r29, 0xFF	; 255
    10bc:	98 81       	ld	r25, Y
    10be:	c9 59       	subi	r28, 0x99	; 153
    10c0:	d0 40       	sbci	r29, 0x00	; 0
    10c2:	9f 5f       	subi	r25, 0xFF	; 255
    10c4:	c7 56       	subi	r28, 0x67	; 103
    10c6:	df 4f       	sbci	r29, 0xFF	; 255
    10c8:	98 83       	st	Y, r25
    10ca:	c9 59       	subi	r28, 0x99	; 153
    10cc:	d0 40       	sbci	r29, 0x00	; 0
    10ce:	cb 56       	subi	r28, 0x6B	; 107
    10d0:	df 4f       	sbci	r29, 0xFF	; 255
    10d2:	e8 81       	ld	r30, Y
    10d4:	f9 81       	ldd	r31, Y+1	; 0x01
    10d6:	c5 59       	subi	r28, 0x95	; 149
    10d8:	d0 40       	sbci	r29, 0x00	; 0
    10da:	81 90       	ld	r8, Z+
    10dc:	91 90       	ld	r9, Z+
    10de:	cb 56       	subi	r28, 0x6B	; 107
    10e0:	df 4f       	sbci	r29, 0xFF	; 255
    10e2:	e8 83       	st	Y, r30
    10e4:	f9 83       	std	Y+1, r31	; 0x01
    10e6:	c5 59       	subi	r28, 0x95	; 149
    10e8:	d0 40       	sbci	r29, 0x00	; 0
    10ea:	21 e8       	ldi	r18, 0x81	; 129
    10ec:	42 2e       	mov	r4, r18
    10ee:	51 2c       	mov	r5, r1
    10f0:	4c 0e       	add	r4, r28
    10f2:	5d 1e       	adc	r5, r29
    10f4:	e4 15       	cp	r30, r4
    10f6:	f5 05       	cpc	r31, r5
    10f8:	49 f4       	brne	.+18     	; 0x110c
    10fa:	9e 01       	movw	r18, r28
    10fc:	2f 5f       	subi	r18, 0xFF	; 255
    10fe:	3f 4f       	sbci	r19, 0xFF	; 255
    1100:	cb 56       	subi	r28, 0x6B	; 107
    1102:	df 4f       	sbci	r29, 0xFF	; 255
    1104:	28 83       	st	Y, r18
    1106:	39 83       	std	Y+1, r19	; 0x01
    1108:	c5 59       	subi	r28, 0x95	; 149
    110a:	d0 40       	sbci	r29, 0x00	; 0
    110c:	c6 56       	subi	r28, 0x66	; 102
    110e:	df 4f       	sbci	r29, 0xFF	; 255
    1110:	18 82       	st	Y, r1
    1112:	ca 59       	subi	r28, 0x9A	; 154
    1114:	d0 40       	sbci	r29, 0x00	; 0
    1116:	c6 56       	subi	r28, 0x66	; 102
    1118:	df 4f       	sbci	r29, 0xFF	; 255
    111a:	28 80       	ld	r2, Y
    111c:	ca 59       	subi	r28, 0x9A	; 154
    111e:	d0 40       	sbci	r29, 0x00	; 0
    1120:	b2 2c       	mov	r11, r2
    1122:	b3 14       	cp	r11, r3
    1124:	08 f0       	brcs	.+2      	; 0x1128
    1126:	49 c0       	rjmp	.+146    	; 0x11ba
    1128:	aa 24       	eor	r10, r10
    112a:	ca 2c       	mov	r12, r10
    112c:	dd 24       	eor	r13, r13
    112e:	b6 01       	movw	r22, r12
    1130:	c4 01       	movw	r24, r8
    1132:	0e 94 d3 06 	call	0xda6
    1136:	eb 2c       	mov	r14, r11
    1138:	ff 24       	eor	r15, r15
    113a:	87 01       	movw	r16, r14
    113c:	0e 0d       	add	r16, r14
    113e:	1f 1d       	adc	r17, r15
    1140:	04 0d       	add	r16, r4
    1142:	15 1d       	adc	r17, r5
    1144:	f8 01       	movw	r30, r16
    1146:	90 81       	ld	r25, Z
    1148:	98 17       	cp	r25, r24
    114a:	41 f5       	brne	.+80     	; 0x119c
    114c:	b6 01       	movw	r22, r12
    114e:	c4 01       	movw	r24, r8
    1150:	0e 94 d3 06 	call	0xda6
    1154:	f8 01       	movw	r30, r16
    1156:	81 81       	ldd	r24, Z+1	; 0x01
    1158:	89 17       	cp	r24, r25
    115a:	01 f5       	brne	.+64     	; 0x119c
    115c:	f1 e0       	ldi	r31, 0x01	; 1
    115e:	c6 56       	subi	r28, 0x66	; 102
    1160:	df 4f       	sbci	r29, 0xFF	; 255
    1162:	f8 83       	st	Y, r31
    1164:	ca 59       	subi	r28, 0x9A	; 154
    1166:	d0 40       	sbci	r29, 0x00	; 0
    1168:	36 01       	movw	r6, r12
    116a:	23 2d       	mov	r18, r3
    116c:	33 27       	eor	r19, r19
    116e:	21 50       	subi	r18, 0x01	; 1
    1170:	30 40       	sbci	r19, 0x00	; 0
    1172:	e2 16       	cp	r14, r18
    1174:	f3 06       	cpc	r15, r19
    1176:	84 f4       	brge	.+32     	; 0x1198
    1178:	eb 2d       	mov	r30, r11
    117a:	ff 27       	eor	r31, r31
    117c:	ee 0f       	add	r30, r30
    117e:	ff 1f       	adc	r31, r31
    1180:	e4 0d       	add	r30, r4
    1182:	f5 1d       	adc	r31, r5
    1184:	82 81       	ldd	r24, Z+2	; 0x02
    1186:	93 81       	ldd	r25, Z+3	; 0x03
    1188:	80 83       	st	Z, r24
    118a:	91 83       	std	Z+1, r25	; 0x01
    118c:	b3 94       	inc	r11
    118e:	8b 2d       	mov	r24, r11
    1190:	99 27       	eor	r25, r25
    1192:	82 17       	cp	r24, r18
    1194:	93 07       	cpc	r25, r19
    1196:	84 f3       	brlt	.-32     	; 0x1178
    1198:	3a 94       	dec	r3
    119a:	15 c0       	rjmp	.+42     	; 0x11c6
    119c:	a3 94       	inc	r10
    119e:	23 e0       	ldi	r18, 0x03	; 3
    11a0:	2a 15       	cp	r18, r10
    11a2:	18 f6       	brcc	.-122    	; 0x112a
    11a4:	b3 94       	inc	r11
    11a6:	bd cf       	rjmp	.-134    	; 0x1122
    11a8:	23 94       	inc	r2
    11aa:	35 e0       	ldi	r19, 0x05	; 5
    11ac:	23 16       	cp	r2, r19
    11ae:	09 f4       	brne	.+2      	; 0x11b2
    11b0:	ef c0       	rjmp	.+478    	; 0x1390
    11b2:	c3 01       	movw	r24, r6
    11b4:	0e 94 a5 06 	call	0xd4a
    11b8:	3c 01       	movw	r6, r24
    11ba:	b3 01       	movw	r22, r6
    11bc:	c4 01       	movw	r24, r8
    11be:	0e 94 87 06 	call	0xd0e
    11c2:	88 23       	and	r24, r24
    11c4:	89 f7       	brne	.-30     	; 0x11a8
    11c6:	b3 01       	movw	r22, r6
    11c8:	c4 01       	movw	r24, r8
    11ca:	0e 94 d3 06 	call	0xda6
    11ce:	cb 56       	subi	r28, 0x6B	; 107
    11d0:	df 4f       	sbci	r29, 0xFF	; 255
    11d2:	e8 81       	ld	r30, Y
    11d4:	f9 81       	ldd	r31, Y+1	; 0x01
    11d6:	c5 59       	subi	r28, 0x95	; 149
    11d8:	d0 40       	sbci	r29, 0x00	; 0
    11da:	80 83       	st	Z, r24
    11dc:	91 83       	std	Z+1, r25	; 0x01
    11de:	63 e0       	ldi	r22, 0x03	; 3
    11e0:	0e 94 f3 05 	call	0xbe6
    11e4:	0e 94 e4 07 	call	0xfc8
    11e8:	80 35       	cpi	r24, 0x50	; 80
    11ea:	08 f0       	brcs	.+2      	; 0x11ee
    11ec:	82 c0       	rjmp	.+260    	; 0x12f2
    11ee:	70 e0       	ldi	r23, 0x00	; 0
    11f0:	9f ef       	ldi	r25, 0xFF	; 255
    11f2:	e9 2e       	mov	r14, r25
    11f4:	f7 2e       	mov	r15, r23
    11f6:	33 20       	and	r3, r3
    11f8:	31 f4       	brne	.+12     	; 0x1206
    11fa:	0e 94 e4 07 	call	0xfc8
    11fe:	83 70       	andi	r24, 0x03	; 3
    1200:	68 2e       	mov	r6, r24
    1202:	77 24       	eor	r7, r7
    1204:	79 c0       	rjmp	.+242    	; 0x12f8
    1206:	67 2f       	mov	r22, r23
    1208:	73 15       	cp	r23, r3
    120a:	08 f0       	brcs	.+2      	; 0x120e
    120c:	42 c0       	rjmp	.+132    	; 0x1292
    120e:	8e 01       	movw	r16, r28
    1210:	0f 57       	subi	r16, 0x7F	; 127
    1212:	1f 4f       	sbci	r17, 0xFF	; 255
    1214:	cb 56       	subi	r28, 0x6B	; 107
    1216:	df 4f       	sbci	r29, 0xFF	; 255
    1218:	e8 81       	ld	r30, Y
    121a:	f9 81       	ldd	r31, Y+1	; 0x01
    121c:	c5 59       	subi	r28, 0x95	; 149
    121e:	d0 40       	sbci	r29, 0x00	; 0
    1220:	50 81       	ld	r21, Z
    1222:	a6 2f       	mov	r26, r22
    1224:	bb 27       	eor	r27, r27
    1226:	fd 01       	movw	r30, r26
    1228:	ea 0f       	add	r30, r26
    122a:	fb 1f       	adc	r31, r27
    122c:	e0 0f       	add	r30, r16
    122e:	f1 1f       	adc	r31, r17
    1230:	e0 81       	ld	r30, Z
    1232:	e5 17       	cp	r30, r21
    1234:	18 f4       	brcc	.+6      	; 0x123c
    1236:	45 2f       	mov	r20, r21
    1238:	4e 1b       	sub	r20, r30
    123a:	02 c0       	rjmp	.+4      	; 0x1240
    123c:	4e 2f       	mov	r20, r30
    123e:	45 1b       	sub	r20, r21
    1240:	aa 0f       	add	r26, r26
    1242:	bb 1f       	adc	r27, r27
    1244:	a0 0f       	add	r26, r16
    1246:	b1 1f       	adc	r27, r17
    1248:	cb 56       	subi	r28, 0x6B	; 107
    124a:	df 4f       	sbci	r29, 0xFF	; 255
    124c:	e8 81       	ld	r30, Y
    124e:	f9 81       	ldd	r31, Y+1	; 0x01
    1250:	c5 59       	subi	r28, 0x95	; 149
    1252:	d0 40       	sbci	r29, 0x00	; 0
    1254:	81 81       	ldd	r24, Z+1	; 0x01
    1256:	fd 01       	movw	r30, r26
    1258:	91 81       	ldd	r25, Z+1	; 0x01
    125a:	98 17       	cp	r25, r24
    125c:	18 f4       	brcc	.+6      	; 0x1264
    125e:	e8 2f       	mov	r30, r24
    1260:	e9 1b       	sub	r30, r25
    1262:	02 c0       	rjmp	.+4      	; 0x1268
    1264:	e9 2f       	mov	r30, r25
    1266:	e8 1b       	sub	r30, r24
    1268:	84 2f       	mov	r24, r20
    126a:	8e 0f       	add	r24, r30
    126c:	91 2d       	mov	r25, r1
    126e:	91 1d       	adc	r25, r1
    1270:	9c 01       	movw	r18, r24
    1272:	8e 2d       	mov	r24, r14
    1274:	99 27       	eor	r25, r25
    1276:	28 17       	cp	r18, r24
    1278:	39 07       	cpc	r19, r25
    127a:	44 f4       	brge	.+16     	; 0x128c
    127c:	e4 2e       	mov	r14, r20
    127e:	ee 0e       	add	r14, r30
    1280:	76 2f       	mov	r23, r22
    1282:	ff 24       	eor	r15, r15
    1284:	e4 17       	cp	r30, r20
    1286:	10 f4       	brcc	.+4      	; 0x128c
    1288:	81 e0       	ldi	r24, 0x01	; 1
    128a:	f8 2e       	mov	r15, r24
    128c:	6f 5f       	subi	r22, 0xFF	; 255
    128e:	63 15       	cp	r22, r3
    1290:	40 f2       	brcs	.-112    	; 0x1222
    1292:	ce 01       	movw	r24, r28
    1294:	8f 57       	subi	r24, 0x7F	; 127
    1296:	9f 4f       	sbci	r25, 0xFF	; 255
    1298:	e7 2f       	mov	r30, r23
    129a:	ff 27       	eor	r31, r31
    129c:	ff 20       	and	r15, r15
    129e:	a1 f0       	breq	.+40     	; 0x12c8
    12a0:	66 24       	eor	r6, r6
    12a2:	77 24       	eor	r7, r7
    12a4:	ee 0f       	add	r30, r30
    12a6:	ff 1f       	adc	r31, r31
    12a8:	e8 0f       	add	r30, r24
    12aa:	f9 1f       	adc	r31, r25
    12ac:	90 81       	ld	r25, Z
    12ae:	cb 56       	subi	r28, 0x6B	; 107
    12b0:	df 4f       	sbci	r29, 0xFF	; 255
    12b2:	e8 81       	ld	r30, Y
    12b4:	f9 81       	ldd	r31, Y+1	; 0x01
    12b6:	c5 59       	subi	r28, 0x95	; 149
    12b8:	d0 40       	sbci	r29, 0x00	; 0
    12ba:	80 81       	ld	r24, Z
    12bc:	89 17       	cp	r24, r25
    12be:	c8 f4       	brcc	.+50     	; 0x12f2
    12c0:	01 e0       	ldi	r16, 0x01	; 1
    12c2:	60 2e       	mov	r6, r16
    12c4:	71 2c       	mov	r7, r1
    12c6:	15 c0       	rjmp	.+42     	; 0x12f2
    12c8:	ee 0f       	add	r30, r30
    12ca:	ff 1f       	adc	r31, r31
    12cc:	e8 0f       	add	r30, r24
    12ce:	f9 1f       	adc	r31, r25
    12d0:	91 81       	ldd	r25, Z+1	; 0x01
    12d2:	cb 56       	subi	r28, 0x6B	; 107
    12d4:	df 4f       	sbci	r29, 0xFF	; 255
    12d6:	e8 81       	ld	r30, Y
    12d8:	f9 81       	ldd	r31, Y+1	; 0x01
    12da:	c5 59       	subi	r28, 0x95	; 149
    12dc:	d0 40       	sbci	r29, 0x00	; 0
    12de:	81 81       	ldd	r24, Z+1	; 0x01
    12e0:	89 17       	cp	r24, r25
    12e2:	20 f4       	brcc	.+8      	; 0x12ec
    12e4:	13 e0       	ldi	r17, 0x03	; 3
    12e6:	61 2e       	mov	r6, r17
    12e8:	71 2c       	mov	r7, r1
    12ea:	03 c0       	rjmp	.+6      	; 0x12f2
    12ec:	b2 e0       	ldi	r27, 0x02	; 2
    12ee:	6b 2e       	mov	r6, r27
    12f0:	71 2c       	mov	r7, r1
    12f2:	f8 e0       	ldi	r31, 0x08	; 8
    12f4:	f3 15       	cp	r31, r3
    12f6:	e8 f0       	brcs	.+58     	; 0x1332
    12f8:	0e 94 e4 07 	call	0xfc8
    12fc:	8a 30       	cpi	r24, 0x0A	; 10
    12fe:	c8 f4       	brcc	.+50     	; 0x1332
    1300:	0e 94 e4 07 	call	0xfc8
    1304:	08 2f       	mov	r16, r24
    1306:	0f 70       	andi	r16, 0x0F	; 15
    1308:	0e 94 e4 07 	call	0xfc8
    130c:	18 2f       	mov	r17, r24
    130e:	1f 70       	andi	r17, 0x0F	; 15
    1310:	c8 01       	movw	r24, r16
    1312:	0e 94 63 06 	call	0xcc6
    1316:	88 23       	and	r24, r24
    1318:	61 f4       	brne	.+24     	; 0x1332
    131a:	e3 2d       	mov	r30, r3
    131c:	ff 27       	eor	r31, r31
    131e:	ee 0f       	add	r30, r30
    1320:	ff 1f       	adc	r31, r31
    1322:	ce 01       	movw	r24, r28
    1324:	8f 57       	subi	r24, 0x7F	; 127
    1326:	9f 4f       	sbci	r25, 0xFF	; 255
    1328:	e8 0f       	add	r30, r24
    132a:	f9 1f       	adc	r31, r25
    132c:	00 83       	st	Z, r16
    132e:	11 83       	std	Z+1, r17	; 0x01
    1330:	33 94       	inc	r3
    1332:	c6 56       	subi	r28, 0x66	; 102
    1334:	df 4f       	sbci	r29, 0xFF	; 255
    1336:	28 81       	ld	r18, Y
    1338:	ca 59       	subi	r28, 0x9A	; 154
    133a:	d0 40       	sbci	r29, 0x00	; 0
    133c:	22 23       	and	r18, r18
    133e:	09 f0       	breq	.+2      	; 0x1342
    1340:	70 c0       	rjmp	.+224    	; 0x1422
    1342:	62 2f       	mov	r22, r18
    1344:	c9 56       	subi	r28, 0x69	; 105
    1346:	df 4f       	sbci	r29, 0xFF	; 255
    1348:	e8 81       	ld	r30, Y
    134a:	f9 81       	ldd	r31, Y+1	; 0x01
    134c:	c7 59       	subi	r28, 0x97	; 151
    134e:	d0 40       	sbci	r29, 0x00	; 0
    1350:	81 91       	ld	r24, Z+
    1352:	91 91       	ld	r25, Z+
    1354:	c9 56       	subi	r28, 0x69	; 105
    1356:	df 4f       	sbci	r29, 0xFF	; 255
    1358:	e8 83       	st	Y, r30
    135a:	f9 83       	std	Y+1, r31	; 0x01
    135c:	c7 59       	subi	r28, 0x97	; 151
    135e:	d0 40       	sbci	r29, 0x00	; 0
    1360:	0e 94 f3 05 	call	0xbe6
    1364:	ce 01       	movw	r24, r28
    1366:	8f 57       	subi	r24, 0x7F	; 127
    1368:	9f 4f       	sbci	r25, 0xFF	; 255
    136a:	c9 56       	subi	r28, 0x69	; 105
    136c:	df 4f       	sbci	r29, 0xFF	; 255
    136e:	28 81       	ld	r18, Y
    1370:	39 81       	ldd	r19, Y+1	; 0x01
    1372:	c7 59       	subi	r28, 0x97	; 151
    1374:	d0 40       	sbci	r29, 0x00	; 0
    1376:	28 17       	cp	r18, r24
    1378:	39 07       	cpc	r19, r25
    137a:	09 f0       	breq	.+2      	; 0x137e
    137c:	52 c0       	rjmp	.+164    	; 0x1422
    137e:	ce 01       	movw	r24, r28
    1380:	01 96       	adiw	r24, 0x01	; 1
    1382:	c9 56       	subi	r28, 0x69	; 105
    1384:	df 4f       	sbci	r29, 0xFF	; 255
    1386:	88 83       	st	Y, r24
    1388:	99 83       	std	Y+1, r25	; 0x01
    138a:	c7 59       	subi	r28, 0x97	; 151
    138c:	d0 40       	sbci	r29, 0x00	; 0
    138e:	49 c0       	rjmp	.+146    	; 0x1422
    1390:	c9 56       	subi	r28, 0x69	; 105
    1392:	df 4f       	sbci	r29, 0xFF	; 255
    1394:	e8 81       	ld	r30, Y
    1396:	f9 81       	ldd	r31, Y+1	; 0x01
    1398:	c7 59       	subi	r28, 0x97	; 151
    139a:	d0 40       	sbci	r29, 0x00	; 0
    139c:	cb 56       	subi	r28, 0x6B	; 107
    139e:	df 4f       	sbci	r29, 0xFF	; 255
    13a0:	28 81       	ld	r18, Y
    13a2:	39 81       	ldd	r19, Y+1	; 0x01
    13a4:	c5 59       	subi	r28, 0x95	; 149
    13a6:	d0 40       	sbci	r29, 0x00	; 0
    13a8:	e2 17       	cp	r30, r18
    13aa:	f3 07       	cpc	r31, r19
    13ac:	09 f4       	brne	.+2      	; 0x13b0
    13ae:	65 c0       	rjmp	.+202    	; 0x147a
    13b0:	60 e0       	ldi	r22, 0x00	; 0
    13b2:	c9 56       	subi	r28, 0x69	; 105
    13b4:	df 4f       	sbci	r29, 0xFF	; 255
    13b6:	e8 81       	ld	r30, Y
    13b8:	f9 81       	ldd	r31, Y+1	; 0x01
    13ba:	c7 59       	subi	r28, 0x97	; 151
    13bc:	d0 40       	sbci	r29, 0x00	; 0
    13be:	81 91       	ld	r24, Z+
    13c0:	91 91       	ld	r25, Z+
    13c2:	c9 56       	subi	r28, 0x69	; 105
    13c4:	df 4f       	sbci	r29, 0xFF	; 255
    13c6:	e8 83       	st	Y, r30
    13c8:	f9 83       	std	Y+1, r31	; 0x01
    13ca:	c7 59       	subi	r28, 0x97	; 151
    13cc:	d0 40       	sbci	r29, 0x00	; 0
    13ce:	0e 94 f3 05 	call	0xbe6
    13d2:	ce 01       	movw	r24, r28
    13d4:	8f 57       	subi	r24, 0x7F	; 127
    13d6:	9f 4f       	sbci	r25, 0xFF	; 255
    13d8:	c9 56       	subi	r28, 0x69	; 105
    13da:	df 4f       	sbci	r29, 0xFF	; 255
    13dc:	28 81       	ld	r18, Y
    13de:	39 81       	ldd	r19, Y+1	; 0x01
    13e0:	c7 59       	subi	r28, 0x97	; 151
    13e2:	d0 40       	sbci	r29, 0x00	; 0
    13e4:	82 17       	cp	r24, r18
    13e6:	93 07       	cpc	r25, r19
    13e8:	40 f4       	brcc	.+16     	; 0x13fa
    13ea:	ce 01       	movw	r24, r28
    13ec:	01 96       	adiw	r24, 0x01	; 1
    13ee:	c9 56       	subi	r28, 0x69	; 105
    13f0:	df 4f       	sbci	r29, 0xFF	; 255
    13f2:	88 83       	st	Y, r24
    13f4:	99 83       	std	Y+1, r25	; 0x01
    13f6:	c7 59       	subi	r28, 0x97	; 151
    13f8:	d0 40       	sbci	r29, 0x00	; 0
    13fa:	8c e3       	ldi	r24, 0x3C	; 60
    13fc:	90 e0       	ldi	r25, 0x00	; 0
    13fe:	0e 94 bb 05 	call	0xb76
    1402:	c9 56       	subi	r28, 0x69	; 105
    1404:	df 4f       	sbci	r29, 0xFF	; 255
    1406:	e8 81       	ld	r30, Y
    1408:	f9 81       	ldd	r31, Y+1	; 0x01
    140a:	c7 59       	subi	r28, 0x97	; 151
    140c:	d0 40       	sbci	r29, 0x00	; 0
    140e:	cb 56       	subi	r28, 0x6B	; 107
    1410:	df 4f       	sbci	r29, 0xFF	; 255
    1412:	28 81       	ld	r18, Y
    1414:	39 81       	ldd	r19, Y+1	; 0x01
    1416:	c5 59       	subi	r28, 0x95	; 149
    1418:	d0 40       	sbci	r29, 0x00	; 0
    141a:	e2 17       	cp	r30, r18
    141c:	f3 07       	cpc	r31, r19
    141e:	41 f6       	brne	.-112    	; 0x13b0
    1420:	2c c0       	rjmp	.+88     	; 0x147a
    1422:	bb 24       	eor	r11, r11
    1424:	b3 14       	cp	r11, r3
    1426:	20 f5       	brcc	.+72     	; 0x1470
    1428:	ce 01       	movw	r24, r28
    142a:	8f 57       	subi	r24, 0x7F	; 127
    142c:	9f 4f       	sbci	r25, 0xFF	; 255
    142e:	eb 2d       	mov	r30, r11
    1430:	ff 27       	eor	r31, r31
    1432:	1b 2d       	mov	r17, r11
    1434:	1f 5f       	subi	r17, 0xFF	; 255
    1436:	c7 56       	subi	r28, 0x67	; 103
    1438:	df 4f       	sbci	r29, 0xFF	; 255
    143a:	68 81       	ld	r22, Y
    143c:	c9 59       	subi	r28, 0x99	; 153
    143e:	d0 40       	sbci	r29, 0x00	; 0
    1440:	61 70       	andi	r22, 0x01	; 1
    1442:	c7 56       	subi	r28, 0x67	; 103
    1444:	df 4f       	sbci	r29, 0xFF	; 255
    1446:	38 81       	ld	r19, Y
    1448:	c9 59       	subi	r28, 0x99	; 153
    144a:	d0 40       	sbci	r29, 0x00	; 0
    144c:	30 ff       	sbrs	r19, 0
    144e:	06 c0       	rjmp	.+12     	; 0x145c
    1450:	ee 0f       	add	r30, r30
    1452:	ff 1f       	adc	r31, r31
    1454:	e8 0f       	add	r30, r24
    1456:	f9 1f       	adc	r31, r25
    1458:	63 e0       	ldi	r22, 0x03	; 3
    145a:	04 c0       	rjmp	.+8      	; 0x1464
    145c:	ee 0f       	add	r30, r30
    145e:	ff 1f       	adc	r31, r31
    1460:	e8 0f       	add	r30, r24
    1462:	f9 1f       	adc	r31, r25
    1464:	80 81       	ld	r24, Z
    1466:	91 81       	ldd	r25, Z+1	; 0x01
    1468:	0e 94 f3 05 	call	0xbe6
    146c:	b1 2e       	mov	r11, r17
    146e:	da cf       	rjmp	.-76     	; 0x1424
    1470:	84 e6       	ldi	r24, 0x64	; 100
    1472:	90 e0       	ldi	r25, 0x00	; 0
    1474:	0e 94 bb 05 	call	0xb76
    1478:	1f ce       	rjmp	.-962    	; 0x10b8
    147a:	c6 56       	subi	r28, 0x66	; 102
    147c:	df 4f       	sbci	r29, 0xFF	; 255
    147e:	0f b6       	in	r0, 0x3f	; 63
    1480:	f8 94       	cli
    1482:	de bf       	out	0x3e, r29	; 62
    1484:	0f be       	out	0x3f, r0	; 63
    1486:	cd bf       	out	0x3d, r28	; 61
    1488:	df 91       	pop	r29
    148a:	cf 91       	pop	r28
    148c:	1f 91       	pop	r17
    148e:	0f 91       	pop	r16
    1490:	ff 90       	pop	r15
    1492:	ef 90       	pop	r14
    1494:	df 90       	pop	r13
    1496:	cf 90       	pop	r12
    1498:	bf 90       	pop	r11
    149a:	af 90       	pop	r10
    149c:	9f 90       	pop	r9
    149e:	8f 90       	pop	r8
    14a0:	7f 90       	pop	r7
    14a2:	6f 90       	pop	r6
    14a4:	5f 90       	pop	r5
    14a6:	4f 90       	pop	r4
    14a8:	3f 90       	pop	r3
    14aa:	2f 90       	pop	r2
    14ac:	08 95       	ret

000014ae <joern1>:
    14ae:	1f 93       	push	r17
    14b0:	cf 93       	push	r28
    14b2:	c1 e0       	ldi	r28, 0x01	; 1
    14b4:	83 e0       	ldi	r24, 0x03	; 3
    14b6:	0e 94 da 05 	call	0xbb4
    14ba:	1f e4       	ldi	r17, 0x4F	; 79
    14bc:	9c 2f       	mov	r25, r28
    14be:	4f e0       	ldi	r20, 0x0F	; 15
    14c0:	20 e0       	ldi	r18, 0x00	; 0
    14c2:	30 e0       	ldi	r19, 0x00	; 0
    14c4:	f9 01       	movw	r30, r18
    14c6:	e9 5a       	subi	r30, 0xA9	; 169
    14c8:	fd 4f       	sbci	r31, 0xFD	; 253
    14ca:	81 e0       	ldi	r24, 0x01	; 1
    14cc:	91 93       	st	Z+, r25
    14ce:	81 50       	subi	r24, 0x01	; 1
    14d0:	87 ff       	sbrs	r24, 7
    14d2:	fc cf       	rjmp	.-8      	; 0x14cc
    14d4:	99 0f       	add	r25, r25
    14d6:	09 f4       	brne	.+2      	; 0x14da
    14d8:	91 e0       	ldi	r25, 0x01	; 1
    14da:	41 50       	subi	r20, 0x01	; 1
    14dc:	2e 5f       	subi	r18, 0xFE	; 254
    14de:	3f 4f       	sbci	r19, 0xFF	; 255
    14e0:	47 ff       	sbrs	r20, 7
    14e2:	f0 cf       	rjmp	.-32     	; 0x14c4
    14e4:	cc 0f       	add	r28, r28
    14e6:	09 f4       	brne	.+2      	; 0x14ea
    14e8:	c1 e0       	ldi	r28, 0x01	; 1
    14ea:	84 e6       	ldi	r24, 0x64	; 100
    14ec:	90 e0       	ldi	r25, 0x00	; 0
    14ee:	0e 94 bb 05 	call	0xb76
    14f2:	11 50       	subi	r17, 0x01	; 1
    14f4:	17 ff       	sbrs	r17, 7
    14f6:	e2 cf       	rjmp	.-60     	; 0x14bc
    14f8:	cf 91       	pop	r28
    14fa:	1f 91       	pop	r17
    14fc:	08 95       	ret

000014fe <schachbrett>:
    14fe:	0f 93       	push	r16
    1500:	1f 93       	push	r17
    1502:	cf 93       	push	r28
    1504:	08 2f       	mov	r16, r24
    1506:	80 e0       	ldi	r24, 0x00	; 0
    1508:	0e 94 da 05 	call	0xbb4
    150c:	10 e0       	ldi	r17, 0x00	; 0
    150e:	10 17       	cp	r17, r16
    1510:	08 f0       	brcs	.+2      	; 0x1514
    1512:	44 c0       	rjmp	.+136    	; 0x159c
    1514:	c0 e0       	ldi	r28, 0x00	; 0
    1516:	45 e5       	ldi	r20, 0x55	; 85
    1518:	50 e0       	ldi	r21, 0x00	; 0
    151a:	8c 2f       	mov	r24, r28
    151c:	99 27       	eor	r25, r25
    151e:	9c 01       	movw	r18, r24
    1520:	21 70       	andi	r18, 0x01	; 1
    1522:	30 70       	andi	r19, 0x00	; 0
    1524:	ba 01       	movw	r22, r20
    1526:	02 c0       	rjmp	.+4      	; 0x152c
    1528:	66 0f       	add	r22, r22
    152a:	77 1f       	adc	r23, r23
    152c:	2a 95       	dec	r18
    152e:	e2 f7       	brpl	.-8      	; 0x1528
    1530:	9b 01       	movw	r18, r22
    1532:	fc 01       	movw	r30, r24
    1534:	e8 0f       	add	r30, r24
    1536:	f9 1f       	adc	r31, r25
    1538:	e9 5a       	subi	r30, 0xA9	; 169
    153a:	fd 4f       	sbci	r31, 0xFD	; 253
    153c:	81 e0       	ldi	r24, 0x01	; 1
    153e:	21 93       	st	Z+, r18
    1540:	81 50       	subi	r24, 0x01	; 1
    1542:	87 ff       	sbrs	r24, 7
    1544:	fc cf       	rjmp	.-8      	; 0x153e
    1546:	cf 5f       	subi	r28, 0xFF	; 255
    1548:	c0 31       	cpi	r28, 0x10	; 16
    154a:	38 f3       	brcs	.-50     	; 0x151a
    154c:	c0 e0       	ldi	r28, 0x00	; 0
    154e:	88 ec       	ldi	r24, 0xC8	; 200
    1550:	90 e0       	ldi	r25, 0x00	; 0
    1552:	0e 94 bb 05 	call	0xb76
    1556:	4a ea       	ldi	r20, 0xAA	; 170
    1558:	50 e0       	ldi	r21, 0x00	; 0
    155a:	8c 2f       	mov	r24, r28
    155c:	99 27       	eor	r25, r25
    155e:	9c 01       	movw	r18, r24
    1560:	21 70       	andi	r18, 0x01	; 1
    1562:	30 70       	andi	r19, 0x00	; 0
    1564:	ba 01       	movw	r22, r20
    1566:	02 c0       	rjmp	.+4      	; 0x156c
    1568:	75 95       	asr	r23
    156a:	67 95       	ror	r22
    156c:	2a 95       	dec	r18
    156e:	e2 f7       	brpl	.-8      	; 0x1568
    1570:	9b 01       	movw	r18, r22
    1572:	fc 01       	movw	r30, r24
    1574:	e8 0f       	add	r30, r24
    1576:	f9 1f       	adc	r31, r25
    1578:	e9 5a       	subi	r30, 0xA9	; 169
    157a:	fd 4f       	sbci	r31, 0xFD	; 253
    157c:	81 e0       	ldi	r24, 0x01	; 1
    157e:	21 93       	st	Z+, r18
    1580:	81 50       	subi	r24, 0x01	; 1
    1582:	87 ff       	sbrs	r24, 7
    1584:	fc cf       	rjmp	.-8      	; 0x157e
    1586:	cf 5f       	subi	r28, 0xFF	; 255
    1588:	c0 31       	cpi	r28, 0x10	; 16
    158a:	38 f3       	brcs	.-50     	; 0x155a
    158c:	88 ec       	ldi	r24, 0xC8	; 200
    158e:	90 e0       	ldi	r25, 0x00	; 0
    1590:	0e 94 bb 05 	call	0xb76
    1594:	1f 5f       	subi	r17, 0xFF	; 255
    1596:	10 17       	cp	r17, r16
    1598:	08 f4       	brcc	.+2      	; 0x159c
    159a:	bc cf       	rjmp	.-136    	; 0x1514
    159c:	cf 91       	pop	r28
    159e:	1f 91       	pop	r17
    15a0:	0f 91       	pop	r16
    15a2:	08 95       	ret

000015a4 <fadein>:
    15a4:	0f 93       	push	r16
    15a6:	1f 93       	push	r17
    15a8:	cf 93       	push	r28
    15aa:	01 e0       	ldi	r16, 0x01	; 1
    15ac:	10 e0       	ldi	r17, 0x00	; 0
    15ae:	c0 e0       	ldi	r28, 0x00	; 0
    15b0:	8c 2f       	mov	r24, r28
    15b2:	91 2f       	mov	r25, r17
    15b4:	60 2f       	mov	r22, r16
    15b6:	0e 94 f3 05 	call	0xbe6
    15ba:	8a e0       	ldi	r24, 0x0A	; 10
    15bc:	90 e0       	ldi	r25, 0x00	; 0
    15be:	0e 94 bb 05 	call	0xb76
    15c2:	cf 5f       	subi	r28, 0xFF	; 255
    15c4:	c0 31       	cpi	r28, 0x10	; 16
    15c6:	a0 f3       	brcs	.-24     	; 0x15b0
    15c8:	1f 5f       	subi	r17, 0xFF	; 255
    15ca:	10 31       	cpi	r17, 0x10	; 16
    15cc:	80 f3       	brcs	.-32     	; 0x15ae
    15ce:	0f 5f       	subi	r16, 0xFF	; 255
    15d0:	04 30       	cpi	r16, 0x04	; 4
    15d2:	60 f3       	brcs	.-40     	; 0x15ac
    15d4:	cf 91       	pop	r28
    15d6:	1f 91       	pop	r17
    15d8:	0f 91       	pop	r16
    15da:	08 95       	ret

000015dc <matrix>:
    15dc:	3f 92       	push	r3
    15de:	4f 92       	push	r4
    15e0:	5f 92       	push	r5
    15e2:	6f 92       	push	r6
    15e4:	7f 92       	push	r7
    15e6:	8f 92       	push	r8
    15e8:	9f 92       	push	r9
    15ea:	af 92       	push	r10
    15ec:	bf 92       	push	r11
    15ee:	cf 92       	push	r12
    15f0:	df 92       	push	r13
    15f2:	ef 92       	push	r14
    15f4:	ff 92       	push	r15
    15f6:	0f 93       	push	r16
    15f8:	1f 93       	push	r17
    15fa:	cf 93       	push	r28
    15fc:	df 93       	push	r29
    15fe:	cd b7       	in	r28, 0x3d	; 61
    1600:	de b7       	in	r29, 0x3e	; 62
    1602:	c0 5c       	subi	r28, 0xC0	; 192
    1604:	d1 40       	sbci	r29, 0x01	; 1
    1606:	0f b6       	in	r0, 0x3f	; 63
    1608:	f8 94       	cli
    160a:	de bf       	out	0x3e, r29	; 62
    160c:	0f be       	out	0x3f, r0	; 63
    160e:	cd bf       	out	0x3d, r28	; 61
    1610:	99 24       	eor	r9, r9
    1612:	89 2c       	mov	r8, r9
    1614:	e3 ef       	ldi	r30, 0xF3	; 243
    1616:	6e 2e       	mov	r6, r30
    1618:	e1 e0       	ldi	r30, 0x01	; 1
    161a:	7e 2e       	mov	r7, r30
    161c:	cc 24       	eor	r12, r12
    161e:	75 eb       	ldi	r23, 0xB5	; 181
    1620:	47 2e       	mov	r4, r23
    1622:	51 2c       	mov	r5, r1
    1624:	4c 0e       	add	r4, r28
    1626:	5d 1e       	adc	r5, r29
    1628:	ec 2d       	mov	r30, r12
    162a:	ff 27       	eor	r31, r31
    162c:	64 e0       	ldi	r22, 0x04	; 4
    162e:	ee 0f       	add	r30, r30
    1630:	ff 1f       	adc	r31, r31
    1632:	6a 95       	dec	r22
    1634:	e1 f7       	brne	.-8      	; 0x162e
    1636:	ec 0f       	add	r30, r28
    1638:	fd 1f       	adc	r31, r29
    163a:	eb 54       	subi	r30, 0x4B	; 75
    163c:	ff 4f       	sbci	r31, 0xFF	; 255
    163e:	5f e0       	ldi	r21, 0x0F	; 15
    1640:	e5 2e       	mov	r14, r21
    1642:	11 92       	st	Z+, r1
    1644:	ea 94       	dec	r14
    1646:	e7 fe       	sbrs	r14, 7
    1648:	fc cf       	rjmp	.-8      	; 0x1642
    164a:	c3 94       	inc	r12
    164c:	8f e0       	ldi	r24, 0x0F	; 15
    164e:	8c 15       	cp	r24, r12
    1650:	58 f7       	brcc	.-42     	; 0x1628
    1652:	cc 24       	eor	r12, r12
    1654:	c9 14       	cp	r12, r9
    1656:	08 f0       	brcs	.+2      	; 0x165a
    1658:	9e c0       	rjmp	.+316    	; 0x1796
    165a:	45 eb       	ldi	r20, 0xB5	; 181
    165c:	e4 2e       	mov	r14, r20
    165e:	41 e0       	ldi	r20, 0x01	; 1
    1660:	f4 2e       	mov	r15, r20
    1662:	ec 0e       	add	r14, r28
    1664:	fd 1e       	adc	r15, r29
    1666:	5e 01       	movw	r10, r28
    1668:	08 94       	sec
    166a:	a1 1c       	adc	r10, r1
    166c:	b1 1c       	adc	r11, r1
    166e:	36 e0       	ldi	r19, 0x06	; 6
    1670:	33 2e       	mov	r3, r19
    1672:	4c 2d       	mov	r20, r12
    1674:	55 27       	eor	r21, r21
    1676:	fa 01       	movw	r30, r20
    1678:	ee 0f       	add	r30, r30
    167a:	ff 1f       	adc	r31, r31
    167c:	ee 0f       	add	r30, r30
    167e:	ff 1f       	adc	r31, r31
    1680:	e4 0f       	add	r30, r20
    1682:	f5 1f       	adc	r31, r21
    1684:	e4 0f       	add	r30, r20
    1686:	f5 1f       	adc	r31, r21
    1688:	ea 0d       	add	r30, r10
    168a:	fb 1d       	adc	r31, r11
    168c:	d7 01       	movw	r26, r14
    168e:	83 2d       	mov	r24, r3
    1690:	01 90       	ld	r0, Z+
    1692:	0d 92       	st	X+, r0
    1694:	8a 95       	dec	r24
    1696:	e1 f7       	brne	.-8      	; 0x1690
    1698:	7f ef       	ldi	r23, 0xFF	; 255
    169a:	dd 24       	eor	r13, r13
    169c:	f7 01       	movw	r30, r14
    169e:	62 81       	ldd	r22, Z+2	; 0x02
    16a0:	66 95       	lsr	r22
    16a2:	66 95       	lsr	r22
    16a4:	66 95       	lsr	r22
    16a6:	67 17       	cp	r22, r23
    16a8:	a1 f1       	breq	.+104    	; 0x1712
    16aa:	de 01       	movw	r26, r28
    16ac:	ab 54       	subi	r26, 0x4B	; 75
    16ae:	be 4f       	sbci	r27, 0xFE	; 254
    16b0:	fd 01       	movw	r30, r26
    16b2:	81 81       	ldd	r24, Z+1	; 0x01
    16b4:	08 2f       	mov	r16, r24
    16b6:	11 27       	eor	r17, r17
    16b8:	26 2f       	mov	r18, r22
    16ba:	33 27       	eor	r19, r19
    16bc:	c9 01       	movw	r24, r18
    16be:	80 0f       	add	r24, r16
    16c0:	91 1f       	adc	r25, r17
    16c2:	40 97       	sbiw	r24, 0x10	; 16
    16c4:	d4 f4       	brge	.+52     	; 0x16fa
    16c6:	87 2f       	mov	r24, r23
    16c8:	82 95       	swap	r24
    16ca:	86 95       	lsr	r24
    16cc:	86 95       	lsr	r24
    16ce:	83 70       	andi	r24, 0x03	; 3
    16d0:	11 f0       	breq	.+4      	; 0x16d6
    16d2:	91 e0       	ldi	r25, 0x01	; 1
    16d4:	d9 2e       	mov	r13, r25
    16d6:	8c 91       	ld	r24, X
    16d8:	e8 2f       	mov	r30, r24
    16da:	ff 27       	eor	r31, r31
    16dc:	84 e0       	ldi	r24, 0x04	; 4
    16de:	ee 0f       	add	r30, r30
    16e0:	ff 1f       	adc	r31, r31
    16e2:	8a 95       	dec	r24
    16e4:	e1 f7       	brne	.-8      	; 0x16de
    16e6:	e2 0f       	add	r30, r18
    16e8:	f3 1f       	adc	r31, r19
    16ea:	e0 0f       	add	r30, r16
    16ec:	f1 1f       	adc	r31, r17
    16ee:	e4 0d       	add	r30, r4
    16f0:	f5 1d       	adc	r31, r5
    16f2:	80 81       	ld	r24, Z
    16f4:	87 17       	cp	r24, r23
    16f6:	08 f4       	brcc	.+2      	; 0x16fa
    16f8:	70 83       	st	Z, r23
    16fa:	87 2f       	mov	r24, r23
    16fc:	82 95       	swap	r24
    16fe:	86 95       	lsr	r24
    1700:	87 70       	andi	r24, 0x07	; 7
    1702:	fd 01       	movw	r30, r26
    1704:	93 81       	ldd	r25, Z+3	; 0x03
    1706:	89 9f       	mul	r24, r25
    1708:	80 2d       	mov	r24, r0
    170a:	11 24       	eor	r1, r1
    170c:	78 1b       	sub	r23, r24
    170e:	61 50       	subi	r22, 0x01	; 1
    1710:	98 f6       	brcc	.-90     	; 0x16b8
    1712:	f7 01       	movw	r30, r14
    1714:	95 81       	ldd	r25, Z+5	; 0x05
    1716:	96 95       	lsr	r25
    1718:	82 81       	ldd	r24, Z+2	; 0x02
    171a:	89 0f       	add	r24, r25
    171c:	82 83       	std	Z+2, r24	; 0x02
    171e:	fa 01       	movw	r30, r20
    1720:	ee 0f       	add	r30, r30
    1722:	ff 1f       	adc	r31, r31
    1724:	ee 0f       	add	r30, r30
    1726:	ff 1f       	adc	r31, r31
    1728:	e4 0f       	add	r30, r20
    172a:	f5 1f       	adc	r31, r21
    172c:	e4 0f       	add	r30, r20
    172e:	f5 1f       	adc	r31, r21
    1730:	ea 0d       	add	r30, r10
    1732:	fb 1d       	adc	r31, r11
    1734:	d7 01       	movw	r26, r14
    1736:	83 2d       	mov	r24, r3
    1738:	0d 90       	ld	r0, X+
    173a:	01 92       	st	Z+, r0
    173c:	8a 95       	dec	r24
    173e:	e1 f7       	brne	.-8      	; 0x1738
    1740:	dd 20       	and	r13, r13
    1742:	29 f5       	brne	.+74     	; 0x178e
    1744:	6c 2d       	mov	r22, r12
    1746:	29 2d       	mov	r18, r9
    1748:	33 27       	eor	r19, r19
    174a:	21 50       	subi	r18, 0x01	; 1
    174c:	30 40       	sbci	r19, 0x00	; 0
    174e:	42 17       	cp	r20, r18
    1750:	53 07       	cpc	r21, r19
    1752:	dc f4       	brge	.+54     	; 0x178a
    1754:	46 e0       	ldi	r20, 0x06	; 6
    1756:	86 2f       	mov	r24, r22
    1758:	99 27       	eor	r25, r25
    175a:	fc 01       	movw	r30, r24
    175c:	ee 0f       	add	r30, r30
    175e:	ff 1f       	adc	r31, r31
    1760:	ee 0f       	add	r30, r30
    1762:	ff 1f       	adc	r31, r31
    1764:	e8 0f       	add	r30, r24
    1766:	f9 1f       	adc	r31, r25
    1768:	e8 0f       	add	r30, r24
    176a:	f9 1f       	adc	r31, r25
    176c:	ea 0d       	add	r30, r10
    176e:	fb 1d       	adc	r31, r11
    1770:	df 01       	movw	r26, r30
    1772:	16 96       	adiw	r26, 0x06	; 6
    1774:	84 2f       	mov	r24, r20
    1776:	0d 90       	ld	r0, X+
    1778:	01 92       	st	Z+, r0
    177a:	8a 95       	dec	r24
    177c:	e1 f7       	brne	.-8      	; 0x1776
    177e:	6f 5f       	subi	r22, 0xFF	; 255
    1780:	86 2f       	mov	r24, r22
    1782:	99 27       	eor	r25, r25
    1784:	82 17       	cp	r24, r18
    1786:	93 07       	cpc	r25, r19
    1788:	34 f3       	brlt	.-52     	; 0x1756
    178a:	9a 94       	dec	r9
    178c:	ca 94       	dec	r12
    178e:	c3 94       	inc	r12
    1790:	c9 14       	cp	r12, r9
    1792:	08 f4       	brcc	.+2      	; 0x1796
    1794:	6e cf       	rjmp	.-292    	; 0x1672
    1796:	ee 24       	eor	r14, r14
    1798:	cc 24       	eor	r12, r12
    179a:	0e 2d       	mov	r16, r14
    179c:	11 27       	eor	r17, r17
    179e:	8c 2d       	mov	r24, r12
    17a0:	9e 2d       	mov	r25, r14
    17a2:	fe 01       	movw	r30, r28
    17a4:	eb 54       	subi	r30, 0x4B	; 75
    17a6:	ff 4f       	sbci	r31, 0xFF	; 255
    17a8:	e0 0f       	add	r30, r16
    17aa:	f1 1f       	adc	r31, r17
    17ac:	20 81       	ld	r18, Z
    17ae:	22 95       	swap	r18
    17b0:	26 95       	lsr	r18
    17b2:	26 95       	lsr	r18
    17b4:	23 70       	andi	r18, 0x03	; 3
    17b6:	62 2f       	mov	r22, r18
    17b8:	0e 94 f3 05 	call	0xbe6
    17bc:	c3 94       	inc	r12
    17be:	00 5f       	subi	r16, 0xF0	; 240
    17c0:	1f 4f       	sbci	r17, 0xFF	; 255
    17c2:	af e0       	ldi	r26, 0x0F	; 15
    17c4:	ac 15       	cp	r26, r12
    17c6:	58 f7       	brcc	.-42     	; 0x179e
    17c8:	e3 94       	inc	r14
    17ca:	ae 15       	cp	r26, r14
    17cc:	28 f7       	brcc	.-54     	; 0x1798
    17ce:	e5 e0       	ldi	r30, 0x05	; 5
    17d0:	ae 2e       	mov	r10, r30
    17d2:	bd e1       	ldi	r27, 0x1D	; 29
    17d4:	b9 15       	cp	r27, r9
    17d6:	08 f4       	brcc	.+2      	; 0x17da
    17d8:	53 c0       	rjmp	.+166    	; 0x1880
    17da:	0e 94 e4 07 	call	0xfc8
    17de:	7f e1       	ldi	r23, 0x1F	; 31
    17e0:	b7 2e       	mov	r11, r23
    17e2:	b8 22       	and	r11, r24
    17e4:	ef e0       	ldi	r30, 0x0F	; 15
    17e6:	eb 15       	cp	r30, r11
    17e8:	08 f4       	brcc	.+2      	; 0x17ec
    17ea:	bb 24       	eor	r11, r11
    17ec:	89 2d       	mov	r24, r9
    17ee:	99 27       	eor	r25, r25
    17f0:	8c 01       	movw	r16, r24
    17f2:	00 0f       	add	r16, r16
    17f4:	11 1f       	adc	r17, r17
    17f6:	00 0f       	add	r16, r16
    17f8:	11 1f       	adc	r17, r17
    17fa:	08 0f       	add	r16, r24
    17fc:	19 1f       	adc	r17, r25
    17fe:	08 0f       	add	r16, r24
    1800:	19 1f       	adc	r17, r25
    1802:	ce 01       	movw	r24, r28
    1804:	01 96       	adiw	r24, 0x01	; 1
    1806:	08 0f       	add	r16, r24
    1808:	19 1f       	adc	r17, r25
    180a:	55 eb       	ldi	r21, 0xB5	; 181
    180c:	c5 2e       	mov	r12, r21
    180e:	51 e0       	ldi	r21, 0x01	; 1
    1810:	d5 2e       	mov	r13, r21
    1812:	cc 0e       	add	r12, r28
    1814:	dd 1e       	adc	r13, r29
    1816:	4b eb       	ldi	r20, 0xBB	; 187
    1818:	e4 2e       	mov	r14, r20
    181a:	41 e0       	ldi	r20, 0x01	; 1
    181c:	f4 2e       	mov	r15, r20
    181e:	ec 0e       	add	r14, r28
    1820:	fd 1e       	adc	r15, r29
    1822:	0e 94 e4 07 	call	0xfc8
    1826:	8f 70       	andi	r24, 0x0F	; 15
    1828:	d7 01       	movw	r26, r14
    182a:	8c 93       	st	X, r24
    182c:	f7 01       	movw	r30, r14
    182e:	b1 82       	std	Z+1, r11	; 0x01
    1830:	fe 01       	movw	r30, r28
    1832:	e3 54       	subi	r30, 0x43	; 67
    1834:	fe 4f       	sbci	r31, 0xFE	; 254
    1836:	10 82       	st	Z, r1
    1838:	0e 94 e4 07 	call	0xfc8
    183c:	87 70       	andi	r24, 0x07	; 7
    183e:	84 5f       	subi	r24, 0xF4	; 244
    1840:	fe 01       	movw	r30, r28
    1842:	e2 54       	subi	r30, 0x42	; 66
    1844:	fe 4f       	sbci	r31, 0xFE	; 254
    1846:	80 83       	st	Z, r24
    1848:	88 2d       	mov	r24, r8
    184a:	83 94       	inc	r8
    184c:	fe 01       	movw	r30, r28
    184e:	e1 54       	subi	r30, 0x41	; 65
    1850:	fe 4f       	sbci	r31, 0xFE	; 254
    1852:	80 83       	st	Z, r24
    1854:	0e 94 e4 07 	call	0xfc8
    1858:	8f 70       	andi	r24, 0x0F	; 15
    185a:	8d 5f       	subi	r24, 0xFD	; 253
    185c:	fe 01       	movw	r30, r28
    185e:	e0 54       	subi	r30, 0x40	; 64
    1860:	fe 4f       	sbci	r31, 0xFE	; 254
    1862:	80 83       	st	Z, r24
    1864:	46 e0       	ldi	r20, 0x06	; 6
    1866:	50 e0       	ldi	r21, 0x00	; 0
    1868:	b7 01       	movw	r22, r14
    186a:	c6 01       	movw	r24, r12
    186c:	0e 94 c6 1b 	call	0x378c
    1870:	86 e0       	ldi	r24, 0x06	; 6
    1872:	d8 01       	movw	r26, r16
    1874:	f6 01       	movw	r30, r12
    1876:	01 90       	ld	r0, Z+
    1878:	0d 92       	st	X+, r0
    187a:	8a 95       	dec	r24
    187c:	e1 f7       	brne	.-8      	; 0x1876
    187e:	93 94       	inc	r9
    1880:	aa 94       	dec	r10
    1882:	a7 fe       	sbrs	r10, 7
    1884:	a6 cf       	rjmp	.-180    	; 0x17d2
    1886:	80 e5       	ldi	r24, 0x50	; 80
    1888:	90 e0       	ldi	r25, 0x00	; 0
    188a:	0e 94 bb 05 	call	0xb76
    188e:	08 94       	sec
    1890:	61 08       	sbc	r6, r1
    1892:	71 08       	sbc	r7, r1
    1894:	ff ef       	ldi	r31, 0xFF	; 255
    1896:	6f 16       	cp	r6, r31
    1898:	ff ef       	ldi	r31, 0xFF	; 255
    189a:	7f 06       	cpc	r7, r31
    189c:	09 f0       	breq	.+2      	; 0x18a0
    189e:	be ce       	rjmp	.-644    	; 0x161c
    18a0:	c0 54       	subi	r28, 0x40	; 64
    18a2:	de 4f       	sbci	r29, 0xFE	; 254
    18a4:	0f b6       	in	r0, 0x3f	; 63
    18a6:	f8 94       	cli
    18a8:	de bf       	out	0x3e, r29	; 62
    18aa:	0f be       	out	0x3f, r0	; 63
    18ac:	cd bf       	out	0x3d, r28	; 61
    18ae:	df 91       	pop	r29
    18b0:	cf 91       	pop	r28
    18b2:	1f 91       	pop	r17
    18b4:	0f 91       	pop	r16
    18b6:	ff 90       	pop	r15
    18b8:	ef 90       	pop	r14
    18ba:	df 90       	pop	r13
    18bc:	cf 90       	pop	r12
    18be:	bf 90       	pop	r11
    18c0:	af 90       	pop	r10
    18c2:	9f 90       	pop	r9
    18c4:	8f 90       	pop	r8
    18c6:	7f 90       	pop	r7
    18c8:	6f 90       	pop	r6
    18ca:	5f 90       	pop	r5
    18cc:	4f 90       	pop	r4
    18ce:	3f 90       	pop	r3
    18d0:	08 95       	ret

000018d2 <feuer>:
    18d2:	4f 92       	push	r4
    18d4:	5f 92       	push	r5
    18d6:	6f 92       	push	r6
    18d8:	7f 92       	push	r7
    18da:	8f 92       	push	r8
    18dc:	9f 92       	push	r9
    18de:	af 92       	push	r10
    18e0:	bf 92       	push	r11
    18e2:	cf 92       	push	r12
    18e4:	df 92       	push	r13
    18e6:	ef 92       	push	r14
    18e8:	ff 92       	push	r15
    18ea:	0f 93       	push	r16
    18ec:	1f 93       	push	r17
    18ee:	cf 93       	push	r28
    18f0:	df 93       	push	r29
    18f2:	cd b7       	in	r28, 0x3d	; 61
    18f4:	de b7       	in	r29, 0x3e	; 62
    18f6:	c0 53       	subi	r28, 0x30	; 48
    18f8:	d1 40       	sbci	r29, 0x01	; 1
    18fa:	0f b6       	in	r0, 0x3f	; 63
    18fc:	f8 94       	cli
    18fe:	de bf       	out	0x3e, r29	; 62
    1900:	0f be       	out	0x3f, r0	; 63
    1902:	cd bf       	out	0x3d, r28	; 61
    1904:	44 24       	eor	r4, r4
    1906:	55 24       	eor	r5, r5
    1908:	41 e0       	ldi	r20, 0x01	; 1
    190a:	94 2e       	mov	r9, r20
    190c:	3e 01       	movw	r6, r28
    190e:	08 94       	sec
    1910:	61 1c       	adc	r6, r1
    1912:	71 1c       	adc	r7, r1
    1914:	45 e0       	ldi	r20, 0x05	; 5
    1916:	3e e1       	ldi	r19, 0x1E	; 30
    1918:	83 2e       	mov	r8, r19
    191a:	a9 2c       	mov	r10, r9
    191c:	bb 24       	eor	r11, r11
    191e:	c5 01       	movw	r24, r10
    1920:	8c 0f       	add	r24, r28
    1922:	9d 1f       	adc	r25, r29
    1924:	8c 01       	movw	r16, r24
    1926:	0f 5f       	subi	r16, 0xFF	; 255
    1928:	1f 4f       	sbci	r17, 0xFF	; 255
    192a:	24 e1       	ldi	r18, 0x14	; 20
    192c:	c2 2e       	mov	r12, r18
    192e:	d1 2c       	mov	r13, r1
    1930:	c8 0e       	add	r12, r24
    1932:	d9 1e       	adc	r13, r25
    1934:	bd e0       	ldi	r27, 0x0D	; 13
    1936:	eb 2e       	mov	r14, r27
    1938:	d8 01       	movw	r26, r16
    193a:	8c 91       	ld	r24, X
    193c:	84 9f       	mul	r24, r20
    193e:	90 01       	movw	r18, r0
    1940:	11 24       	eor	r1, r1
    1942:	f6 01       	movw	r30, r12
    1944:	80 81       	ld	r24, Z
    1946:	88 9d       	mul	r24, r8
    1948:	c0 01       	movw	r24, r0
    194a:	11 24       	eor	r1, r1
    194c:	28 0f       	add	r18, r24
    194e:	39 1f       	adc	r19, r25
    1950:	83 89       	ldd	r24, Z+19	; 0x13
    1952:	84 9f       	mul	r24, r20
    1954:	c0 01       	movw	r24, r0
    1956:	11 24       	eor	r1, r1
    1958:	82 0f       	add	r24, r18
    195a:	93 1f       	adc	r25, r19
    195c:	6c e2       	ldi	r22, 0x2C	; 44
    195e:	70 e0       	ldi	r23, 0x00	; 0
    1960:	0e 94 64 1c 	call	0x38c8
    1964:	f8 01       	movw	r30, r16
    1966:	62 8b       	std	Z+18, r22	; 0x12
    1968:	ea 94       	dec	r14
    196a:	83 e1       	ldi	r24, 0x13	; 19
    196c:	90 e0       	ldi	r25, 0x00	; 0
    196e:	c8 0e       	add	r12, r24
    1970:	d9 1e       	adc	r13, r25
    1972:	08 0f       	add	r16, r24
    1974:	19 1f       	adc	r17, r25
    1976:	e7 fe       	sbrs	r14, 7
    1978:	df cf       	rjmp	.-66     	; 0x1938
    197a:	8e 01       	movw	r16, r28
    197c:	0a 0d       	add	r16, r10
    197e:	1b 1d       	adc	r17, r11
    1980:	ae e1       	ldi	r26, 0x1E	; 30
    1982:	ea 2e       	mov	r14, r26
    1984:	a1 e0       	ldi	r26, 0x01	; 1
    1986:	fa 2e       	mov	r15, r26
    1988:	ec 0e       	add	r14, r28
    198a:	fd 1e       	adc	r15, r29
    198c:	ea 0c       	add	r14, r10
    198e:	fb 1c       	adc	r15, r11
    1990:	d7 01       	movw	r26, r14
    1992:	8c 91       	ld	r24, X
    1994:	84 9f       	mul	r24, r20
    1996:	90 01       	movw	r18, r0
    1998:	11 24       	eor	r1, r1
    199a:	65 01       	movw	r12, r10
    199c:	c6 0c       	add	r12, r6
    199e:	d7 1c       	adc	r13, r7
    19a0:	f6 01       	movw	r30, r12
    19a2:	80 81       	ld	r24, Z
    19a4:	88 9d       	mul	r24, r8
    19a6:	c0 01       	movw	r24, r0
    19a8:	11 24       	eor	r1, r1
    19aa:	28 0f       	add	r18, r24
    19ac:	39 1f       	adc	r19, r25
    19ae:	f8 01       	movw	r30, r16
    19b0:	84 89       	ldd	r24, Z+20	; 0x14
    19b2:	84 9f       	mul	r24, r20
    19b4:	c0 01       	movw	r24, r0
    19b6:	11 24       	eor	r1, r1
    19b8:	82 0f       	add	r24, r18
    19ba:	93 1f       	adc	r25, r19
    19bc:	6c e2       	ldi	r22, 0x2C	; 44
    19be:	70 e0       	ldi	r23, 0x00	; 0
    19c0:	0e 94 64 1c 	call	0x38c8
    19c4:	d8 01       	movw	r26, r16
    19c6:	6c 93       	st	X, r22
    19c8:	8e 01       	movw	r16, r28
    19ca:	03 5e       	subi	r16, 0xE3	; 227
    19cc:	1e 4f       	sbci	r17, 0xFE	; 254
    19ce:	0a 0d       	add	r16, r10
    19d0:	1b 1d       	adc	r17, r11
    19d2:	f6 01       	movw	r30, r12
    19d4:	80 81       	ld	r24, Z
    19d6:	84 9f       	mul	r24, r20
    19d8:	90 01       	movw	r18, r0
    19da:	11 24       	eor	r1, r1
    19dc:	d7 01       	movw	r26, r14
    19de:	8c 91       	ld	r24, X
    19e0:	88 9d       	mul	r24, r8
    19e2:	c0 01       	movw	r24, r0
    19e4:	11 24       	eor	r1, r1
    19e6:	28 0f       	add	r18, r24
    19e8:	39 1f       	adc	r19, r25
    19ea:	fe 01       	movw	r30, r28
    19ec:	e5 5f       	subi	r30, 0xF5	; 245
    19ee:	fe 4f       	sbci	r31, 0xFE	; 254
    19f0:	ea 0d       	add	r30, r10
    19f2:	fb 1d       	adc	r31, r11
    19f4:	80 81       	ld	r24, Z
    19f6:	84 9f       	mul	r24, r20
    19f8:	c0 01       	movw	r24, r0
    19fa:	11 24       	eor	r1, r1
    19fc:	82 0f       	add	r24, r18
    19fe:	93 1f       	adc	r25, r19
    1a00:	6c e2       	ldi	r22, 0x2C	; 44
    1a02:	70 e0       	ldi	r23, 0x00	; 0
    1a04:	0e 94 64 1c 	call	0x38c8
    1a08:	f8 01       	movw	r30, r16
    1a0a:	60 83       	st	Z, r22
    1a0c:	93 94       	inc	r9
    1a0e:	f2 e1       	ldi	r31, 0x12	; 18
    1a10:	f9 15       	cp	r31, r9
    1a12:	08 f0       	brcs	.+2      	; 0x1a16
    1a14:	82 cf       	rjmp	.-252    	; 0x191a
    1a16:	83 01       	movw	r16, r6
    1a18:	0e 5e       	subi	r16, 0xEE	; 238
    1a1a:	1f 4f       	sbci	r17, 0xFF	; 255
    1a1c:	ff e0       	ldi	r31, 0x0F	; 15
    1a1e:	ef 2e       	mov	r14, r31
    1a20:	0e 94 e4 07 	call	0xfc8
    1a24:	d8 01       	movw	r26, r16
    1a26:	8c 93       	st	X, r24
    1a28:	0d 5e       	subi	r16, 0xED	; 237
    1a2a:	1f 4f       	sbci	r17, 0xFF	; 255
    1a2c:	ea 94       	dec	r14
    1a2e:	e7 fe       	sbrs	r14, 7
    1a30:	f7 cf       	rjmp	.-18     	; 0x1a20
    1a32:	99 24       	eor	r9, r9
    1a34:	ee 24       	eor	r14, r14
    1a36:	83 01       	movw	r16, r6
    1a38:	09 0d       	add	r16, r9
    1a3a:	11 1d       	adc	r17, r1
    1a3c:	8e 2d       	mov	r24, r14
    1a3e:	99 2d       	mov	r25, r9
    1a40:	f8 01       	movw	r30, r16
    1a42:	20 81       	ld	r18, Z
    1a44:	0d 5e       	subi	r16, 0xED	; 237
    1a46:	1f 4f       	sbci	r17, 0xFF	; 255
    1a48:	22 95       	swap	r18
    1a4a:	26 95       	lsr	r18
    1a4c:	27 70       	andi	r18, 0x07	; 7
    1a4e:	62 2f       	mov	r22, r18
    1a50:	0e 94 f3 05 	call	0xbe6
    1a54:	e3 94       	inc	r14
    1a56:	ff e0       	ldi	r31, 0x0F	; 15
    1a58:	fe 15       	cp	r31, r14
    1a5a:	80 f7       	brcc	.-32     	; 0x1a3c
    1a5c:	93 94       	inc	r9
    1a5e:	f9 15       	cp	r31, r9
    1a60:	48 f7       	brcc	.-46     	; 0x1a34
    1a62:	82 e3       	ldi	r24, 0x32	; 50
    1a64:	90 e0       	ldi	r25, 0x00	; 0
    1a66:	0e 94 bb 05 	call	0xb76
    1a6a:	08 94       	sec
    1a6c:	41 1c       	adc	r4, r1
    1a6e:	51 1c       	adc	r5, r1
    1a70:	80 e2       	ldi	r24, 0x20	; 32
    1a72:	48 16       	cp	r4, r24
    1a74:	83 e0       	ldi	r24, 0x03	; 3
    1a76:	58 06       	cpc	r5, r24
    1a78:	08 f4       	brcc	.+2      	; 0x1a7c
    1a7a:	46 cf       	rjmp	.-372    	; 0x1908
    1a7c:	c0 5d       	subi	r28, 0xD0	; 208
    1a7e:	de 4f       	sbci	r29, 0xFE	; 254
    1a80:	0f b6       	in	r0, 0x3f	; 63
    1a82:	f8 94       	cli
    1a84:	de bf       	out	0x3e, r29	; 62
    1a86:	0f be       	out	0x3f, r0	; 63
    1a88:	cd bf       	out	0x3d, r28	; 61
    1a8a:	df 91       	pop	r29
    1a8c:	cf 91       	pop	r28
    1a8e:	1f 91       	pop	r17
    1a90:	0f 91       	pop	r16
    1a92:	ff 90       	pop	r15
    1a94:	ef 90       	pop	r14
    1a96:	df 90       	pop	r13
    1a98:	cf 90       	pop	r12
    1a9a:	bf 90       	pop	r11
    1a9c:	af 90       	pop	r10
    1a9e:	9f 90       	pop	r9
    1aa0:	8f 90       	pop	r8
    1aa2:	7f 90       	pop	r7
    1aa4:	6f 90       	pop	r6
    1aa6:	5f 90       	pop	r5
    1aa8:	4f 90       	pop	r4
    1aaa:	08 95       	ret

00001aac <press.0>:
    1aac:	2f 92       	push	r2
    1aae:	3f 92       	push	r3
    1ab0:	af 92       	push	r10
    1ab2:	bf 92       	push	r11
    1ab4:	cf 92       	push	r12
    1ab6:	df 92       	push	r13
    1ab8:	ef 92       	push	r14
    1aba:	ff 92       	push	r15
    1abc:	0f 93       	push	r16
    1abe:	1f 93       	push	r17
    1ac0:	cf 93       	push	r28
    1ac2:	df 93       	push	r29
    1ac4:	cd b7       	in	r28, 0x3d	; 61
    1ac6:	de b7       	in	r29, 0x3e	; 62
    1ac8:	6a 97       	sbiw	r28, 0x1a	; 26
    1aca:	0f b6       	in	r0, 0x3f	; 63
    1acc:	f8 94       	cli
    1ace:	de bf       	out	0x3e, r29	; 62
    1ad0:	0f be       	out	0x3f, r0	; 63
    1ad2:	cd bf       	out	0x3d, r28	; 61
    1ad4:	1b 8a       	std	Y+19, r1	; 0x13
    1ad6:	1c 8a       	std	Y+20, r1	; 0x14
    1ad8:	1d 8a       	std	Y+21, r1	; 0x15
    1ada:	1e 8a       	std	Y+22, r1	; 0x16
    1adc:	1f 8a       	std	Y+23, r1	; 0x17
    1ade:	18 8e       	std	Y+24, r1	; 0x18
    1ae0:	19 8e       	std	Y+25, r1	; 0x19
    1ae2:	1a 8e       	std	Y+26, r1	; 0x1a
    1ae4:	29 82       	std	Y+1, r2	; 0x01
    1ae6:	3a 82       	std	Y+2, r3	; 0x02
    1ae8:	2b 83       	std	Y+3, r18	; 0x03
    1aea:	3c 83       	std	Y+4, r19	; 0x04
    1aec:	4d 83       	std	Y+5, r20	; 0x05
    1aee:	5e 83       	std	Y+6, r21	; 0x06
    1af0:	6f 83       	std	Y+7, r22	; 0x07
    1af2:	78 87       	std	Y+8, r23	; 0x08
    1af4:	89 87       	std	Y+9, r24	; 0x09
    1af6:	9a 87       	std	Y+10, r25	; 0x0a
    1af8:	88 e0       	ldi	r24, 0x08	; 8
    1afa:	de 01       	movw	r26, r28
    1afc:	13 96       	adiw	r26, 0x03	; 3
    1afe:	fe 01       	movw	r30, r28
    1b00:	3b 96       	adiw	r30, 0x0b	; 11
    1b02:	0d 90       	ld	r0, X+
    1b04:	01 92       	st	Z+, r0
    1b06:	8a 95       	dec	r24
    1b08:	e1 f7       	brne	.-8      	; 0x1b02
    1b0a:	07 30       	cpi	r16, 0x07	; 7
    1b0c:	79 f5       	brne	.+94     	; 0x1b6c
    1b0e:	d1 01       	movw	r26, r2
    1b10:	1c 92       	st	X, r1
    1b12:	ec 91       	ld	r30, X
    1b14:	ff 27       	eor	r31, r31
    1b16:	ee 0f       	add	r30, r30
    1b18:	ff 1f       	adc	r31, r31
    1b1a:	8e 01       	movw	r16, r28
    1b1c:	0f 5f       	subi	r16, 0xFF	; 255
    1b1e:	1f 4f       	sbci	r17, 0xFF	; 255
    1b20:	e0 0f       	add	r30, r16
    1b22:	f1 1f       	adc	r31, r17
    1b24:	22 85       	ldd	r18, Z+10	; 0x0a
    1b26:	82 2f       	mov	r24, r18
    1b28:	8f 5f       	subi	r24, 0xFF	; 255
    1b2a:	93 85       	ldd	r25, Z+11	; 0x0b
    1b2c:	0e 94 63 06 	call	0xcc6
    1b30:	98 2f       	mov	r25, r24
    1b32:	88 23       	and	r24, r24
    1b34:	09 f0       	breq	.+2      	; 0x1b38
    1b36:	40 c0       	rjmp	.+128    	; 0x1bb8
    1b38:	f1 01       	movw	r30, r2
    1b3a:	80 81       	ld	r24, Z
    1b3c:	8f 5f       	subi	r24, 0xFF	; 255
    1b3e:	80 83       	st	Z, r24
    1b40:	e8 2f       	mov	r30, r24
    1b42:	84 30       	cpi	r24, 0x04	; 4
    1b44:	38 f3       	brcs	.-50     	; 0x1b14
    1b46:	d1 01       	movw	r26, r2
    1b48:	9c 93       	st	X, r25
    1b4a:	89 2f       	mov	r24, r25
    1b4c:	e8 2f       	mov	r30, r24
    1b4e:	ff 27       	eor	r31, r31
    1b50:	ee 0f       	add	r30, r30
    1b52:	ff 1f       	adc	r31, r31
    1b54:	e0 0f       	add	r30, r16
    1b56:	f1 1f       	adc	r31, r17
    1b58:	82 85       	ldd	r24, Z+10	; 0x0a
    1b5a:	8f 5f       	subi	r24, 0xFF	; 255
    1b5c:	82 87       	std	Z+10, r24	; 0x0a
    1b5e:	f1 01       	movw	r30, r2
    1b60:	80 81       	ld	r24, Z
    1b62:	8f 5f       	subi	r24, 0xFF	; 255
    1b64:	80 83       	st	Z, r24
    1b66:	84 30       	cpi	r24, 0x04	; 4
    1b68:	88 f3       	brcs	.-30     	; 0x1b4c
    1b6a:	26 c0       	rjmp	.+76     	; 0x1bb8
    1b6c:	0b 30       	cpi	r16, 0x0B	; 11
    1b6e:	21 f5       	brne	.+72     	; 0x1bb8
    1b70:	d1 01       	movw	r26, r2
    1b72:	1c 92       	st	X, r1
    1b74:	9c 91       	ld	r25, X
    1b76:	9e 01       	movw	r18, r28
    1b78:	2f 5f       	subi	r18, 0xFF	; 255
    1b7a:	3f 4f       	sbci	r19, 0xFF	; 255
    1b7c:	fe 01       	movw	r30, r28
    1b7e:	3b 96       	adiw	r30, 0x0b	; 11
    1b80:	80 81       	ld	r24, Z
    1b82:	32 96       	adiw	r30, 0x02	; 2
    1b84:	88 23       	and	r24, r24
    1b86:	c1 f0       	breq	.+48     	; 0x1bb8
    1b88:	89 2f       	mov	r24, r25
    1b8a:	8f 5f       	subi	r24, 0xFF	; 255
    1b8c:	d1 01       	movw	r26, r2
    1b8e:	8c 93       	st	X, r24
    1b90:	98 2f       	mov	r25, r24
    1b92:	84 30       	cpi	r24, 0x04	; 4
    1b94:	a8 f3       	brcs	.-22     	; 0x1b80
    1b96:	1c 92       	st	X, r1
    1b98:	8c 91       	ld	r24, X
    1b9a:	e8 2f       	mov	r30, r24
    1b9c:	ff 27       	eor	r31, r31
    1b9e:	ee 0f       	add	r30, r30
    1ba0:	ff 1f       	adc	r31, r31
    1ba2:	e2 0f       	add	r30, r18
    1ba4:	f3 1f       	adc	r31, r19
    1ba6:	82 85       	ldd	r24, Z+10	; 0x0a
    1ba8:	81 50       	subi	r24, 0x01	; 1
    1baa:	82 87       	std	Z+10, r24	; 0x0a
    1bac:	f1 01       	movw	r30, r2
    1bae:	80 81       	ld	r24, Z
    1bb0:	8f 5f       	subi	r24, 0xFF	; 255
    1bb2:	80 83       	st	Z, r24
    1bb4:	84 30       	cpi	r24, 0x04	; 4
    1bb6:	88 f3       	brcs	.-30     	; 0x1b9a
    1bb8:	ea 89       	ldd	r30, Y+18	; 0x12
    1bba:	fb 85       	ldd	r31, Y+11	; 0x0b
    1bbc:	fb 8b       	std	Y+19, r31	; 0x13
    1bbe:	8c 85       	ldd	r24, Y+12	; 0x0c
    1bc0:	8c 8b       	std	Y+20, r24	; 0x14
    1bc2:	ad 85       	ldd	r26, Y+13	; 0x0d
    1bc4:	ad 8b       	std	Y+21, r26	; 0x15
    1bc6:	be 85       	ldd	r27, Y+14	; 0x0e
    1bc8:	ff 85       	ldd	r31, Y+15	; 0x0f
    1bca:	88 89       	ldd	r24, Y+16	; 0x10
    1bcc:	a9 89       	ldd	r26, Y+17	; 0x11
    1bce:	ab 88       	ldd	r10, Y+19	; 0x13
    1bd0:	bc 88       	ldd	r11, Y+20	; 0x14
    1bd2:	cd 88       	ldd	r12, Y+21	; 0x15
    1bd4:	2a 2d       	mov	r18, r10
    1bd6:	3b 2d       	mov	r19, r11
    1bd8:	4c 2d       	mov	r20, r12
    1bda:	5b 2f       	mov	r21, r27
    1bdc:	6f 2f       	mov	r22, r31
    1bde:	78 2f       	mov	r23, r24
    1be0:	8a 2f       	mov	r24, r26
    1be2:	9e 2f       	mov	r25, r30
    1be4:	6a 96       	adiw	r28, 0x1a	; 26
    1be6:	0f b6       	in	r0, 0x3f	; 63
    1be8:	f8 94       	cli
    1bea:	de bf       	out	0x3e, r29	; 62
    1bec:	0f be       	out	0x3f, r0	; 63
    1bee:	cd bf       	out	0x3d, r28	; 61
    1bf0:	df 91       	pop	r29
    1bf2:	cf 91       	pop	r28
    1bf4:	1f 91       	pop	r17
    1bf6:	0f 91       	pop	r16
    1bf8:	ff 90       	pop	r15
    1bfa:	ef 90       	pop	r14
    1bfc:	df 90       	pop	r13
    1bfe:	cf 90       	pop	r12
    1c00:	bf 90       	pop	r11
    1c02:	af 90       	pop	r10
    1c04:	3f 90       	pop	r3
    1c06:	2f 90       	pop	r2
    1c08:	08 95       	ret

00001c0a <dropin.1>:
    1c0a:	2f 92       	push	r2
    1c0c:	3f 92       	push	r3
    1c0e:	cf 92       	push	r12
    1c10:	df 92       	push	r13
    1c12:	ef 92       	push	r14
    1c14:	ff 92       	push	r15
    1c16:	0f 93       	push	r16
    1c18:	1f 93       	push	r17
    1c1a:	cf 93       	push	r28
    1c1c:	df 93       	push	r29
    1c1e:	cd b7       	in	r28, 0x3d	; 61
    1c20:	de b7       	in	r29, 0x3e	; 62
    1c22:	aa 97       	sbiw	r28, 0x2a	; 42
    1c24:	0f b6       	in	r0, 0x3f	; 63
    1c26:	f8 94       	cli
    1c28:	de bf       	out	0x3e, r29	; 62
    1c2a:	0f be       	out	0x3f, r0	; 63
    1c2c:	cd bf       	out	0x3d, r28	; 61
    1c2e:	29 82       	std	Y+1, r2	; 0x01
    1c30:	3a 82       	std	Y+2, r3	; 0x02
    1c32:	2b 83       	std	Y+3, r18	; 0x03
    1c34:	3c 83       	std	Y+4, r19	; 0x04
    1c36:	4d 83       	std	Y+5, r20	; 0x05
    1c38:	5e 83       	std	Y+6, r21	; 0x06
    1c3a:	6f 83       	std	Y+7, r22	; 0x07
    1c3c:	78 87       	std	Y+8, r23	; 0x08
    1c3e:	89 87       	std	Y+9, r24	; 0x09
    1c40:	9a 87       	std	Y+10, r25	; 0x0a
    1c42:	88 e0       	ldi	r24, 0x08	; 8
    1c44:	fb e0       	ldi	r31, 0x0B	; 11
    1c46:	ef 2e       	mov	r14, r31
    1c48:	f1 2c       	mov	r15, r1
    1c4a:	ec 0e       	add	r14, r28
    1c4c:	fd 1e       	adc	r15, r29
    1c4e:	fe 01       	movw	r30, r28
    1c50:	33 96       	adiw	r30, 0x03	; 3
    1c52:	d7 01       	movw	r26, r14
    1c54:	28 2f       	mov	r18, r24
    1c56:	01 90       	ld	r0, Z+
    1c58:	0d 92       	st	X+, r0
    1c5a:	2a 95       	dec	r18
    1c5c:	e1 f7       	brne	.-8      	; 0x1c56
    1c5e:	96 b3       	in	r25, 0x16	; 22
    1c60:	9f 70       	andi	r25, 0x0F	; 15
    1c62:	ae 01       	movw	r20, r28
    1c64:	4d 5e       	subi	r20, 0xED	; 237
    1c66:	5f 4f       	sbci	r21, 0xFF	; 255
    1c68:	da 01       	movw	r26, r20
    1c6a:	f7 01       	movw	r30, r14
    1c6c:	28 2f       	mov	r18, r24
    1c6e:	01 90       	ld	r0, Z+
    1c70:	0d 92       	st	X+, r0
    1c72:	2a 95       	dec	r18
    1c74:	e1 f7       	brne	.-8      	; 0x1c6e
    1c76:	e3 e2       	ldi	r30, 0x23	; 35
    1c78:	ce 2e       	mov	r12, r30
    1c7a:	d1 2c       	mov	r13, r1
    1c7c:	cc 0e       	add	r12, r28
    1c7e:	dd 1e       	adc	r13, r29
    1c80:	d6 01       	movw	r26, r12
    1c82:	fa 01       	movw	r30, r20
    1c84:	01 90       	ld	r0, Z+
    1c86:	0d 92       	st	X+, r0
    1c88:	8a 95       	dec	r24
    1c8a:	e1 f7       	brne	.-8      	; 0x1c84
    1c8c:	97 30       	cpi	r25, 0x07	; 7
    1c8e:	79 f5       	brne	.+94     	; 0x1cee
    1c90:	d1 01       	movw	r26, r2
    1c92:	1c 92       	st	X, r1
    1c94:	ec 91       	ld	r30, X
    1c96:	ff 27       	eor	r31, r31
    1c98:	ee 0f       	add	r30, r30
    1c9a:	ff 1f       	adc	r31, r31
    1c9c:	8e 01       	movw	r16, r28
    1c9e:	0f 5f       	subi	r16, 0xFF	; 255
    1ca0:	1f 4f       	sbci	r17, 0xFF	; 255
    1ca2:	e0 0f       	add	r30, r16
    1ca4:	f1 1f       	adc	r31, r17
    1ca6:	22 a1       	ldd	r18, Z+34	; 0x22
    1ca8:	82 2f       	mov	r24, r18
    1caa:	8f 5f       	subi	r24, 0xFF	; 255
    1cac:	93 a1       	ldd	r25, Z+35	; 0x23
    1cae:	0e 94 63 06 	call	0xcc6
    1cb2:	98 2f       	mov	r25, r24
    1cb4:	88 23       	and	r24, r24
    1cb6:	09 f0       	breq	.+2      	; 0x1cba
    1cb8:	43 c0       	rjmp	.+134    	; 0x1d40
    1cba:	f1 01       	movw	r30, r2
    1cbc:	80 81       	ld	r24, Z
    1cbe:	8f 5f       	subi	r24, 0xFF	; 255
    1cc0:	80 83       	st	Z, r24
    1cc2:	e8 2f       	mov	r30, r24
    1cc4:	84 30       	cpi	r24, 0x04	; 4
    1cc6:	38 f3       	brcs	.-50     	; 0x1c96
    1cc8:	d1 01       	movw	r26, r2
    1cca:	9c 93       	st	X, r25
    1ccc:	89 2f       	mov	r24, r25
    1cce:	e8 2f       	mov	r30, r24
    1cd0:	ff 27       	eor	r31, r31
    1cd2:	ee 0f       	add	r30, r30
    1cd4:	ff 1f       	adc	r31, r31
    1cd6:	e0 0f       	add	r30, r16
    1cd8:	f1 1f       	adc	r31, r17
    1cda:	82 a1       	ldd	r24, Z+34	; 0x22
    1cdc:	8f 5f       	subi	r24, 0xFF	; 255
    1cde:	82 a3       	std	Z+34, r24	; 0x22
    1ce0:	f1 01       	movw	r30, r2
    1ce2:	80 81       	ld	r24, Z
    1ce4:	8f 5f       	subi	r24, 0xFF	; 255
    1ce6:	80 83       	st	Z, r24
    1ce8:	84 30       	cpi	r24, 0x04	; 4
    1cea:	88 f3       	brcs	.-30     	; 0x1cce
    1cec:	29 c0       	rjmp	.+82     	; 0x1d40
    1cee:	9b 30       	cpi	r25, 0x0B	; 11
    1cf0:	39 f5       	brne	.+78     	; 0x1d40
    1cf2:	d1 01       	movw	r26, r2
    1cf4:	1c 92       	st	X, r1
    1cf6:	9c 91       	ld	r25, X
    1cf8:	9e 01       	movw	r18, r28
    1cfa:	2f 5f       	subi	r18, 0xFF	; 255
    1cfc:	3f 4f       	sbci	r19, 0xFF	; 255
    1cfe:	e9 2f       	mov	r30, r25
    1d00:	ff 27       	eor	r31, r31
    1d02:	ee 0f       	add	r30, r30
    1d04:	ff 1f       	adc	r31, r31
    1d06:	e2 0f       	add	r30, r18
    1d08:	f3 1f       	adc	r31, r19
    1d0a:	82 a1       	ldd	r24, Z+34	; 0x22
    1d0c:	88 23       	and	r24, r24
    1d0e:	c1 f0       	breq	.+48     	; 0x1d40
    1d10:	89 2f       	mov	r24, r25
    1d12:	8f 5f       	subi	r24, 0xFF	; 255
    1d14:	f1 01       	movw	r30, r2
    1d16:	80 83       	st	Z, r24
    1d18:	98 2f       	mov	r25, r24
    1d1a:	84 30       	cpi	r24, 0x04	; 4
    1d1c:	80 f3       	brcs	.-32     	; 0x1cfe
    1d1e:	10 82       	st	Z, r1
    1d20:	80 81       	ld	r24, Z
    1d22:	e8 2f       	mov	r30, r24
    1d24:	ff 27       	eor	r31, r31
    1d26:	ee 0f       	add	r30, r30
    1d28:	ff 1f       	adc	r31, r31
    1d2a:	e2 0f       	add	r30, r18
    1d2c:	f3 1f       	adc	r31, r19
    1d2e:	82 a1       	ldd	r24, Z+34	; 0x22
    1d30:	81 50       	subi	r24, 0x01	; 1
    1d32:	82 a3       	std	Z+34, r24	; 0x22
    1d34:	d1 01       	movw	r26, r2
    1d36:	8c 91       	ld	r24, X
    1d38:	8f 5f       	subi	r24, 0xFF	; 255
    1d3a:	8c 93       	st	X, r24
    1d3c:	84 30       	cpi	r24, 0x04	; 4
    1d3e:	88 f3       	brcs	.-30     	; 0x1d22
    1d40:	88 e0       	ldi	r24, 0x08	; 8
    1d42:	9e 01       	movw	r18, r28
    1d44:	25 5e       	subi	r18, 0xE5	; 229
    1d46:	3f 4f       	sbci	r19, 0xFF	; 255
    1d48:	f9 01       	movw	r30, r18
    1d4a:	d6 01       	movw	r26, r12
    1d4c:	98 2f       	mov	r25, r24
    1d4e:	0d 90       	ld	r0, X+
    1d50:	01 92       	st	Z+, r0
    1d52:	9a 95       	dec	r25
    1d54:	e1 f7       	brne	.-8      	; 0x1d4e
    1d56:	d7 01       	movw	r26, r14
    1d58:	f9 01       	movw	r30, r18
    1d5a:	98 2f       	mov	r25, r24
    1d5c:	01 90       	ld	r0, Z+
    1d5e:	0d 92       	st	X+, r0
    1d60:	9a 95       	dec	r25
    1d62:	e1 f7       	brne	.-8      	; 0x1d5c
    1d64:	d6 01       	movw	r26, r12
    1d66:	f7 01       	movw	r30, r14
    1d68:	01 90       	ld	r0, Z+
    1d6a:	0d 92       	st	X+, r0
    1d6c:	8a 95       	dec	r24
    1d6e:	e1 f7       	brne	.-8      	; 0x1d68
    1d70:	13 e0       	ldi	r17, 0x03	; 3
    1d72:	ee 24       	eor	r14, r14
    1d74:	ff 24       	eor	r15, r15
    1d76:	6e 01       	movw	r12, r28
    1d78:	08 94       	sec
    1d7a:	c1 1c       	adc	r12, r1
    1d7c:	d1 1c       	adc	r13, r1
    1d7e:	f7 01       	movw	r30, r14
    1d80:	ec 0d       	add	r30, r12
    1d82:	fd 1d       	adc	r31, r13
    1d84:	63 e0       	ldi	r22, 0x03	; 3
    1d86:	82 85       	ldd	r24, Z+10	; 0x0a
    1d88:	93 85       	ldd	r25, Z+11	; 0x0b
    1d8a:	0e 94 f3 05 	call	0xbe6
    1d8e:	11 50       	subi	r17, 0x01	; 1
    1d90:	82 e0       	ldi	r24, 0x02	; 2
    1d92:	90 e0       	ldi	r25, 0x00	; 0
    1d94:	e8 0e       	add	r14, r24
    1d96:	f9 1e       	adc	r15, r25
    1d98:	17 ff       	sbrs	r17, 7
    1d9a:	ed cf       	rjmp	.-38     	; 0x1d76
    1d9c:	82 ec       	ldi	r24, 0xC2	; 194
    1d9e:	91 e0       	ldi	r25, 0x01	; 1
    1da0:	0e 94 bb 05 	call	0xb76
    1da4:	13 e0       	ldi	r17, 0x03	; 3
    1da6:	7b e0       	ldi	r23, 0x0B	; 11
    1da8:	e7 2e       	mov	r14, r23
    1daa:	f1 2c       	mov	r15, r1
    1dac:	ec 0e       	add	r14, r28
    1dae:	fd 1e       	adc	r15, r29
    1db0:	60 e0       	ldi	r22, 0x00	; 0
    1db2:	d7 01       	movw	r26, r14
    1db4:	8d 91       	ld	r24, X+
    1db6:	9d 91       	ld	r25, X+
    1db8:	7d 01       	movw	r14, r26
    1dba:	0e 94 f3 05 	call	0xbe6
    1dbe:	11 50       	subi	r17, 0x01	; 1
    1dc0:	17 ff       	sbrs	r17, 7
    1dc2:	f6 cf       	rjmp	.-20     	; 0x1db0
    1dc4:	13 e0       	ldi	r17, 0x03	; 3
    1dc6:	f6 01       	movw	r30, r12
    1dc8:	83 a1       	ldd	r24, Z+35	; 0x23
    1dca:	8f 5f       	subi	r24, 0xFF	; 255
    1dcc:	83 a3       	std	Z+35, r24	; 0x23
    1dce:	11 50       	subi	r17, 0x01	; 1
    1dd0:	32 96       	adiw	r30, 0x02	; 2
    1dd2:	17 ff       	sbrs	r17, 7
    1dd4:	f9 cf       	rjmp	.-14     	; 0x1dc8
    1dd6:	10 e0       	ldi	r17, 0x00	; 0
    1dd8:	62 e2       	ldi	r22, 0x22	; 34
    1dda:	e6 2e       	mov	r14, r22
    1ddc:	f1 2c       	mov	r15, r1
    1dde:	ec 0c       	add	r14, r12
    1de0:	fd 1c       	adc	r15, r13
    1de2:	f7 01       	movw	r30, r14
    1de4:	81 91       	ld	r24, Z+
    1de6:	91 91       	ld	r25, Z+
    1de8:	7f 01       	movw	r14, r30
    1dea:	0e 94 63 06 	call	0xcc6
    1dee:	88 23       	and	r24, r24
    1df0:	21 f4       	brne	.+8      	; 0x1dfa
    1df2:	1f 5f       	subi	r17, 0xFF	; 255
    1df4:	14 30       	cpi	r17, 0x04	; 4
    1df6:	a8 f3       	brcs	.-22     	; 0x1de2
    1df8:	02 c0       	rjmp	.+4      	; 0x1dfe
    1dfa:	88 23       	and	r24, r24
    1dfc:	59 f4       	brne	.+22     	; 0x1e14
    1dfe:	2b a1       	ldd	r18, Y+35	; 0x23
    1e00:	3c a1       	ldd	r19, Y+36	; 0x24
    1e02:	4d a1       	ldd	r20, Y+37	; 0x25
    1e04:	5e a1       	ldd	r21, Y+38	; 0x26
    1e06:	6f a1       	ldd	r22, Y+39	; 0x27
    1e08:	78 a5       	ldd	r23, Y+40	; 0x28
    1e0a:	89 a5       	ldd	r24, Y+41	; 0x29
    1e0c:	9a a5       	ldd	r25, Y+42	; 0x2a
    1e0e:	0e 94 05 0e 	call	0x1c0a
    1e12:	10 c0       	rjmp	.+32     	; 0x1e34
    1e14:	13 e0       	ldi	r17, 0x03	; 3
    1e16:	5a e0       	ldi	r21, 0x0A	; 10
    1e18:	25 2e       	mov	r2, r21
    1e1a:	31 2c       	mov	r3, r1
    1e1c:	2c 0c       	add	r2, r12
    1e1e:	3d 1c       	adc	r3, r13
    1e20:	63 e0       	ldi	r22, 0x03	; 3
    1e22:	d1 01       	movw	r26, r2
    1e24:	8d 91       	ld	r24, X+
    1e26:	9d 91       	ld	r25, X+
    1e28:	1d 01       	movw	r2, r26
    1e2a:	0e 94 f3 05 	call	0xbe6
    1e2e:	11 50       	subi	r17, 0x01	; 1
    1e30:	17 ff       	sbrs	r17, 7
    1e32:	f6 cf       	rjmp	.-20     	; 0x1e20
    1e34:	aa 96       	adiw	r28, 0x2a	; 42
    1e36:	0f b6       	in	r0, 0x3f	; 63
    1e38:	f8 94       	cli
    1e3a:	de bf       	out	0x3e, r29	; 62
    1e3c:	0f be       	out	0x3f, r0	; 63
    1e3e:	cd bf       	out	0x3d, r28	; 61
    1e40:	df 91       	pop	r29
    1e42:	cf 91       	pop	r28
    1e44:	1f 91       	pop	r17
    1e46:	0f 91       	pop	r16
    1e48:	ff 90       	pop	r15
    1e4a:	ef 90       	pop	r14
    1e4c:	df 90       	pop	r13
    1e4e:	cf 90       	pop	r12
    1e50:	3f 90       	pop	r3
    1e52:	2f 90       	pop	r2
    1e54:	08 95       	ret

00001e56 <tetris>:
    1e56:	2f 92       	push	r2
    1e58:	3f 92       	push	r3
    1e5a:	cf 93       	push	r28
    1e5c:	df 93       	push	r29
    1e5e:	cd b7       	in	r28, 0x3d	; 61
    1e60:	de b7       	in	r29, 0x3e	; 62
    1e62:	69 97       	sbiw	r28, 0x19	; 25
    1e64:	0f b6       	in	r0, 0x3f	; 63
    1e66:	f8 94       	cli
    1e68:	de bf       	out	0x3e, r29	; 62
    1e6a:	0f be       	out	0x3f, r0	; 63
    1e6c:	cd bf       	out	0x3d, r28	; 61
    1e6e:	8f e0       	ldi	r24, 0x0F	; 15
    1e70:	88 bb       	out	0x18, r24	; 24
    1e72:	80 e0       	ldi	r24, 0x00	; 0
    1e74:	0e 94 da 05 	call	0xbb4
    1e78:	19 82       	std	Y+1, r1	; 0x01
    1e7a:	29 81       	ldd	r18, Y+1	; 0x01
    1e7c:	88 e0       	ldi	r24, 0x08	; 8
    1e7e:	92 2f       	mov	r25, r18
    1e80:	63 e0       	ldi	r22, 0x03	; 3
    1e82:	0e 94 f3 05 	call	0xbe6
    1e86:	89 81       	ldd	r24, Y+1	; 0x01
    1e88:	8f 5f       	subi	r24, 0xFF	; 255
    1e8a:	89 83       	std	Y+1, r24	; 0x01
    1e8c:	28 2f       	mov	r18, r24
    1e8e:	80 31       	cpi	r24, 0x10	; 16
    1e90:	a8 f3       	brcs	.-22     	; 0x1e7c
    1e92:	88 e0       	ldi	r24, 0x08	; 8
    1e94:	ac ec       	ldi	r26, 0xCC	; 204
    1e96:	b1 e0       	ldi	r27, 0x01	; 1
    1e98:	fe 01       	movw	r30, r28
    1e9a:	32 96       	adiw	r30, 0x02	; 2
    1e9c:	98 2f       	mov	r25, r24
    1e9e:	0d 90       	ld	r0, X+
    1ea0:	01 92       	st	Z+, r0
    1ea2:	9a 95       	dec	r25
    1ea4:	e1 f7       	brne	.-8      	; 0x1e9e
    1ea6:	a4 ed       	ldi	r26, 0xD4	; 212
    1ea8:	b1 e0       	ldi	r27, 0x01	; 1
    1eaa:	fe 01       	movw	r30, r28
    1eac:	3a 96       	adiw	r30, 0x0a	; 10
    1eae:	98 2f       	mov	r25, r24
    1eb0:	0d 90       	ld	r0, X+
    1eb2:	01 92       	st	Z+, r0
    1eb4:	9a 95       	dec	r25
    1eb6:	e1 f7       	brne	.-8      	; 0x1eb0
    1eb8:	ac ed       	ldi	r26, 0xDC	; 220
    1eba:	b1 e0       	ldi	r27, 0x01	; 1
    1ebc:	fe 01       	movw	r30, r28
    1ebe:	72 96       	adiw	r30, 0x12	; 18
    1ec0:	0d 90       	ld	r0, X+
    1ec2:	01 92       	st	Z+, r0
    1ec4:	8a 95       	dec	r24
    1ec6:	e1 f7       	brne	.-8      	; 0x1ec0
    1ec8:	1e 01       	movw	r2, r28
    1eca:	08 94       	sec
    1ecc:	21 1c       	adc	r2, r1
    1ece:	31 1c       	adc	r3, r1
    1ed0:	2a 85       	ldd	r18, Y+10	; 0x0a
    1ed2:	3b 85       	ldd	r19, Y+11	; 0x0b
    1ed4:	4c 85       	ldd	r20, Y+12	; 0x0c
    1ed6:	5d 85       	ldd	r21, Y+13	; 0x0d
    1ed8:	6e 85       	ldd	r22, Y+14	; 0x0e
    1eda:	7f 85       	ldd	r23, Y+15	; 0x0f
    1edc:	88 89       	ldd	r24, Y+16	; 0x10
    1ede:	99 89       	ldd	r25, Y+17	; 0x11
    1ee0:	0e 94 05 0e 	call	0x1c0a
    1ee4:	1e 01       	movw	r2, r28
    1ee6:	08 94       	sec
    1ee8:	21 1c       	adc	r2, r1
    1eea:	31 1c       	adc	r3, r1
    1eec:	2a 81       	ldd	r18, Y+2	; 0x02
    1eee:	3b 81       	ldd	r19, Y+3	; 0x03
    1ef0:	4c 81       	ldd	r20, Y+4	; 0x04
    1ef2:	5d 81       	ldd	r21, Y+5	; 0x05
    1ef4:	6e 81       	ldd	r22, Y+6	; 0x06
    1ef6:	7f 81       	ldd	r23, Y+7	; 0x07
    1ef8:	88 85       	ldd	r24, Y+8	; 0x08
    1efa:	99 85       	ldd	r25, Y+9	; 0x09
    1efc:	0e 94 05 0e 	call	0x1c0a
    1f00:	1e 01       	movw	r2, r28
    1f02:	08 94       	sec
    1f04:	21 1c       	adc	r2, r1
    1f06:	31 1c       	adc	r3, r1
    1f08:	2a 89       	ldd	r18, Y+18	; 0x12
    1f0a:	3b 89       	ldd	r19, Y+19	; 0x13
    1f0c:	4c 89       	ldd	r20, Y+20	; 0x14
    1f0e:	5d 89       	ldd	r21, Y+21	; 0x15
    1f10:	6e 89       	ldd	r22, Y+22	; 0x16
    1f12:	7f 89       	ldd	r23, Y+23	; 0x17
    1f14:	88 8d       	ldd	r24, Y+24	; 0x18
    1f16:	99 8d       	ldd	r25, Y+25	; 0x19
    1f18:	0e 94 05 0e 	call	0x1c0a
    1f1c:	1e 01       	movw	r2, r28
    1f1e:	08 94       	sec
    1f20:	21 1c       	adc	r2, r1
    1f22:	31 1c       	adc	r3, r1
    1f24:	2a 85       	ldd	r18, Y+10	; 0x0a
    1f26:	3b 85       	ldd	r19, Y+11	; 0x0b
    1f28:	4c 85       	ldd	r20, Y+12	; 0x0c
    1f2a:	5d 85       	ldd	r21, Y+13	; 0x0d
    1f2c:	6e 85       	ldd	r22, Y+14	; 0x0e
    1f2e:	7f 85       	ldd	r23, Y+15	; 0x0f
    1f30:	88 89       	ldd	r24, Y+16	; 0x10
    1f32:	99 89       	ldd	r25, Y+17	; 0x11
    1f34:	0e 94 05 0e 	call	0x1c0a
    1f38:	1e 01       	movw	r2, r28
    1f3a:	08 94       	sec
    1f3c:	21 1c       	adc	r2, r1
    1f3e:	31 1c       	adc	r3, r1
    1f40:	2a 85       	ldd	r18, Y+10	; 0x0a
    1f42:	3b 85       	ldd	r19, Y+11	; 0x0b
    1f44:	4c 85       	ldd	r20, Y+12	; 0x0c
    1f46:	5d 85       	ldd	r21, Y+13	; 0x0d
    1f48:	6e 85       	ldd	r22, Y+14	; 0x0e
    1f4a:	7f 85       	ldd	r23, Y+15	; 0x0f
    1f4c:	88 89       	ldd	r24, Y+16	; 0x10
    1f4e:	99 89       	ldd	r25, Y+17	; 0x11
    1f50:	0e 94 05 0e 	call	0x1c0a
    1f54:	1e 01       	movw	r2, r28
    1f56:	08 94       	sec
    1f58:	21 1c       	adc	r2, r1
    1f5a:	31 1c       	adc	r3, r1
    1f5c:	2a 81       	ldd	r18, Y+2	; 0x02
    1f5e:	3b 81       	ldd	r19, Y+3	; 0x03
    1f60:	4c 81       	ldd	r20, Y+4	; 0x04
    1f62:	5d 81       	ldd	r21, Y+5	; 0x05
    1f64:	6e 81       	ldd	r22, Y+6	; 0x06
    1f66:	7f 81       	ldd	r23, Y+7	; 0x07
    1f68:	88 85       	ldd	r24, Y+8	; 0x08
    1f6a:	99 85       	ldd	r25, Y+9	; 0x09
    1f6c:	0e 94 05 0e 	call	0x1c0a
    1f70:	1e 01       	movw	r2, r28
    1f72:	08 94       	sec
    1f74:	21 1c       	adc	r2, r1
    1f76:	31 1c       	adc	r3, r1
    1f78:	2a 89       	ldd	r18, Y+18	; 0x12
    1f7a:	3b 89       	ldd	r19, Y+19	; 0x13
    1f7c:	4c 89       	ldd	r20, Y+20	; 0x14
    1f7e:	5d 89       	ldd	r21, Y+21	; 0x15
    1f80:	6e 89       	ldd	r22, Y+22	; 0x16
    1f82:	7f 89       	ldd	r23, Y+23	; 0x17
    1f84:	88 8d       	ldd	r24, Y+24	; 0x18
    1f86:	99 8d       	ldd	r25, Y+25	; 0x19
    1f88:	0e 94 05 0e 	call	0x1c0a
    1f8c:	1e 01       	movw	r2, r28
    1f8e:	08 94       	sec
    1f90:	21 1c       	adc	r2, r1
    1f92:	31 1c       	adc	r3, r1
    1f94:	2a 85       	ldd	r18, Y+10	; 0x0a
    1f96:	3b 85       	ldd	r19, Y+11	; 0x0b
    1f98:	4c 85       	ldd	r20, Y+12	; 0x0c
    1f9a:	5d 85       	ldd	r21, Y+13	; 0x0d
    1f9c:	6e 85       	ldd	r22, Y+14	; 0x0e
    1f9e:	7f 85       	ldd	r23, Y+15	; 0x0f
    1fa0:	88 89       	ldd	r24, Y+16	; 0x10
    1fa2:	99 89       	ldd	r25, Y+17	; 0x11
    1fa4:	0e 94 05 0e 	call	0x1c0a
    1fa8:	1e 01       	movw	r2, r28
    1faa:	08 94       	sec
    1fac:	21 1c       	adc	r2, r1
    1fae:	31 1c       	adc	r3, r1
    1fb0:	2a 81       	ldd	r18, Y+2	; 0x02
    1fb2:	3b 81       	ldd	r19, Y+3	; 0x03
    1fb4:	4c 81       	ldd	r20, Y+4	; 0x04
    1fb6:	5d 81       	ldd	r21, Y+5	; 0x05
    1fb8:	6e 81       	ldd	r22, Y+6	; 0x06
    1fba:	7f 81       	ldd	r23, Y+7	; 0x07
    1fbc:	88 85       	ldd	r24, Y+8	; 0x08
    1fbe:	99 85       	ldd	r25, Y+9	; 0x09
    1fc0:	0e 94 05 0e 	call	0x1c0a
    1fc4:	1e 01       	movw	r2, r28
    1fc6:	08 94       	sec
    1fc8:	21 1c       	adc	r2, r1
    1fca:	31 1c       	adc	r3, r1
    1fcc:	2a 89       	ldd	r18, Y+18	; 0x12
    1fce:	3b 89       	ldd	r19, Y+19	; 0x13
    1fd0:	4c 89       	ldd	r20, Y+20	; 0x14
    1fd2:	5d 89       	ldd	r21, Y+21	; 0x15
    1fd4:	6e 89       	ldd	r22, Y+22	; 0x16
    1fd6:	7f 89       	ldd	r23, Y+23	; 0x17
    1fd8:	88 8d       	ldd	r24, Y+24	; 0x18
    1fda:	99 8d       	ldd	r25, Y+25	; 0x19
    1fdc:	0e 94 05 0e 	call	0x1c0a
    1fe0:	1e 01       	movw	r2, r28
    1fe2:	08 94       	sec
    1fe4:	21 1c       	adc	r2, r1
    1fe6:	31 1c       	adc	r3, r1
    1fe8:	2a 81       	ldd	r18, Y+2	; 0x02
    1fea:	3b 81       	ldd	r19, Y+3	; 0x03
    1fec:	4c 81       	ldd	r20, Y+4	; 0x04
    1fee:	5d 81       	ldd	r21, Y+5	; 0x05
    1ff0:	6e 81       	ldd	r22, Y+6	; 0x06
    1ff2:	7f 81       	ldd	r23, Y+7	; 0x07
    1ff4:	88 85       	ldd	r24, Y+8	; 0x08
    1ff6:	99 85       	ldd	r25, Y+9	; 0x09
    1ff8:	0e 94 05 0e 	call	0x1c0a
    1ffc:	1e 01       	movw	r2, r28
    1ffe:	08 94       	sec
    2000:	21 1c       	adc	r2, r1
    2002:	31 1c       	adc	r3, r1
    2004:	2a 89       	ldd	r18, Y+18	; 0x12
    2006:	3b 89       	ldd	r19, Y+19	; 0x13
    2008:	4c 89       	ldd	r20, Y+20	; 0x14
    200a:	5d 89       	ldd	r21, Y+21	; 0x15
    200c:	6e 89       	ldd	r22, Y+22	; 0x16
    200e:	7f 89       	ldd	r23, Y+23	; 0x17
    2010:	88 8d       	ldd	r24, Y+24	; 0x18
    2012:	99 8d       	ldd	r25, Y+25	; 0x19
    2014:	0e 94 05 0e 	call	0x1c0a
    2018:	69 96       	adiw	r28, 0x19	; 25
    201a:	0f b6       	in	r0, 0x3f	; 63
    201c:	f8 94       	cli
    201e:	de bf       	out	0x3e, r29	; 62
    2020:	0f be       	out	0x3f, r0	; 63
    2022:	cd bf       	out	0x3d, r28	; 61
    2024:	df 91       	pop	r29
    2026:	cf 91       	pop	r28
    2028:	3f 90       	pop	r3
    202a:	2f 90       	pop	r2
    202c:	08 95       	ret

0000202e <text_setpixel>:
    202e:	9c 01       	movw	r18, r24
    2030:	66 23       	and	r22, r22
    2032:	d9 f0       	breq	.+54     	; 0x206a
    2034:	83 2f       	mov	r24, r19
    2036:	8f 70       	andi	r24, 0x0F	; 15
    2038:	a8 2f       	mov	r26, r24
    203a:	bb 27       	eor	r27, r27
    203c:	32 2f       	mov	r19, r18
    203e:	36 95       	lsr	r19
    2040:	36 95       	lsr	r19
    2042:	36 95       	lsr	r19
    2044:	aa 0f       	add	r26, r26
    2046:	bb 1f       	adc	r27, r27
    2048:	80 91 9c 02 	lds	r24, 0x029C
    204c:	90 91 9d 02 	lds	r25, 0x029D
    2050:	a8 0f       	add	r26, r24
    2052:	b9 1f       	adc	r27, r25
    2054:	a3 0f       	add	r26, r19
    2056:	b1 1d       	adc	r27, r1
    2058:	27 70       	andi	r18, 0x07	; 7
    205a:	e2 2f       	mov	r30, r18
    205c:	ff 27       	eor	r31, r31
    205e:	ee 53       	subi	r30, 0x3E	; 62
    2060:	fe 4f       	sbci	r31, 0xFE	; 254
    2062:	8c 91       	ld	r24, X
    2064:	90 81       	ld	r25, Z
    2066:	89 2b       	or	r24, r25
    2068:	8c 93       	st	X, r24
    206a:	08 95       	ret

0000206c <clear_text_pixmap>:
    206c:	50 e0       	ldi	r21, 0x00	; 0
    206e:	85 2f       	mov	r24, r21
    2070:	99 27       	eor	r25, r25
    2072:	88 0f       	add	r24, r24
    2074:	99 1f       	adc	r25, r25
    2076:	20 e0       	ldi	r18, 0x00	; 0
    2078:	30 e0       	ldi	r19, 0x00	; 0
    207a:	41 e0       	ldi	r20, 0x01	; 1
    207c:	e0 91 9c 02 	lds	r30, 0x029C
    2080:	f0 91 9d 02 	lds	r31, 0x029D
    2084:	e8 0f       	add	r30, r24
    2086:	f9 1f       	adc	r31, r25
    2088:	e2 0f       	add	r30, r18
    208a:	f3 1f       	adc	r31, r19
    208c:	10 82       	st	Z, r1
    208e:	41 50       	subi	r20, 0x01	; 1
    2090:	2f 5f       	subi	r18, 0xFF	; 255
    2092:	3f 4f       	sbci	r19, 0xFF	; 255
    2094:	47 ff       	sbrs	r20, 7
    2096:	f2 cf       	rjmp	.-28     	; 0x207c
    2098:	5f 5f       	subi	r21, 0xFF	; 255
    209a:	50 31       	cpi	r21, 0x10	; 16
    209c:	40 f3       	brcs	.-48     	; 0x206e
    209e:	08 95       	ret

000020a0 <update_pixmap>:
    20a0:	50 e0       	ldi	r21, 0x00	; 0
    20a2:	60 91 9c 02 	lds	r22, 0x029C
    20a6:	70 91 9d 02 	lds	r23, 0x029D
    20aa:	40 e0       	ldi	r20, 0x00	; 0
    20ac:	25 2f       	mov	r18, r21
    20ae:	33 27       	eor	r19, r19
    20b0:	84 e0       	ldi	r24, 0x04	; 4
    20b2:	22 0f       	add	r18, r18
    20b4:	33 1f       	adc	r19, r19
    20b6:	8a 95       	dec	r24
    20b8:	e1 f7       	brne	.-8      	; 0x20b2
    20ba:	84 2f       	mov	r24, r20
    20bc:	99 27       	eor	r25, r25
    20be:	f9 01       	movw	r30, r18
    20c0:	e8 0f       	add	r30, r24
    20c2:	f9 1f       	adc	r31, r25
    20c4:	ee 0f       	add	r30, r30
    20c6:	ff 1f       	adc	r31, r31
    20c8:	e9 5e       	subi	r30, 0xE9	; 233
    20ca:	fd 4f       	sbci	r31, 0xFD	; 253
    20cc:	dc 01       	movw	r26, r24
    20ce:	a8 0f       	add	r26, r24
    20d0:	b9 1f       	adc	r27, r25
    20d2:	a6 0f       	add	r26, r22
    20d4:	b7 1f       	adc	r27, r23
    20d6:	91 e0       	ldi	r25, 0x01	; 1
    20d8:	8d 91       	ld	r24, X+
    20da:	81 93       	st	Z+, r24
    20dc:	91 50       	subi	r25, 0x01	; 1
    20de:	97 ff       	sbrs	r25, 7
    20e0:	fb cf       	rjmp	.-10     	; 0x20d8
    20e2:	4f 5f       	subi	r20, 0xFF	; 255
    20e4:	40 31       	cpi	r20, 0x10	; 16
    20e6:	48 f3       	brcs	.-46     	; 0x20ba
    20e8:	5f 5f       	subi	r21, 0xFF	; 255
    20ea:	53 30       	cpi	r21, 0x03	; 3
    20ec:	f0 f2       	brcs	.-68     	; 0x20aa
    20ee:	08 95       	ret

000020f0 <getLen>:
    20f0:	0f 93       	push	r16
    20f2:	1f 93       	push	r17
    20f4:	cf 93       	push	r28
    20f6:	df 93       	push	r29
    20f8:	ec 01       	movw	r28, r24
    20fa:	60 e0       	ldi	r22, 0x00	; 0
    20fc:	70 e0       	ldi	r23, 0x00	; 0
    20fe:	ac 81       	ldd	r26, Y+4	; 0x04
    2100:	bd 81       	ldd	r27, Y+5	; 0x05
    2102:	9d 91       	ld	r25, X+
    2104:	99 23       	and	r25, r25
    2106:	f9 f0       	breq	.+62     	; 0x2146
    2108:	0d 8d       	ldd	r16, Y+29	; 0x1d
    210a:	1e 8d       	ldd	r17, Y+30	; 0x1e
    210c:	8a a1       	ldd	r24, Y+34	; 0x22
    210e:	48 2f       	mov	r20, r24
    2110:	55 27       	eor	r21, r21
    2112:	44 0f       	add	r20, r20
    2114:	55 1f       	adc	r21, r21
    2116:	91 50       	subi	r25, 0x01	; 1
    2118:	89 2f       	mov	r24, r25
    211a:	99 27       	eor	r25, r25
    211c:	88 0f       	add	r24, r24
    211e:	99 1f       	adc	r25, r25
    2120:	80 0f       	add	r24, r16
    2122:	91 1f       	adc	r25, r17
    2124:	fc 01       	movw	r30, r24
    2126:	32 96       	adiw	r30, 0x02	; 2
    2128:	25 91       	lpm	r18, Z+
    212a:	34 91       	lpm	r19, Z
    212c:	fc 01       	movw	r30, r24
    212e:	85 91       	lpm	r24, Z+
    2130:	94 91       	lpm	r25, Z
    2132:	28 1b       	sub	r18, r24
    2134:	39 0b       	sbc	r19, r25
    2136:	62 0f       	add	r22, r18
    2138:	73 1f       	adc	r23, r19
    213a:	64 0f       	add	r22, r20
    213c:	75 1f       	adc	r23, r21
    213e:	8d 91       	ld	r24, X+
    2140:	98 2f       	mov	r25, r24
    2142:	88 23       	and	r24, r24
    2144:	41 f7       	brne	.-48     	; 0x2116
    2146:	89 a1       	ldd	r24, Y+33	; 0x21
    2148:	28 2f       	mov	r18, r24
    214a:	33 27       	eor	r19, r19
    214c:	cb 01       	movw	r24, r22
    214e:	b9 01       	movw	r22, r18
    2150:	0e 94 50 1c 	call	0x38a0
    2154:	cb 01       	movw	r24, r22
    2156:	df 91       	pop	r29
    2158:	cf 91       	pop	r28
    215a:	1f 91       	pop	r17
    215c:	0f 91       	pop	r16
    215e:	08 95       	ret

00002160 <getnum>:
    2160:	cf 93       	push	r28
    2162:	df 93       	push	r29
    2164:	ec 01       	movw	r28, r24
    2166:	20 e0       	ldi	r18, 0x00	; 0
    2168:	30 e0       	ldi	r19, 0x00	; 0
    216a:	ae 81       	ldd	r26, Y+6	; 0x06
    216c:	bf 81       	ldd	r27, Y+7	; 0x07
    216e:	8c 91       	ld	r24, X
    2170:	80 53       	subi	r24, 0x30	; 48
    2172:	8a 30       	cpi	r24, 0x0A	; 10
    2174:	d8 f4       	brcc	.+54     	; 0x21ac
    2176:	c9 01       	movw	r24, r18
    2178:	43 e0       	ldi	r20, 0x03	; 3
    217a:	88 0f       	add	r24, r24
    217c:	99 1f       	adc	r25, r25
    217e:	4a 95       	dec	r20
    2180:	e1 f7       	brne	.-8      	; 0x217a
    2182:	82 0f       	add	r24, r18
    2184:	93 1f       	adc	r25, r19
    2186:	28 0f       	add	r18, r24
    2188:	39 1f       	adc	r19, r25
    218a:	fd 01       	movw	r30, r26
    218c:	8d 91       	ld	r24, X+
    218e:	99 27       	eor	r25, r25
    2190:	87 fd       	sbrc	r24, 7
    2192:	90 95       	com	r25
    2194:	28 0f       	add	r18, r24
    2196:	39 1f       	adc	r19, r25
    2198:	20 53       	subi	r18, 0x30	; 48
    219a:	30 40       	sbci	r19, 0x00	; 0
    219c:	ae 83       	std	Y+6, r26	; 0x06
    219e:	bf 83       	std	Y+7, r27	; 0x07
    21a0:	81 81       	ldd	r24, Z+1	; 0x01
    21a2:	80 53       	subi	r24, 0x30	; 48
    21a4:	8a 30       	cpi	r24, 0x0A	; 10
    21a6:	38 f3       	brcs	.-50     	; 0x2176
    21a8:	c9 01       	movw	r24, r18
    21aa:	02 c0       	rjmp	.+4      	; 0x21b0
    21ac:	8f ef       	ldi	r24, 0xFF	; 255
    21ae:	9f ef       	ldi	r25, 0xFF	; 255
    21b0:	df 91       	pop	r29
    21b2:	cf 91       	pop	r28
    21b4:	08 95       	ret

000021b6 <blobNextCommand>:
    21b6:	1f 93       	push	r17
    21b8:	cf 93       	push	r28
    21ba:	df 93       	push	r29
    21bc:	ec 01       	movw	r28, r24
    21be:	10 e0       	ldi	r17, 0x00	; 0
    21c0:	ee 81       	ldd	r30, Y+6	; 0x06
    21c2:	ff 81       	ldd	r31, Y+7	; 0x07
    21c4:	80 81       	ld	r24, Z
    21c6:	88 23       	and	r24, r24
    21c8:	09 f4       	brne	.+2      	; 0x21cc
    21ca:	05 c1       	rjmp	.+522    	; 0x23d6
    21cc:	ee 81       	ldd	r30, Y+6	; 0x06
    21ce:	ff 81       	ldd	r31, Y+7	; 0x07
    21d0:	81 91       	ld	r24, Z+
    21d2:	99 27       	eor	r25, r25
    21d4:	87 fd       	sbrc	r24, 7
    21d6:	90 95       	com	r25
    21d8:	ee 83       	std	Y+6, r30	; 0x06
    21da:	ff 83       	std	Y+7, r31	; 0x07
    21dc:	84 36       	cpi	r24, 0x64	; 100
    21de:	91 05       	cpc	r25, r1
    21e0:	09 f4       	brne	.+2      	; 0x21e4
    21e2:	57 c0       	rjmp	.+174    	; 0x2292
    21e4:	85 36       	cpi	r24, 0x65	; 101
    21e6:	91 05       	cpc	r25, r1
    21e8:	44 f5       	brge	.+80     	; 0x223a
    21ea:	8b 33       	cpi	r24, 0x3B	; 59
    21ec:	91 05       	cpc	r25, r1
    21ee:	09 f4       	brne	.+2      	; 0x21f2
    21f0:	e6 c0       	rjmp	.+460    	; 0x23be
    21f2:	8c 33       	cpi	r24, 0x3C	; 60
    21f4:	91 05       	cpc	r25, r1
    21f6:	9c f4       	brge	.+38     	; 0x221e
    21f8:	8d 32       	cpi	r24, 0x2D	; 45
    21fa:	91 05       	cpc	r25, r1
    21fc:	09 f4       	brne	.+2      	; 0x2200
    21fe:	a9 c0       	rjmp	.+338    	; 0x2352
    2200:	8e 32       	cpi	r24, 0x2E	; 46
    2202:	91 05       	cpc	r25, r1
    2204:	24 f4       	brge	.+8      	; 0x220e
    2206:	8b 97       	sbiw	r24, 0x2b	; 43
    2208:	09 f4       	brne	.+2      	; 0x220c
    220a:	e3 c0       	rjmp	.+454    	; 0x23d2
    220c:	d9 cf       	rjmp	.-78     	; 0x21c0
    220e:	8f 32       	cpi	r24, 0x2F	; 47
    2210:	91 05       	cpc	r25, r1
    2212:	09 f4       	brne	.+2      	; 0x2216
    2214:	d1 c0       	rjmp	.+418    	; 0x23b8
    2216:	ca 97       	sbiw	r24, 0x3a	; 58
    2218:	09 f4       	brne	.+2      	; 0x221c
    221a:	d4 c0       	rjmp	.+424    	; 0x23c4
    221c:	d1 cf       	rjmp	.-94     	; 0x21c0
    221e:	8e 33       	cpi	r24, 0x3E	; 62
    2220:	91 05       	cpc	r25, r1
    2222:	29 f1       	breq	.+74     	; 0x226e
    2224:	8f 33       	cpi	r24, 0x3F	; 63
    2226:	91 05       	cpc	r25, r1
    2228:	1c f4       	brge	.+6      	; 0x2230
    222a:	cc 97       	sbiw	r24, 0x3c	; 60
    222c:	e9 f0       	breq	.+58     	; 0x2268
    222e:	c8 cf       	rjmp	.-112    	; 0x21c0
    2230:	82 36       	cpi	r24, 0x62	; 98
    2232:	91 05       	cpc	r25, r1
    2234:	09 f4       	brne	.+2      	; 0x2238
    2236:	64 c0       	rjmp	.+200    	; 0x2300
    2238:	c3 cf       	rjmp	.-122    	; 0x21c0
    223a:	88 37       	cpi	r24, 0x78	; 120
    223c:	91 05       	cpc	r25, r1
    223e:	f1 f1       	breq	.+124    	; 0x22bc
    2240:	89 37       	cpi	r24, 0x79	; 121
    2242:	91 05       	cpc	r25, r1
    2244:	44 f4       	brge	.+16     	; 0x2256
    2246:	80 37       	cpi	r24, 0x70	; 112
    2248:	91 05       	cpc	r25, r1
    224a:	09 f4       	brne	.+2      	; 0x224e
    224c:	9c c0       	rjmp	.+312    	; 0x2386
    224e:	85 37       	cpi	r24, 0x75	; 117
    2250:	91 05       	cpc	r25, r1
    2252:	11 f1       	breq	.+68     	; 0x2298
    2254:	b5 cf       	rjmp	.-150    	; 0x21c0
    2256:	89 37       	cpi	r24, 0x79	; 121
    2258:	91 05       	cpc	r25, r1
    225a:	09 f4       	brne	.+2      	; 0x225e
    225c:	44 c0       	rjmp	.+136    	; 0x22e6
    225e:	8c 37       	cpi	r24, 0x7C	; 124
    2260:	91 05       	cpc	r25, r1
    2262:	09 f4       	brne	.+2      	; 0x2266
    2264:	5c c0       	rjmp	.+184    	; 0x231e
    2266:	ac cf       	rjmp	.-168    	; 0x21c0
    2268:	8a 8d       	ldd	r24, Y+26	; 0x1a
    226a:	8e 7f       	andi	r24, 0xFE	; 254
    226c:	02 c0       	rjmp	.+4      	; 0x2272
    226e:	8a 8d       	ldd	r24, Y+26	; 0x1a
    2270:	81 60       	ori	r24, 0x01	; 1
    2272:	8a 8f       	std	Y+26, r24	; 0x1a
    2274:	ce 01       	movw	r24, r28
    2276:	0e 94 b0 10 	call	0x2160
    227a:	9c 01       	movw	r18, r24
    227c:	8f ef       	ldi	r24, 0xFF	; 255
    227e:	2f 3f       	cpi	r18, 0xFF	; 255
    2280:	38 07       	cpc	r19, r24
    2282:	11 f0       	breq	.+4      	; 0x2288
    2284:	2c 8b       	std	Y+20, r18	; 0x14
    2286:	02 c0       	rjmp	.+4      	; 0x228c
    2288:	84 e1       	ldi	r24, 0x14	; 20
    228a:	8c 8b       	std	Y+20, r24	; 0x14
    228c:	8c 89       	ldd	r24, Y+20	; 0x14
    228e:	8b 8b       	std	Y+19, r24	; 0x13
    2290:	97 cf       	rjmp	.-210    	; 0x21c0
    2292:	8a 8d       	ldd	r24, Y+26	; 0x1a
    2294:	82 60       	ori	r24, 0x02	; 2
    2296:	02 c0       	rjmp	.+4      	; 0x229c
    2298:	8a 8d       	ldd	r24, Y+26	; 0x1a
    229a:	8d 7f       	andi	r24, 0xFD	; 253
    229c:	8a 8f       	std	Y+26, r24	; 0x1a
    229e:	ce 01       	movw	r24, r28
    22a0:	0e 94 b0 10 	call	0x2160
    22a4:	9c 01       	movw	r18, r24
    22a6:	8f ef       	ldi	r24, 0xFF	; 255
    22a8:	2f 3f       	cpi	r18, 0xFF	; 255
    22aa:	38 07       	cpc	r19, r24
    22ac:	11 f0       	breq	.+4      	; 0x22b2
    22ae:	2e 8b       	std	Y+22, r18	; 0x16
    22b0:	02 c0       	rjmp	.+4      	; 0x22b6
    22b2:	84 e1       	ldi	r24, 0x14	; 20
    22b4:	8e 8b       	std	Y+22, r24	; 0x16
    22b6:	8e 89       	ldd	r24, Y+22	; 0x16
    22b8:	8d 8b       	std	Y+21, r24	; 0x15
    22ba:	82 cf       	rjmp	.-252    	; 0x21c0
    22bc:	ce 01       	movw	r24, r28
    22be:	0e 94 b0 10 	call	0x2160
    22c2:	9c 01       	movw	r18, r24
    22c4:	8f ef       	ldi	r24, 0xFF	; 255
    22c6:	2f 3f       	cpi	r18, 0xFF	; 255
    22c8:	38 07       	cpc	r19, r24
    22ca:	19 f0       	breq	.+6      	; 0x22d2
    22cc:	2d 87       	std	Y+13, r18	; 0x0d
    22ce:	3e 87       	std	Y+14, r19	; 0x0e
    22d0:	77 cf       	rjmp	.-274    	; 0x21c0
    22d2:	8a 85       	ldd	r24, Y+10	; 0x0a
    22d4:	9b 85       	ldd	r25, Y+11	; 0x0b
    22d6:	97 fd       	sbrc	r25, 7
    22d8:	01 96       	adiw	r24, 0x01	; 1
    22da:	95 95       	asr	r25
    22dc:	87 95       	ror	r24
    22de:	08 96       	adiw	r24, 0x08	; 8
    22e0:	8d 87       	std	Y+13, r24	; 0x0d
    22e2:	9e 87       	std	Y+14, r25	; 0x0e
    22e4:	6d cf       	rjmp	.-294    	; 0x21c0
    22e6:	ce 01       	movw	r24, r28
    22e8:	0e 94 b0 10 	call	0x2160
    22ec:	9c 01       	movw	r18, r24
    22ee:	8f ef       	ldi	r24, 0xFF	; 255
    22f0:	2f 3f       	cpi	r18, 0xFF	; 255
    22f2:	38 07       	cpc	r19, r24
    22f4:	09 f4       	brne	.+2      	; 0x22f8
    22f6:	64 cf       	rjmp	.-312    	; 0x21c0
    22f8:	8c 85       	ldd	r24, Y+12	; 0x0c
    22fa:	28 1b       	sub	r18, r24
    22fc:	2f 87       	std	Y+15, r18	; 0x0f
    22fe:	60 cf       	rjmp	.-320    	; 0x21c0
    2300:	ce 01       	movw	r24, r28
    2302:	0e 94 b0 10 	call	0x2160
    2306:	9c 01       	movw	r18, r24
    2308:	8f ef       	ldi	r24, 0xFF	; 255
    230a:	2f 3f       	cpi	r18, 0xFF	; 255
    230c:	38 07       	cpc	r19, r24
    230e:	11 f0       	breq	.+4      	; 0x2314
    2310:	28 8f       	std	Y+24, r18	; 0x18
    2312:	02 c0       	rjmp	.+4      	; 0x2318
    2314:	82 e3       	ldi	r24, 0x32	; 50
    2316:	88 8f       	std	Y+24, r24	; 0x18
    2318:	88 8d       	ldd	r24, Y+24	; 0x18
    231a:	8f 8b       	std	Y+23, r24	; 0x17
    231c:	51 cf       	rjmp	.-350    	; 0x21c0
    231e:	ce 01       	movw	r24, r28
    2320:	0e 94 b0 10 	call	0x2160
    2324:	9c 01       	movw	r18, r24
    2326:	8f ef       	ldi	r24, 0xFF	; 255
    2328:	2f 3f       	cpi	r18, 0xFF	; 255
    232a:	38 07       	cpc	r19, r24
    232c:	19 f0       	breq	.+6      	; 0x2334
    232e:	28 8b       	std	Y+16, r18	; 0x10
    2330:	39 8b       	std	Y+17, r19	; 0x11
    2332:	0c c0       	rjmp	.+24     	; 0x234c
    2334:	2a 85       	ldd	r18, Y+10	; 0x0a
    2336:	3b 85       	ldd	r19, Y+11	; 0x0b
    2338:	c9 01       	movw	r24, r18
    233a:	0e 96       	adiw	r24, 0x0e	; 14
    233c:	97 ff       	sbrs	r25, 7
    233e:	02 c0       	rjmp	.+4      	; 0x2344
    2340:	c9 01       	movw	r24, r18
    2342:	0f 96       	adiw	r24, 0x0f	; 15
    2344:	95 95       	asr	r25
    2346:	87 95       	ror	r24
    2348:	88 8b       	std	Y+16, r24	; 0x10
    234a:	99 8b       	std	Y+17, r25	; 0x11
    234c:	82 e0       	ldi	r24, 0x02	; 2
    234e:	90 e0       	ldi	r25, 0x00	; 0
    2350:	3b c0       	rjmp	.+118    	; 0x23c8
    2352:	ce 01       	movw	r24, r28
    2354:	0e 94 b0 10 	call	0x2160
    2358:	9c 01       	movw	r18, r24
    235a:	8f ef       	ldi	r24, 0xFF	; 255
    235c:	2f 3f       	cpi	r18, 0xFF	; 255
    235e:	38 07       	cpc	r19, r24
    2360:	71 f4       	brne	.+28     	; 0x237e
    2362:	8c 85       	ldd	r24, Y+12	; 0x0c
    2364:	99 27       	eor	r25, r25
    2366:	87 fd       	sbrc	r24, 7
    2368:	90 95       	com	r25
    236a:	20 e1       	ldi	r18, 0x10	; 16
    236c:	30 e0       	ldi	r19, 0x00	; 0
    236e:	28 1b       	sub	r18, r24
    2370:	39 0b       	sbc	r19, r25
    2372:	37 ff       	sbrs	r19, 7
    2374:	02 c0       	rjmp	.+4      	; 0x237a
    2376:	2f 5f       	subi	r18, 0xFF	; 255
    2378:	3f 4f       	sbci	r19, 0xFF	; 255
    237a:	35 95       	asr	r19
    237c:	27 95       	ror	r18
    237e:	2a 8b       	std	Y+18, r18	; 0x12
    2380:	81 e0       	ldi	r24, 0x01	; 1
    2382:	90 e0       	ldi	r25, 0x00	; 0
    2384:	21 c0       	rjmp	.+66     	; 0x23c8
    2386:	1c 8a       	std	Y+20, r1	; 0x14
    2388:	1e 8a       	std	Y+22, r1	; 0x16
    238a:	ce 01       	movw	r24, r28
    238c:	0e 94 b0 10 	call	0x2160
    2390:	9c 01       	movw	r18, r24
    2392:	8f ef       	ldi	r24, 0xFF	; 255
    2394:	2f 3f       	cpi	r18, 0xFF	; 255
    2396:	38 07       	cpc	r19, r24
    2398:	41 f0       	breq	.+16     	; 0x23aa
    239a:	56 e0       	ldi	r21, 0x06	; 6
    239c:	22 0f       	add	r18, r18
    239e:	33 1f       	adc	r19, r19
    23a0:	5a 95       	dec	r21
    23a2:	e1 f7       	brne	.-8      	; 0x239c
    23a4:	2b 8f       	std	Y+27, r18	; 0x1b
    23a6:	3c 8f       	std	Y+28, r19	; 0x1c
    23a8:	04 c0       	rjmp	.+8      	; 0x23b2
    23aa:	80 e8       	ldi	r24, 0x80	; 128
    23ac:	97 e0       	ldi	r25, 0x07	; 7
    23ae:	8b 8f       	std	Y+27, r24	; 0x1b
    23b0:	9c 8f       	std	Y+28, r25	; 0x1c
    23b2:	84 e0       	ldi	r24, 0x04	; 4
    23b4:	90 e0       	ldi	r25, 0x00	; 0
    23b6:	08 c0       	rjmp	.+16     	; 0x23c8
    23b8:	83 e0       	ldi	r24, 0x03	; 3
    23ba:	90 e0       	ldi	r25, 0x00	; 0
    23bc:	05 c0       	rjmp	.+10     	; 0x23c8
    23be:	85 e0       	ldi	r24, 0x05	; 5
    23c0:	90 e0       	ldi	r25, 0x00	; 0
    23c2:	02 c0       	rjmp	.+4      	; 0x23c8
    23c4:	86 e0       	ldi	r24, 0x06	; 6
    23c6:	90 e0       	ldi	r25, 0x00	; 0
    23c8:	88 87       	std	Y+8, r24	; 0x08
    23ca:	99 87       	std	Y+9, r25	; 0x09
    23cc:	81 2f       	mov	r24, r17
    23ce:	99 27       	eor	r25, r25
    23d0:	04 c0       	rjmp	.+8      	; 0x23da
    23d2:	12 e0       	ldi	r17, 0x02	; 2
    23d4:	f5 ce       	rjmp	.-534    	; 0x21c0
    23d6:	81 e0       	ldi	r24, 0x01	; 1
    23d8:	90 e0       	ldi	r25, 0x00	; 0
    23da:	df 91       	pop	r29
    23dc:	cf 91       	pop	r28
    23de:	1f 91       	pop	r17
    23e0:	08 95       	ret

000023e2 <setupBlob>:
    23e2:	0f 93       	push	r16
    23e4:	1f 93       	push	r17
    23e6:	cf 93       	push	r28
    23e8:	df 93       	push	r29
    23ea:	8c 01       	movw	r16, r24
    23ec:	89 2b       	or	r24, r25
    23ee:	11 f0       	breq	.+4      	; 0x23f4
    23f0:	10 92 12 02 	sts	0x0212, r1
    23f4:	83 e2       	ldi	r24, 0x23	; 35
    23f6:	90 e0       	ldi	r25, 0x00	; 0
    23f8:	0e 94 b5 1a 	call	0x356a
    23fc:	ec 01       	movw	r28, r24
    23fe:	80 91 12 02 	lds	r24, 0x0212
    2402:	88 23       	and	r24, r24
    2404:	d9 f4       	brne	.+54     	; 0x243c
    2406:	43 e1       	ldi	r20, 0x13	; 19
    2408:	52 e0       	ldi	r21, 0x02	; 2
    240a:	64 ee       	ldi	r22, 0xE4	; 228
    240c:	71 e0       	ldi	r23, 0x01	; 1
    240e:	c8 01       	movw	r24, r16
    2410:	0e 94 12 1c 	call	0x3824
    2414:	8e 83       	std	Y+6, r24	; 0x06
    2416:	9f 83       	std	Y+7, r25	; 0x07
    2418:	89 2b       	or	r24, r25
    241a:	09 f4       	brne	.+2      	; 0x241e
    241c:	94 c0       	rjmp	.+296    	; 0x2546
    241e:	ce 01       	movw	r24, r28
    2420:	0e 94 b0 10 	call	0x2160
    2424:	2f ef       	ldi	r18, 0xFF	; 255
    2426:	8f 3f       	cpi	r24, 0xFF	; 255
    2428:	92 07       	cpc	r25, r18
    242a:	41 f0       	breq	.+16     	; 0x243c
    242c:	80 93 12 02 	sts	0x0212, r24
    2430:	8e 81       	ldd	r24, Y+6	; 0x06
    2432:	9f 81       	ldd	r25, Y+7	; 0x07
    2434:	90 93 16 02 	sts	0x0216, r25
    2438:	80 93 15 02 	sts	0x0215, r24
    243c:	80 91 12 02 	lds	r24, 0x0212
    2440:	88 23       	and	r24, r24
    2442:	49 f0       	breq	.+18     	; 0x2456
    2444:	81 50       	subi	r24, 0x01	; 1
    2446:	80 93 12 02 	sts	0x0212, r24
    244a:	80 91 15 02 	lds	r24, 0x0215
    244e:	90 91 16 02 	lds	r25, 0x0216
    2452:	8e 83       	std	Y+6, r24	; 0x06
    2454:	9f 83       	std	Y+7, r25	; 0x07
    2456:	43 e1       	ldi	r20, 0x13	; 19
    2458:	52 e0       	ldi	r21, 0x02	; 2
    245a:	64 ee       	ldi	r22, 0xE4	; 228
    245c:	71 e0       	ldi	r23, 0x01	; 1
    245e:	80 e0       	ldi	r24, 0x00	; 0
    2460:	90 e0       	ldi	r25, 0x00	; 0
    2462:	0e 94 12 1c 	call	0x3824
    2466:	9c 01       	movw	r18, r24
    2468:	8c 83       	std	Y+4, r24	; 0x04
    246a:	9d 83       	std	Y+5, r25	; 0x05
    246c:	89 2b       	or	r24, r25
    246e:	09 f4       	brne	.+2      	; 0x2472
    2470:	6a c0       	rjmp	.+212    	; 0x2546
    2472:	80 91 94 02 	lds	r24, 0x0294
    2476:	90 91 95 02 	lds	r25, 0x0295
    247a:	8d 8f       	std	Y+29, r24	; 0x1d
    247c:	9e 8f       	std	Y+30, r25	; 0x1e
    247e:	80 91 96 02 	lds	r24, 0x0296
    2482:	90 91 97 02 	lds	r25, 0x0297
    2486:	8f 8f       	std	Y+31, r24	; 0x1f
    2488:	98 a3       	std	Y+32, r25	; 0x20
    248a:	80 91 9b 02 	lds	r24, 0x029B
    248e:	89 a3       	std	Y+33, r24	; 0x21
    2490:	f9 01       	movw	r30, r18
    2492:	90 91 98 02 	lds	r25, 0x0298
    2496:	20 91 99 02 	lds	r18, 0x0299
    249a:	80 81       	ld	r24, Z
    249c:	88 23       	and	r24, r24
    249e:	71 f0       	breq	.+28     	; 0x24bc
    24a0:	31 e0       	ldi	r19, 0x01	; 1
    24a2:	89 17       	cp	r24, r25
    24a4:	30 f0       	brcs	.+12     	; 0x24b2
    24a6:	82 17       	cp	r24, r18
    24a8:	20 f4       	brcc	.+8      	; 0x24b2
    24aa:	89 1b       	sub	r24, r25
    24ac:	8f 5f       	subi	r24, 0xFF	; 255
    24ae:	80 83       	st	Z, r24
    24b0:	01 c0       	rjmp	.+2      	; 0x24b4
    24b2:	30 83       	st	Z, r19
    24b4:	31 96       	adiw	r30, 0x01	; 1
    24b6:	80 81       	ld	r24, Z
    24b8:	88 23       	and	r24, r24
    24ba:	99 f7       	brne	.-26     	; 0x24a2
    24bc:	81 e0       	ldi	r24, 0x01	; 1
    24be:	8a a3       	std	Y+34, r24	; 0x22
    24c0:	80 91 93 02 	lds	r24, 0x0293
    24c4:	8c 87       	std	Y+12, r24	; 0x0c
    24c6:	ce 01       	movw	r24, r28
    24c8:	0e 94 78 10 	call	0x20f0
    24cc:	ac 01       	movw	r20, r24
    24ce:	8a 87       	std	Y+10, r24	; 0x0a
    24d0:	9b 87       	std	Y+11, r25	; 0x0b
    24d2:	ee 81       	ldd	r30, Y+6	; 0x06
    24d4:	ff 81       	ldd	r31, Y+7	; 0x07
    24d6:	e0 81       	ld	r30, Z
    24d8:	ec 33       	cpi	r30, 0x3C	; 60
    24da:	19 f4       	brne	.+6      	; 0x24e2
    24dc:	1d 86       	std	Y+13, r1	; 0x0d
    24de:	1e 86       	std	Y+14, r1	; 0x0e
    24e0:	06 c0       	rjmp	.+12     	; 0x24ee
    24e2:	ee 33       	cpi	r30, 0x3E	; 62
    24e4:	a1 f4       	brne	.+40     	; 0x250e
    24e6:	40 5f       	subi	r20, 0xF0	; 240
    24e8:	5f 4f       	sbci	r21, 0xFF	; 255
    24ea:	4d 87       	std	Y+13, r20	; 0x0d
    24ec:	5e 87       	std	Y+14, r21	; 0x0e
    24ee:	8c 85       	ldd	r24, Y+12	; 0x0c
    24f0:	99 27       	eor	r25, r25
    24f2:	87 fd       	sbrc	r24, 7
    24f4:	90 95       	com	r25
    24f6:	20 e1       	ldi	r18, 0x10	; 16
    24f8:	30 e0       	ldi	r19, 0x00	; 0
    24fa:	28 1b       	sub	r18, r24
    24fc:	39 0b       	sbc	r19, r25
    24fe:	37 ff       	sbrs	r19, 7
    2500:	02 c0       	rjmp	.+4      	; 0x2506
    2502:	2f 5f       	subi	r18, 0xFF	; 255
    2504:	3f 4f       	sbci	r19, 0xFF	; 255
    2506:	35 95       	asr	r19
    2508:	27 95       	ror	r18
    250a:	2f 87       	std	Y+15, r18	; 0x0f
    250c:	15 c0       	rjmp	.+42     	; 0x2538
    250e:	e4 36       	cpi	r30, 0x64	; 100
    2510:	19 f4       	brne	.+6      	; 0x2518
    2512:	8c 85       	ldd	r24, Y+12	; 0x0c
    2514:	81 95       	neg	r24
    2516:	03 c0       	rjmp	.+6      	; 0x251e
    2518:	e5 37       	cpi	r30, 0x75	; 117
    251a:	71 f4       	brne	.+28     	; 0x2538
    251c:	8c 85       	ldd	r24, Y+12	; 0x0c
    251e:	8f 87       	std	Y+15, r24	; 0x0f
    2520:	9a 01       	movw	r18, r20
    2522:	22 5f       	subi	r18, 0xF2	; 242
    2524:	3f 4f       	sbci	r19, 0xFF	; 255
    2526:	37 ff       	sbrs	r19, 7
    2528:	03 c0       	rjmp	.+6      	; 0x2530
    252a:	9a 01       	movw	r18, r20
    252c:	21 5f       	subi	r18, 0xF1	; 241
    252e:	3f 4f       	sbci	r19, 0xFF	; 255
    2530:	35 95       	asr	r19
    2532:	27 95       	ror	r18
    2534:	2d 87       	std	Y+13, r18	; 0x0d
    2536:	3e 87       	std	Y+14, r19	; 0x0e
    2538:	1c 8a       	std	Y+20, r1	; 0x14
    253a:	1e 8a       	std	Y+22, r1	; 0x16
    253c:	18 8e       	std	Y+24, r1	; 0x18
    253e:	18 86       	std	Y+8, r1	; 0x08
    2540:	19 86       	std	Y+9, r1	; 0x09
    2542:	ce 01       	movw	r24, r28
    2544:	05 c0       	rjmp	.+10     	; 0x2550
    2546:	ce 01       	movw	r24, r28
    2548:	0e 94 64 1b 	call	0x36c8
    254c:	80 e0       	ldi	r24, 0x00	; 0
    254e:	90 e0       	ldi	r25, 0x00	; 0
    2550:	df 91       	pop	r29
    2552:	cf 91       	pop	r28
    2554:	1f 91       	pop	r17
    2556:	0f 91       	pop	r16
    2558:	08 95       	ret

0000255a <updateBlob>:
    255a:	cf 93       	push	r28
    255c:	df 93       	push	r29
    255e:	fc 01       	movw	r30, r24
    2560:	94 89       	ldd	r25, Z+20	; 0x14
    2562:	99 23       	and	r25, r25
    2564:	91 f0       	breq	.+36     	; 0x258a
    2566:	83 89       	ldd	r24, Z+19	; 0x13
    2568:	81 50       	subi	r24, 0x01	; 1
    256a:	83 8b       	std	Z+19, r24	; 0x13
    256c:	8f 3f       	cpi	r24, 0xFF	; 255
    256e:	69 f4       	brne	.+26     	; 0x258a
    2570:	93 8b       	std	Z+19, r25	; 0x13
    2572:	82 8d       	ldd	r24, Z+26	; 0x1a
    2574:	25 85       	ldd	r18, Z+13	; 0x0d
    2576:	36 85       	ldd	r19, Z+14	; 0x0e
    2578:	80 ff       	sbrs	r24, 0
    257a:	03 c0       	rjmp	.+6      	; 0x2582
    257c:	21 50       	subi	r18, 0x01	; 1
    257e:	30 40       	sbci	r19, 0x00	; 0
    2580:	02 c0       	rjmp	.+4      	; 0x2586
    2582:	2f 5f       	subi	r18, 0xFF	; 255
    2584:	3f 4f       	sbci	r19, 0xFF	; 255
    2586:	25 87       	std	Z+13, r18	; 0x0d
    2588:	36 87       	std	Z+14, r19	; 0x0e
    258a:	96 89       	ldd	r25, Z+22	; 0x16
    258c:	99 23       	and	r25, r25
    258e:	71 f0       	breq	.+28     	; 0x25ac
    2590:	85 89       	ldd	r24, Z+21	; 0x15
    2592:	81 50       	subi	r24, 0x01	; 1
    2594:	85 8b       	std	Z+21, r24	; 0x15
    2596:	8f 3f       	cpi	r24, 0xFF	; 255
    2598:	49 f4       	brne	.+18     	; 0x25ac
    259a:	95 8b       	std	Z+21, r25	; 0x15
    259c:	82 8d       	ldd	r24, Z+26	; 0x1a
    259e:	97 85       	ldd	r25, Z+15	; 0x0f
    25a0:	81 ff       	sbrs	r24, 1
    25a2:	02 c0       	rjmp	.+4      	; 0x25a8
    25a4:	9f 5f       	subi	r25, 0xFF	; 255
    25a6:	01 c0       	rjmp	.+2      	; 0x25aa
    25a8:	91 50       	subi	r25, 0x01	; 1
    25aa:	97 87       	std	Z+15, r25	; 0x0f
    25ac:	90 8d       	ldd	r25, Z+24	; 0x18
    25ae:	99 23       	and	r25, r25
    25b0:	51 f0       	breq	.+20     	; 0x25c6
    25b2:	87 89       	ldd	r24, Z+23	; 0x17
    25b4:	81 50       	subi	r24, 0x01	; 1
    25b6:	87 8b       	std	Z+23, r24	; 0x17
    25b8:	8f 3f       	cpi	r24, 0xFF	; 255
    25ba:	39 f4       	brne	.+14     	; 0x25ca
    25bc:	97 8b       	std	Z+23, r25	; 0x17
    25be:	81 8d       	ldd	r24, Z+25	; 0x19
    25c0:	91 e0       	ldi	r25, 0x01	; 1
    25c2:	89 27       	eor	r24, r25
    25c4:	01 c0       	rjmp	.+2      	; 0x25c8
    25c6:	81 e0       	ldi	r24, 0x01	; 1
    25c8:	81 8f       	std	Z+25, r24	; 0x19
    25ca:	40 e0       	ldi	r20, 0x00	; 0
    25cc:	80 85       	ldd	r24, Z+8	; 0x08
    25ce:	91 85       	ldd	r25, Z+9	; 0x09
    25d0:	83 30       	cpi	r24, 0x03	; 3
    25d2:	91 05       	cpc	r25, r1
    25d4:	f1 f0       	breq	.+60     	; 0x2612
    25d6:	84 30       	cpi	r24, 0x04	; 4
    25d8:	91 05       	cpc	r25, r1
    25da:	30 f4       	brcc	.+12     	; 0x25e8
    25dc:	81 30       	cpi	r24, 0x01	; 1
    25de:	91 05       	cpc	r25, r1
    25e0:	69 f0       	breq	.+26     	; 0x25fc
    25e2:	02 97       	sbiw	r24, 0x02	; 2
    25e4:	89 f0       	breq	.+34     	; 0x2608
    25e6:	5e c0       	rjmp	.+188    	; 0x26a4
    25e8:	85 30       	cpi	r24, 0x05	; 5
    25ea:	91 05       	cpc	r25, r1
    25ec:	b9 f1       	breq	.+110    	; 0x265c
    25ee:	85 30       	cpi	r24, 0x05	; 5
    25f0:	91 05       	cpc	r25, r1
    25f2:	58 f1       	brcs	.+86     	; 0x264a
    25f4:	06 97       	sbiw	r24, 0x06	; 6
    25f6:	09 f4       	brne	.+2      	; 0x25fa
    25f8:	42 c0       	rjmp	.+132    	; 0x267e
    25fa:	54 c0       	rjmp	.+168    	; 0x26a4
    25fc:	97 85       	ldd	r25, Z+15	; 0x0f
    25fe:	82 89       	ldd	r24, Z+18	; 0x12
    2600:	98 17       	cp	r25, r24
    2602:	09 f0       	breq	.+2      	; 0x2606
    2604:	54 c0       	rjmp	.+168    	; 0x26ae
    2606:	4e c0       	rjmp	.+156    	; 0x26a4
    2608:	25 85       	ldd	r18, Z+13	; 0x0d
    260a:	36 85       	ldd	r19, Z+14	; 0x0e
    260c:	80 89       	ldd	r24, Z+16	; 0x10
    260e:	91 89       	ldd	r25, Z+17	; 0x11
    2610:	43 c0       	rjmp	.+134    	; 0x2698
    2612:	25 85       	ldd	r18, Z+13	; 0x0d
    2614:	36 85       	ldd	r19, Z+14	; 0x0e
    2616:	82 85       	ldd	r24, Z+10	; 0x0a
    2618:	93 85       	ldd	r25, Z+11	; 0x0b
    261a:	b9 01       	movw	r22, r18
    261c:	68 1b       	sub	r22, r24
    261e:	79 0b       	sbc	r23, r25
    2620:	61 31       	cpi	r22, 0x11	; 17
    2622:	71 05       	cpc	r23, r1
    2624:	14 f4       	brge	.+4      	; 0x262a
    2626:	33 23       	and	r19, r19
    2628:	0c f4       	brge	.+2      	; 0x262c
    262a:	41 e0       	ldi	r20, 0x01	; 1
    262c:	87 85       	ldd	r24, Z+15	; 0x0f
    262e:	81 31       	cpi	r24, 0x11	; 17
    2630:	cc f5       	brge	.+114    	; 0x26a4
    2632:	99 27       	eor	r25, r25
    2634:	87 fd       	sbrc	r24, 7
    2636:	90 95       	com	r25
    2638:	24 85       	ldd	r18, Z+12	; 0x0c
    263a:	33 27       	eor	r19, r19
    263c:	27 fd       	sbrc	r18, 7
    263e:	30 95       	com	r19
    2640:	82 0f       	add	r24, r18
    2642:	93 1f       	adc	r25, r19
    2644:	99 23       	and	r25, r25
    2646:	64 f5       	brge	.+88     	; 0x26a0
    2648:	2d c0       	rjmp	.+90     	; 0x26a4
    264a:	83 8d       	ldd	r24, Z+27	; 0x1b
    264c:	94 8d       	ldd	r25, Z+28	; 0x1c
    264e:	01 97       	sbiw	r24, 0x01	; 1
    2650:	83 8f       	std	Z+27, r24	; 0x1b
    2652:	94 8f       	std	Z+28, r25	; 0x1c
    2654:	8f 5f       	subi	r24, 0xFF	; 255
    2656:	9f 4f       	sbci	r25, 0xFF	; 255
    2658:	51 f5       	brne	.+84     	; 0x26ae
    265a:	24 c0       	rjmp	.+72     	; 0x26a4
    265c:	a2 81       	ldd	r26, Z+2	; 0x02
    265e:	b3 81       	ldd	r27, Z+3	; 0x03
    2660:	10 97       	sbiw	r26, 0x00	; 0
    2662:	01 f1       	breq	.+64     	; 0x26a4
    2664:	ed 01       	movw	r28, r26
    2666:	8d 85       	ldd	r24, Y+13	; 0x0d
    2668:	9e 85       	ldd	r25, Y+14	; 0x0e
    266a:	2a 85       	ldd	r18, Y+10	; 0x0a
    266c:	3b 85       	ldd	r19, Y+11	; 0x0b
    266e:	82 1b       	sub	r24, r18
    2670:	93 0b       	sbc	r25, r19
    2672:	25 85       	ldd	r18, Z+13	; 0x0d
    2674:	36 85       	ldd	r19, Z+14	; 0x0e
    2676:	82 17       	cp	r24, r18
    2678:	93 07       	cpc	r25, r19
    267a:	c9 f4       	brne	.+50     	; 0x26ae
    267c:	13 c0       	rjmp	.+38     	; 0x26a4
    267e:	a0 81       	ld	r26, Z
    2680:	b1 81       	ldd	r27, Z+1	; 0x01
    2682:	10 97       	sbiw	r26, 0x00	; 0
    2684:	79 f0       	breq	.+30     	; 0x26a4
    2686:	85 85       	ldd	r24, Z+13	; 0x0d
    2688:	96 85       	ldd	r25, Z+14	; 0x0e
    268a:	22 85       	ldd	r18, Z+10	; 0x0a
    268c:	33 85       	ldd	r19, Z+11	; 0x0b
    268e:	82 1b       	sub	r24, r18
    2690:	93 0b       	sbc	r25, r19
    2692:	ed 01       	movw	r28, r26
    2694:	2d 85       	ldd	r18, Y+13	; 0x0d
    2696:	3e 85       	ldd	r19, Y+14	; 0x0e
    2698:	28 17       	cp	r18, r24
    269a:	39 07       	cpc	r19, r25
    269c:	41 f4       	brne	.+16     	; 0x26ae
    269e:	02 c0       	rjmp	.+4      	; 0x26a4
    26a0:	44 23       	and	r20, r20
    26a2:	29 f0       	breq	.+10     	; 0x26ae
    26a4:	cf 01       	movw	r24, r30
    26a6:	0e 94 db 10 	call	0x21b6
    26aa:	99 27       	eor	r25, r25
    26ac:	02 c0       	rjmp	.+4      	; 0x26b2
    26ae:	80 e0       	ldi	r24, 0x00	; 0
    26b0:	90 e0       	ldi	r25, 0x00	; 0
    26b2:	df 91       	pop	r29
    26b4:	cf 91       	pop	r28
    26b6:	08 95       	ret

000026b8 <drawBlob>:
    26b8:	2f 92       	push	r2
    26ba:	3f 92       	push	r3
    26bc:	4f 92       	push	r4
    26be:	5f 92       	push	r5
    26c0:	6f 92       	push	r6
    26c2:	7f 92       	push	r7
    26c4:	8f 92       	push	r8
    26c6:	9f 92       	push	r9
    26c8:	af 92       	push	r10
    26ca:	bf 92       	push	r11
    26cc:	cf 92       	push	r12
    26ce:	df 92       	push	r13
    26d0:	ef 92       	push	r14
    26d2:	ff 92       	push	r15
    26d4:	0f 93       	push	r16
    26d6:	1f 93       	push	r17
    26d8:	cf 93       	push	r28
    26da:	df 93       	push	r29
    26dc:	cd b7       	in	r28, 0x3d	; 61
    26de:	de b7       	in	r29, 0x3e	; 62
    26e0:	23 97       	sbiw	r28, 0x03	; 3
    26e2:	0f b6       	in	r0, 0x3f	; 63
    26e4:	f8 94       	cli
    26e6:	de bf       	out	0x3e, r29	; 62
    26e8:	0f be       	out	0x3f, r0	; 63
    26ea:	cd bf       	out	0x3d, r28	; 61
    26ec:	7c 01       	movw	r14, r24
    26ee:	19 82       	std	Y+1, r1	; 0x01
    26f0:	fc 01       	movw	r30, r24
    26f2:	81 8d       	ldd	r24, Z+25	; 0x19
    26f4:	88 23       	and	r24, r24
    26f6:	09 f4       	brne	.+2      	; 0x26fa
    26f8:	ad c0       	rjmp	.+346    	; 0x2854
    26fa:	c4 80       	ldd	r12, Z+4	; 0x04
    26fc:	d5 80       	ldd	r13, Z+5	; 0x05
    26fe:	25 85       	ldd	r18, Z+13	; 0x0d
    2700:	36 85       	ldd	r19, Z+14	; 0x0e
    2702:	27 84       	ldd	r2, Z+15	; 0x0f
    2704:	44 84       	ldd	r4, Z+12	; 0x0c
    2706:	42 0c       	add	r4, r2
    2708:	31 a0       	ldd	r3, Z+33	; 0x21
    270a:	d6 01       	movw	r26, r12
    270c:	8c 91       	ld	r24, X
    270e:	81 50       	subi	r24, 0x01	; 1
    2710:	99 27       	eor	r25, r25
    2712:	88 0f       	add	r24, r24
    2714:	99 1f       	adc	r25, r25
    2716:	45 8d       	ldd	r20, Z+29	; 0x1d
    2718:	56 8d       	ldd	r21, Z+30	; 0x1e
    271a:	fa 01       	movw	r30, r20
    271c:	e8 0f       	add	r30, r24
    271e:	f9 1f       	adc	r31, r25
    2720:	65 91       	lpm	r22, Z+
    2722:	74 91       	lpm	r23, Z
    2724:	6a 83       	std	Y+2, r22	; 0x02
    2726:	7b 83       	std	Y+3, r23	; 0x03
    2728:	fa 01       	movw	r30, r20
    272a:	e8 0f       	add	r30, r24
    272c:	f9 1f       	adc	r31, r25
    272e:	32 96       	adiw	r30, 0x02	; 2
    2730:	85 90       	lpm	r8, Z+
    2732:	94 90       	lpm	r9, Z
    2734:	20 31       	cpi	r18, 0x10	; 16
    2736:	31 05       	cpc	r19, r1
    2738:	80 f1       	brcs	.+96     	; 0x279a
    273a:	63 2d       	mov	r22, r3
    273c:	77 27       	eor	r23, r23
    273e:	8a 81       	ldd	r24, Y+2	; 0x02
    2740:	9b 81       	ldd	r25, Y+3	; 0x03
    2742:	86 0f       	add	r24, r22
    2744:	97 1f       	adc	r25, r23
    2746:	8a 83       	std	Y+2, r24	; 0x02
    2748:	9b 83       	std	Y+3, r25	; 0x03
    274a:	88 15       	cp	r24, r8
    274c:	99 05       	cpc	r25, r9
    274e:	18 f4       	brcc	.+6      	; 0x2756
    2750:	21 50       	subi	r18, 0x01	; 1
    2752:	30 40       	sbci	r19, 0x00	; 0
    2754:	1f c0       	rjmp	.+62     	; 0x2794
    2756:	f7 01       	movw	r30, r14
    2758:	82 a1       	ldd	r24, Z+34	; 0x22
    275a:	28 1b       	sub	r18, r24
    275c:	31 09       	sbc	r19, r1
    275e:	21 50       	subi	r18, 0x01	; 1
    2760:	30 40       	sbci	r19, 0x00	; 0
    2762:	08 94       	sec
    2764:	c1 1c       	adc	r12, r1
    2766:	d1 1c       	adc	r13, r1
    2768:	d6 01       	movw	r26, r12
    276a:	8c 91       	ld	r24, X
    276c:	88 23       	and	r24, r24
    276e:	09 f4       	brne	.+2      	; 0x2772
    2770:	71 c0       	rjmp	.+226    	; 0x2854
    2772:	81 50       	subi	r24, 0x01	; 1
    2774:	99 27       	eor	r25, r25
    2776:	88 0f       	add	r24, r24
    2778:	99 1f       	adc	r25, r25
    277a:	fa 01       	movw	r30, r20
    277c:	e8 0f       	add	r30, r24
    277e:	f9 1f       	adc	r31, r25
    2780:	a5 91       	lpm	r26, Z+
    2782:	b4 91       	lpm	r27, Z
    2784:	aa 83       	std	Y+2, r26	; 0x02
    2786:	bb 83       	std	Y+3, r27	; 0x03
    2788:	fa 01       	movw	r30, r20
    278a:	e8 0f       	add	r30, r24
    278c:	f9 1f       	adc	r31, r25
    278e:	32 96       	adiw	r30, 0x02	; 2
    2790:	85 90       	lpm	r8, Z+
    2792:	94 90       	lpm	r9, Z
    2794:	20 31       	cpi	r18, 0x10	; 16
    2796:	31 05       	cpc	r19, r1
    2798:	90 f6       	brcc	.-92     	; 0x273e
    279a:	02 2f       	mov	r16, r18
    279c:	22 23       	and	r18, r18
    279e:	0c f4       	brge	.+2      	; 0x27a2
    27a0:	59 c0       	rjmp	.+178    	; 0x2854
    27a2:	55 24       	eor	r5, r5
    27a4:	aa 80       	ldd	r10, Y+2	; 0x02
    27a6:	bb 80       	ldd	r11, Y+3	; 0x03
    27a8:	12 2d       	mov	r17, r2
    27aa:	10 31       	cpi	r17, 0x10	; 16
    27ac:	54 f5       	brge	.+84     	; 0x2802
    27ae:	82 2d       	mov	r24, r2
    27b0:	99 27       	eor	r25, r25
    27b2:	87 fd       	sbrc	r24, 7
    27b4:	90 95       	com	r25
    27b6:	64 2c       	mov	r6, r4
    27b8:	77 24       	eor	r7, r7
    27ba:	86 15       	cp	r24, r6
    27bc:	97 05       	cpc	r25, r7
    27be:	0c f5       	brge	.+66     	; 0x2802
    27c0:	55 0c       	add	r5, r5
    27c2:	69 f4       	brne	.+26     	; 0x27de
    27c4:	b1 e0       	ldi	r27, 0x01	; 1
    27c6:	5b 2e       	mov	r5, r27
    27c8:	f7 01       	movw	r30, r14
    27ca:	27 8d       	ldd	r18, Z+31	; 0x1f
    27cc:	30 a1       	ldd	r19, Z+32	; 0x20
    27ce:	2a 0d       	add	r18, r10
    27d0:	3b 1d       	adc	r19, r11
    27d2:	08 94       	sec
    27d4:	a1 1c       	adc	r10, r1
    27d6:	b1 1c       	adc	r11, r1
    27d8:	f9 01       	movw	r30, r18
    27da:	f4 91       	lpm	r31, Z
    27dc:	f9 83       	std	Y+1, r31	; 0x01
    27de:	89 81       	ldd	r24, Y+1	; 0x01
    27e0:	85 21       	and	r24, r5
    27e2:	39 f0       	breq	.+14     	; 0x27f2
    27e4:	17 fd       	sbrc	r17, 7
    27e6:	05 c0       	rjmp	.+10     	; 0x27f2
    27e8:	80 2f       	mov	r24, r16
    27ea:	91 2f       	mov	r25, r17
    27ec:	61 e0       	ldi	r22, 0x01	; 1
    27ee:	0e 94 17 10 	call	0x202e
    27f2:	1f 5f       	subi	r17, 0xFF	; 255
    27f4:	10 31       	cpi	r17, 0x10	; 16
    27f6:	2c f4       	brge	.+10     	; 0x2802
    27f8:	81 2f       	mov	r24, r17
    27fa:	99 27       	eor	r25, r25
    27fc:	87 fd       	sbrc	r24, 7
    27fe:	90 95       	com	r25
    2800:	dc cf       	rjmp	.-72     	; 0x27ba
    2802:	4a 81       	ldd	r20, Y+2	; 0x02
    2804:	5b 81       	ldd	r21, Y+3	; 0x03
    2806:	43 0d       	add	r20, r3
    2808:	51 1d       	adc	r21, r1
    280a:	4a 83       	std	Y+2, r20	; 0x02
    280c:	5b 83       	std	Y+3, r21	; 0x03
    280e:	48 15       	cp	r20, r8
    2810:	59 05       	cpc	r21, r9
    2812:	e8 f0       	brcs	.+58     	; 0x284e
    2814:	f7 01       	movw	r30, r14
    2816:	82 a1       	ldd	r24, Z+34	; 0x22
    2818:	08 1b       	sub	r16, r24
    281a:	08 94       	sec
    281c:	c1 1c       	adc	r12, r1
    281e:	d1 1c       	adc	r13, r1
    2820:	d6 01       	movw	r26, r12
    2822:	8c 91       	ld	r24, X
    2824:	88 23       	and	r24, r24
    2826:	b1 f0       	breq	.+44     	; 0x2854
    2828:	81 50       	subi	r24, 0x01	; 1
    282a:	99 27       	eor	r25, r25
    282c:	88 0f       	add	r24, r24
    282e:	99 1f       	adc	r25, r25
    2830:	25 8d       	ldd	r18, Z+29	; 0x1d
    2832:	36 8d       	ldd	r19, Z+30	; 0x1e
    2834:	f9 01       	movw	r30, r18
    2836:	e8 0f       	add	r30, r24
    2838:	f9 1f       	adc	r31, r25
    283a:	45 91       	lpm	r20, Z+
    283c:	54 91       	lpm	r21, Z
    283e:	4a 83       	std	Y+2, r20	; 0x02
    2840:	5b 83       	std	Y+3, r21	; 0x03
    2842:	f9 01       	movw	r30, r18
    2844:	e8 0f       	add	r30, r24
    2846:	f9 1f       	adc	r31, r25
    2848:	32 96       	adiw	r30, 0x02	; 2
    284a:	85 90       	lpm	r8, Z+
    284c:	94 90       	lpm	r9, Z
    284e:	01 50       	subi	r16, 0x01	; 1
    2850:	07 ff       	sbrs	r16, 7
    2852:	a7 cf       	rjmp	.-178    	; 0x27a2
    2854:	23 96       	adiw	r28, 0x03	; 3
    2856:	0f b6       	in	r0, 0x3f	; 63
    2858:	f8 94       	cli
    285a:	de bf       	out	0x3e, r29	; 62
    285c:	0f be       	out	0x3f, r0	; 63
    285e:	cd bf       	out	0x3d, r28	; 61
    2860:	df 91       	pop	r29
    2862:	cf 91       	pop	r28
    2864:	1f 91       	pop	r17
    2866:	0f 91       	pop	r16
    2868:	ff 90       	pop	r15
    286a:	ef 90       	pop	r14
    286c:	df 90       	pop	r13
    286e:	cf 90       	pop	r12
    2870:	bf 90       	pop	r11
    2872:	af 90       	pop	r10
    2874:	9f 90       	pop	r9
    2876:	8f 90       	pop	r8
    2878:	7f 90       	pop	r7
    287a:	6f 90       	pop	r6
    287c:	5f 90       	pop	r5
    287e:	4f 90       	pop	r4
    2880:	3f 90       	pop	r3
    2882:	2f 90       	pop	r2
    2884:	08 95       	ret

00002886 <scrolltext>:
    2886:	ef 92       	push	r14
    2888:	ff 92       	push	r15
    288a:	0f 93       	push	r16
    288c:	1f 93       	push	r17
    288e:	cf 93       	push	r28
    2890:	df 93       	push	r29
    2892:	cd b7       	in	r28, 0x3d	; 61
    2894:	de b7       	in	r29, 0x3e	; 62
    2896:	cd 59       	subi	r28, 0x9D	; 157
    2898:	d0 40       	sbci	r29, 0x00	; 0
    289a:	0f b6       	in	r0, 0x3f	; 63
    289c:	f8 94       	cli
    289e:	de bf       	out	0x3e, r29	; 62
    28a0:	0f be       	out	0x3f, r0	; 63
    28a2:	cd bf       	out	0x3d, r28	; 61
    28a4:	8c 01       	movw	r16, r24
    28a6:	89 e0       	ldi	r24, 0x09	; 9
    28a8:	a6 ee       	ldi	r26, 0xE6	; 230
    28aa:	b1 e0       	ldi	r27, 0x01	; 1
    28ac:	e3 e9       	ldi	r30, 0x93	; 147
    28ae:	f2 e0       	ldi	r31, 0x02	; 2
    28b0:	0d 90       	ld	r0, X+
    28b2:	01 92       	st	Z+, r0
    28b4:	8a 95       	dec	r24
    28b6:	e1 f7       	brne	.-8      	; 0x28b0
    28b8:	80 e2       	ldi	r24, 0x20	; 32
    28ba:	90 e0       	ldi	r25, 0x00	; 0
    28bc:	0e 94 b5 1a 	call	0x356a
    28c0:	90 93 9d 02 	sts	0x029D, r25
    28c4:	80 93 9c 02 	sts	0x029C, r24
    28c8:	80 e8       	ldi	r24, 0x80	; 128
    28ca:	fe 01       	movw	r30, r28
    28cc:	7a 96       	adiw	r30, 0x1a	; 26
    28ce:	d8 01       	movw	r26, r16
    28d0:	0d 90       	ld	r0, X+
    28d2:	01 92       	st	Z+, r0
    28d4:	8a 95       	dec	r24
    28d6:	e1 f7       	brne	.-8      	; 0x28d0
    28d8:	c6 56       	subi	r28, 0x66	; 102
    28da:	df 4f       	sbci	r29, 0xFF	; 255
    28dc:	18 82       	st	Y, r1
    28de:	19 82       	std	Y+1, r1	; 0x01
    28e0:	ca 59       	subi	r28, 0x9A	; 154
    28e2:	d0 40       	sbci	r29, 0x00	; 0
    28e4:	e0 e0       	ldi	r30, 0x00	; 0
    28e6:	f0 e0       	ldi	r31, 0x00	; 0
    28e8:	c4 56       	subi	r28, 0x64	; 100
    28ea:	df 4f       	sbci	r29, 0xFF	; 255
    28ec:	e8 83       	st	Y, r30
    28ee:	f9 83       	std	Y+1, r31	; 0x01
    28f0:	cc 59       	subi	r28, 0x9C	; 156
    28f2:	d0 40       	sbci	r29, 0x00	; 0
    28f4:	2a e7       	ldi	r18, 0x7A	; 122
    28f6:	32 e0       	ldi	r19, 0x02	; 2
    28f8:	89 e1       	ldi	r24, 0x19	; 25
    28fa:	fe 01       	movw	r30, r28
    28fc:	31 96       	adiw	r30, 0x01	; 1
    28fe:	d9 01       	movw	r26, r18
    2900:	0d 90       	ld	r0, X+
    2902:	01 92       	st	Z+, r0
    2904:	8a 95       	dec	r24
    2906:	e1 f7       	brne	.-8      	; 0x2900
    2908:	c9 01       	movw	r24, r18
    290a:	0e 94 cf 1b 	call	0x379e
    290e:	7c 01       	movw	r14, r24
    2910:	89 2b       	or	r24, r25
    2912:	91 f1       	breq	.+100    	; 0x2978
    2914:	c6 56       	subi	r28, 0x66	; 102
    2916:	df 4f       	sbci	r29, 0xFF	; 255
    2918:	e8 81       	ld	r30, Y
    291a:	f9 81       	ldd	r31, Y+1	; 0x01
    291c:	ca 59       	subi	r28, 0x9A	; 154
    291e:	d0 40       	sbci	r29, 0x00	; 0
    2920:	ef 2b       	or	r30, r31
    2922:	a1 f0       	breq	.+40     	; 0x294c
    2924:	c6 56       	subi	r28, 0x66	; 102
    2926:	df 4f       	sbci	r29, 0xFF	; 255
    2928:	08 81       	ld	r16, Y
    292a:	19 81       	ldd	r17, Y+1	; 0x01
    292c:	ca 59       	subi	r28, 0x9A	; 154
    292e:	d0 40       	sbci	r29, 0x00	; 0
    2930:	d8 01       	movw	r26, r16
    2932:	0d 90       	ld	r0, X+
    2934:	bc 91       	ld	r27, X
    2936:	a0 2d       	mov	r26, r0
    2938:	c6 56       	subi	r28, 0x66	; 102
    293a:	df 4f       	sbci	r29, 0xFF	; 255
    293c:	a8 83       	st	Y, r26
    293e:	b9 83       	std	Y+1, r27	; 0x01
    2940:	ca 59       	subi	r28, 0x9A	; 154
    2942:	d0 40       	sbci	r29, 0x00	; 0
    2944:	c8 01       	movw	r24, r16
    2946:	0e 94 64 1b 	call	0x36c8
    294a:	e4 cf       	rjmp	.-56     	; 0x2914
    294c:	80 91 9c 02 	lds	r24, 0x029C
    2950:	90 91 9d 02 	lds	r25, 0x029D
    2954:	0e 94 64 1b 	call	0x36c8
    2958:	4a e7       	ldi	r20, 0x7A	; 122
    295a:	52 e0       	ldi	r21, 0x02	; 2
    295c:	89 e1       	ldi	r24, 0x19	; 25
    295e:	9e 01       	movw	r18, r28
    2960:	2f 5f       	subi	r18, 0xFF	; 255
    2962:	3f 4f       	sbci	r19, 0xFF	; 255
    2964:	da 01       	movw	r26, r20
    2966:	f9 01       	movw	r30, r18
    2968:	01 90       	ld	r0, Z+
    296a:	0d 92       	st	X+, r0
    296c:	8a 95       	dec	r24
    296e:	e1 f7       	brne	.-8      	; 0x2968
    2970:	b7 01       	movw	r22, r14
    2972:	ca 01       	movw	r24, r20
    2974:	0e 94 f0 1b 	call	0x37e0
    2978:	ce 01       	movw	r24, r28
    297a:	4a 96       	adiw	r24, 0x1a	; 26
    297c:	0e 94 f1 11 	call	0x23e2
    2980:	c6 56       	subi	r28, 0x66	; 102
    2982:	df 4f       	sbci	r29, 0xFF	; 255
    2984:	88 83       	st	Y, r24
    2986:	99 83       	std	Y+1, r25	; 0x01
    2988:	ca 59       	subi	r28, 0x9A	; 154
    298a:	d0 40       	sbci	r29, 0x00	; 0
    298c:	89 2b       	or	r24, r25
    298e:	09 f4       	brne	.+2      	; 0x2992
    2990:	a4 c0       	rjmp	.+328    	; 0x2ada
    2992:	c6 56       	subi	r28, 0x66	; 102
    2994:	df 4f       	sbci	r29, 0xFF	; 255
    2996:	a8 81       	ld	r26, Y
    2998:	b9 81       	ldd	r27, Y+1	; 0x01
    299a:	ca 59       	subi	r28, 0x9A	; 154
    299c:	d0 40       	sbci	r29, 0x00	; 0
    299e:	1d 92       	st	X+, r1
    29a0:	1c 92       	st	X, r1
    29a2:	11 97       	sbiw	r26, 0x01	; 1
    29a4:	fd 01       	movw	r30, r26
    29a6:	12 82       	std	Z+2, r1	; 0x02
    29a8:	13 82       	std	Z+3, r1	; 0x03
    29aa:	c6 56       	subi	r28, 0x66	; 102
    29ac:	df 4f       	sbci	r29, 0xFF	; 255
    29ae:	08 81       	ld	r16, Y
    29b0:	19 81       	ldd	r17, Y+1	; 0x01
    29b2:	ca 59       	subi	r28, 0x9A	; 154
    29b4:	d0 40       	sbci	r29, 0x00	; 0
    29b6:	01 15       	cp	r16, r1
    29b8:	11 05       	cpc	r17, r1
    29ba:	09 f4       	brne	.+2      	; 0x29be
    29bc:	6a c0       	rjmp	.+212    	; 0x2a92
    29be:	c8 01       	movw	r24, r16
    29c0:	0e 94 ad 12 	call	0x255a
    29c4:	88 23       	and	r24, r24
    29c6:	21 f4       	brne	.+8      	; 0x29d0
    29c8:	d8 01       	movw	r26, r16
    29ca:	0d 91       	ld	r16, X+
    29cc:	1c 91       	ld	r17, X
    29ce:	54 c0       	rjmp	.+168    	; 0x2a78
    29d0:	81 30       	cpi	r24, 0x01	; 1
    29d2:	99 f5       	brne	.+102    	; 0x2a3a
    29d4:	c6 56       	subi	r28, 0x66	; 102
    29d6:	df 4f       	sbci	r29, 0xFF	; 255
    29d8:	e8 81       	ld	r30, Y
    29da:	f9 81       	ldd	r31, Y+1	; 0x01
    29dc:	ca 59       	subi	r28, 0x9A	; 154
    29de:	d0 40       	sbci	r29, 0x00	; 0
    29e0:	0e 17       	cp	r16, r30
    29e2:	1f 07       	cpc	r17, r31
    29e4:	49 f4       	brne	.+18     	; 0x29f8
    29e6:	80 81       	ld	r24, Z
    29e8:	91 81       	ldd	r25, Z+1	; 0x01
    29ea:	c6 56       	subi	r28, 0x66	; 102
    29ec:	df 4f       	sbci	r29, 0xFF	; 255
    29ee:	88 83       	st	Y, r24
    29f0:	99 83       	std	Y+1, r25	; 0x01
    29f2:	ca 59       	subi	r28, 0x9A	; 154
    29f4:	d0 40       	sbci	r29, 0x00	; 0
    29f6:	07 c0       	rjmp	.+14     	; 0x2a06
    29f8:	f8 01       	movw	r30, r16
    29fa:	a2 81       	ldd	r26, Z+2	; 0x02
    29fc:	b3 81       	ldd	r27, Z+3	; 0x03
    29fe:	80 81       	ld	r24, Z
    2a00:	91 81       	ldd	r25, Z+1	; 0x01
    2a02:	8d 93       	st	X+, r24
    2a04:	9c 93       	st	X, r25
    2a06:	d8 01       	movw	r26, r16
    2a08:	2d 91       	ld	r18, X+
    2a0a:	3c 91       	ld	r19, X
    2a0c:	21 15       	cp	r18, r1
    2a0e:	31 05       	cpc	r19, r1
    2a10:	31 f0       	breq	.+12     	; 0x2a1e
    2a12:	f8 01       	movw	r30, r16
    2a14:	82 81       	ldd	r24, Z+2	; 0x02
    2a16:	93 81       	ldd	r25, Z+3	; 0x03
    2a18:	f9 01       	movw	r30, r18
    2a1a:	82 83       	std	Z+2, r24	; 0x02
    2a1c:	93 83       	std	Z+3, r25	; 0x03
    2a1e:	d8 01       	movw	r26, r16
    2a20:	0d 90       	ld	r0, X+
    2a22:	bc 91       	ld	r27, X
    2a24:	a0 2d       	mov	r26, r0
    2a26:	c4 56       	subi	r28, 0x64	; 100
    2a28:	df 4f       	sbci	r29, 0xFF	; 255
    2a2a:	a8 83       	st	Y, r26
    2a2c:	b9 83       	std	Y+1, r27	; 0x01
    2a2e:	cc 59       	subi	r28, 0x9C	; 156
    2a30:	d0 40       	sbci	r29, 0x00	; 0
    2a32:	c8 01       	movw	r24, r16
    2a34:	0e 94 64 1b 	call	0x36c8
    2a38:	25 c0       	rjmp	.+74     	; 0x2a84
    2a3a:	82 30       	cpi	r24, 0x02	; 2
    2a3c:	19 f5       	brne	.+70     	; 0x2a84
    2a3e:	80 e0       	ldi	r24, 0x00	; 0
    2a40:	90 e0       	ldi	r25, 0x00	; 0
    2a42:	0e 94 f1 11 	call	0x23e2
    2a46:	9c 01       	movw	r18, r24
    2a48:	00 97       	sbiw	r24, 0x00	; 0
    2a4a:	99 f0       	breq	.+38     	; 0x2a72
    2a4c:	fc 01       	movw	r30, r24
    2a4e:	02 83       	std	Z+2, r16	; 0x02
    2a50:	13 83       	std	Z+3, r17	; 0x03
    2a52:	d8 01       	movw	r26, r16
    2a54:	8d 91       	ld	r24, X+
    2a56:	9c 91       	ld	r25, X
    2a58:	11 97       	sbiw	r26, 0x01	; 1
    2a5a:	80 83       	st	Z, r24
    2a5c:	91 83       	std	Z+1, r25	; 0x01
    2a5e:	8d 91       	ld	r24, X+
    2a60:	9c 91       	ld	r25, X
    2a62:	00 97       	sbiw	r24, 0x00	; 0
    2a64:	19 f0       	breq	.+6      	; 0x2a6c
    2a66:	fc 01       	movw	r30, r24
    2a68:	22 83       	std	Z+2, r18	; 0x02
    2a6a:	33 83       	std	Z+3, r19	; 0x03
    2a6c:	d8 01       	movw	r26, r16
    2a6e:	2d 93       	st	X+, r18
    2a70:	3c 93       	st	X, r19
    2a72:	f8 01       	movw	r30, r16
    2a74:	00 81       	ld	r16, Z
    2a76:	11 81       	ldd	r17, Z+1	; 0x01
    2a78:	c4 56       	subi	r28, 0x64	; 100
    2a7a:	df 4f       	sbci	r29, 0xFF	; 255
    2a7c:	08 83       	st	Y, r16
    2a7e:	19 83       	std	Y+1, r17	; 0x01
    2a80:	cc 59       	subi	r28, 0x9C	; 156
    2a82:	d0 40       	sbci	r29, 0x00	; 0
    2a84:	c4 56       	subi	r28, 0x64	; 100
    2a86:	df 4f       	sbci	r29, 0xFF	; 255
    2a88:	08 81       	ld	r16, Y
    2a8a:	19 81       	ldd	r17, Y+1	; 0x01
    2a8c:	cc 59       	subi	r28, 0x9C	; 156
    2a8e:	d0 40       	sbci	r29, 0x00	; 0
    2a90:	92 cf       	rjmp	.-220    	; 0x29b6
    2a92:	80 e0       	ldi	r24, 0x00	; 0
    2a94:	0e 94 36 10 	call	0x206c
    2a98:	c6 56       	subi	r28, 0x66	; 102
    2a9a:	df 4f       	sbci	r29, 0xFF	; 255
    2a9c:	08 81       	ld	r16, Y
    2a9e:	19 81       	ldd	r17, Y+1	; 0x01
    2aa0:	ca 59       	subi	r28, 0x9A	; 154
    2aa2:	d0 40       	sbci	r29, 0x00	; 0
    2aa4:	01 15       	cp	r16, r1
    2aa6:	11 05       	cpc	r17, r1
    2aa8:	39 f0       	breq	.+14     	; 0x2ab8
    2aaa:	c8 01       	movw	r24, r16
    2aac:	0e 94 5c 13 	call	0x26b8
    2ab0:	d8 01       	movw	r26, r16
    2ab2:	0d 91       	ld	r16, X+
    2ab4:	1c 91       	ld	r17, X
    2ab6:	f6 cf       	rjmp	.-20     	; 0x2aa4
    2ab8:	0e 94 50 10 	call	0x20a0
    2abc:	82 e0       	ldi	r24, 0x02	; 2
    2abe:	90 e0       	ldi	r25, 0x00	; 0
    2ac0:	0e 94 bb 05 	call	0xb76
    2ac4:	c6 56       	subi	r28, 0x66	; 102
    2ac6:	df 4f       	sbci	r29, 0xFF	; 255
    2ac8:	e8 81       	ld	r30, Y
    2aca:	f9 81       	ldd	r31, Y+1	; 0x01
    2acc:	ca 59       	subi	r28, 0x9A	; 154
    2ace:	d0 40       	sbci	r29, 0x00	; 0
    2ad0:	30 97       	sbiw	r30, 0x00	; 0
    2ad2:	09 f0       	breq	.+2      	; 0x2ad6
    2ad4:	6a cf       	rjmp	.-300    	; 0x29aa
    2ad6:	cf 01       	movw	r24, r30
    2ad8:	51 cf       	rjmp	.-350    	; 0x297c
    2ada:	80 91 9c 02 	lds	r24, 0x029C
    2ade:	90 91 9d 02 	lds	r25, 0x029D
    2ae2:	0e 94 64 1b 	call	0x36c8
    2ae6:	89 e1       	ldi	r24, 0x19	; 25
    2ae8:	de 01       	movw	r26, r28
    2aea:	11 96       	adiw	r26, 0x01	; 1
    2aec:	ea e7       	ldi	r30, 0x7A	; 122
    2aee:	f2 e0       	ldi	r31, 0x02	; 2
    2af0:	0d 90       	ld	r0, X+
    2af2:	01 92       	st	Z+, r0
    2af4:	8a 95       	dec	r24
    2af6:	e1 f7       	brne	.-8      	; 0x2af0
    2af8:	c3 56       	subi	r28, 0x63	; 99
    2afa:	df 4f       	sbci	r29, 0xFF	; 255
    2afc:	0f b6       	in	r0, 0x3f	; 63
    2afe:	f8 94       	cli
    2b00:	de bf       	out	0x3e, r29	; 62
    2b02:	0f be       	out	0x3f, r0	; 63
    2b04:	cd bf       	out	0x3d, r28	; 61
    2b06:	df 91       	pop	r29
    2b08:	cf 91       	pop	r28
    2b0a:	1f 91       	pop	r17
    2b0c:	0f 91       	pop	r16
    2b0e:	ff 90       	pop	r15
    2b10:	ef 90       	pop	r14
    2b12:	08 95       	ret

00002b14 <joy_init>:
    2b14:	87 b3       	in	r24, 0x17	; 23
    2b16:	80 7f       	andi	r24, 0xF0	; 240
    2b18:	87 bb       	out	0x17, r24	; 23
    2b1a:	88 b3       	in	r24, 0x18	; 24
    2b1c:	8f 60       	ori	r24, 0x0F	; 15
    2b1e:	88 bb       	out	0x18, r24	; 24
    2b20:	88 98       	cbi	0x11, 0	; 17
    2b22:	90 9a       	sbi	0x12, 0	; 18
    2b24:	08 95       	ret

00002b26 <drawSmiley>:
    2b26:	cf 92       	push	r12
    2b28:	df 92       	push	r13
    2b2a:	ef 92       	push	r14
    2b2c:	ff 92       	push	r15
    2b2e:	0f 93       	push	r16
    2b30:	1f 93       	push	r17
    2b32:	cf 93       	push	r28
    2b34:	df 93       	push	r29
    2b36:	c8 2e       	mov	r12, r24
    2b38:	d6 2e       	mov	r13, r22
    2b3a:	7a 01       	movw	r14, r20
    2b3c:	80 e0       	ldi	r24, 0x00	; 0
    2b3e:	0e 94 da 05 	call	0xbb4
    2b42:	00 e0       	ldi	r16, 0x00	; 0
    2b44:	10 e0       	ldi	r17, 0x00	; 0
    2b46:	e7 01       	movw	r28, r14
    2b48:	c0 0f       	add	r28, r16
    2b4a:	d1 1d       	adc	r29, r1
    2b4c:	41 2f       	mov	r20, r17
    2b4e:	4d 0d       	add	r20, r13
    2b50:	40 31       	cpi	r20, 0x10	; 16
    2b52:	58 f4       	brcc	.+22     	; 0x2b6a
    2b54:	fe 01       	movw	r30, r28
    2b56:	84 91       	lpm	r24, Z
    2b58:	9c 2d       	mov	r25, r12
    2b5a:	90 1b       	sub	r25, r16
    2b5c:	29 2f       	mov	r18, r25
    2b5e:	21 5f       	subi	r18, 0xF1	; 241
    2b60:	34 2f       	mov	r19, r20
    2b62:	68 2f       	mov	r22, r24
    2b64:	c9 01       	movw	r24, r18
    2b66:	0e 94 f3 05 	call	0xbe6
    2b6a:	1f 5f       	subi	r17, 0xFF	; 255
    2b6c:	28 96       	adiw	r28, 0x08	; 8
    2b6e:	18 30       	cpi	r17, 0x08	; 8
    2b70:	68 f3       	brcs	.-38     	; 0x2b4c
    2b72:	0f 5f       	subi	r16, 0xFF	; 255
    2b74:	08 30       	cpi	r16, 0x08	; 8
    2b76:	30 f3       	brcs	.-52     	; 0x2b44
    2b78:	df 91       	pop	r29
    2b7a:	cf 91       	pop	r28
    2b7c:	1f 91       	pop	r17
    2b7e:	0f 91       	pop	r16
    2b80:	ff 90       	pop	r15
    2b82:	ef 90       	pop	r14
    2b84:	df 90       	pop	r13
    2b86:	cf 90       	pop	r12
    2b88:	08 95       	ret

00002b8a <dropSmiley>:
    2b8a:	0f 93       	push	r16
    2b8c:	1f 93       	push	r17
    2b8e:	cf 93       	push	r28
    2b90:	0f e0       	ldi	r16, 0x0F	; 15
    2b92:	16 e0       	ldi	r17, 0x06	; 6
    2b94:	99 27       	eor	r25, r25
    2b96:	81 30       	cpi	r24, 0x01	; 1
    2b98:	91 05       	cpc	r25, r1
    2b9a:	21 f0       	breq	.+8      	; 0x2ba4
    2b9c:	02 97       	sbiw	r24, 0x02	; 2
    2b9e:	11 f4       	brne	.+4      	; 0x2ba4
    2ba0:	0f ec       	ldi	r16, 0xCF	; 207
    2ba2:	15 e0       	ldi	r17, 0x05	; 5
    2ba4:	c8 ef       	ldi	r28, 0xF8	; 248
    2ba6:	a8 01       	movw	r20, r16
    2ba8:	6c 2f       	mov	r22, r28
    2baa:	8c e0       	ldi	r24, 0x0C	; 12
    2bac:	0e 94 93 15 	call	0x2b26
    2bb0:	80 e5       	ldi	r24, 0x50	; 80
    2bb2:	90 e0       	ldi	r25, 0x00	; 0
    2bb4:	0e 94 bb 05 	call	0xb76
    2bb8:	cf 5f       	subi	r28, 0xFF	; 255
    2bba:	c7 31       	cpi	r28, 0x17	; 23
    2bbc:	a4 f3       	brlt	.-24     	; 0x2ba6
    2bbe:	cf 91       	pop	r28
    2bc0:	1f 91       	pop	r17
    2bc2:	0f 91       	pop	r16
    2bc4:	08 95       	ret

00002bc6 <rhein_fire_logo>:
    2bc6:	ef 92       	push	r14
    2bc8:	ff 92       	push	r15
    2bca:	0f 93       	push	r16
    2bcc:	1f 93       	push	r17
    2bce:	cf 93       	push	r28
    2bd0:	df 93       	push	r29
    2bd2:	7c 01       	movw	r14, r24
    2bd4:	80 e0       	ldi	r24, 0x00	; 0
    2bd6:	0e 94 da 05 	call	0xbb4
    2bda:	00 e0       	ldi	r16, 0x00	; 0
    2bdc:	10 e0       	ldi	r17, 0x00	; 0
    2bde:	c0 2f       	mov	r28, r16
    2be0:	dd 27       	eor	r29, r29
    2be2:	c1 5b       	subi	r28, 0xB1	; 177
    2be4:	d9 4f       	sbci	r29, 0xF9	; 249
    2be6:	10 31       	cpi	r17, 0x10	; 16
    2be8:	50 f4       	brcc	.+20     	; 0x2bfe
    2bea:	fe 01       	movw	r30, r28
    2bec:	84 91       	lpm	r24, Z
    2bee:	9f e0       	ldi	r25, 0x0F	; 15
    2bf0:	29 2f       	mov	r18, r25
    2bf2:	20 1b       	sub	r18, r16
    2bf4:	31 2f       	mov	r19, r17
    2bf6:	68 2f       	mov	r22, r24
    2bf8:	c9 01       	movw	r24, r18
    2bfa:	0e 94 f3 05 	call	0xbe6
    2bfe:	1f 5f       	subi	r17, 0xFF	; 255
    2c00:	60 96       	adiw	r28, 0x10	; 16
    2c02:	10 31       	cpi	r17, 0x10	; 16
    2c04:	80 f3       	brcs	.-32     	; 0x2be6
    2c06:	0f 5f       	subi	r16, 0xFF	; 255
    2c08:	00 31       	cpi	r16, 0x10	; 16
    2c0a:	40 f3       	brcs	.-48     	; 0x2bdc
    2c0c:	c7 01       	movw	r24, r14
    2c0e:	0e 94 bb 05 	call	0xb76
    2c12:	df 91       	pop	r29
    2c14:	cf 91       	pop	r28
    2c16:	1f 91       	pop	r17
    2c18:	0f 91       	pop	r16
    2c1a:	ff 90       	pop	r15
    2c1c:	ef 90       	pop	r14
    2c1e:	08 95       	ret

00002c20 <drawNumber>:
    2c20:	df 92       	push	r13
    2c22:	ef 92       	push	r14
    2c24:	ff 92       	push	r15
    2c26:	0f 93       	push	r16
    2c28:	1f 93       	push	r17
    2c2a:	cf 93       	push	r28
    2c2c:	df 93       	push	r29
    2c2e:	f8 2e       	mov	r15, r24
    2c30:	d6 2e       	mov	r13, r22
    2c32:	e4 2e       	mov	r14, r20
    2c34:	86 e0       	ldi	r24, 0x06	; 6
    2c36:	8f 15       	cp	r24, r15
    2c38:	58 f1       	brcs	.+86     	; 0x2c90
    2c3a:	10 e0       	ldi	r17, 0x00	; 0
    2c3c:	00 e0       	ldi	r16, 0x00	; 0
    2c3e:	c0 e0       	ldi	r28, 0x00	; 0
    2c40:	d0 e0       	ldi	r29, 0x00	; 0
    2c42:	40 2f       	mov	r20, r16
    2c44:	4e 0d       	add	r20, r14
    2c46:	40 31       	cpi	r20, 0x10	; 16
    2c48:	e0 f4       	brcc	.+56     	; 0x2c82
    2c4a:	8f e0       	ldi	r24, 0x0F	; 15
    2c4c:	f8 9e       	mul	r15, r24
    2c4e:	f0 01       	movw	r30, r0
    2c50:	11 24       	eor	r1, r1
    2c52:	24 e0       	ldi	r18, 0x04	; 4
    2c54:	30 e0       	ldi	r19, 0x00	; 0
    2c56:	21 1b       	sub	r18, r17
    2c58:	31 09       	sbc	r19, r1
    2c5a:	c9 01       	movw	r24, r18
    2c5c:	88 0f       	add	r24, r24
    2c5e:	99 1f       	adc	r25, r25
    2c60:	82 0f       	add	r24, r18
    2c62:	93 1f       	adc	r25, r19
    2c64:	e8 0f       	add	r30, r24
    2c66:	f9 1f       	adc	r31, r25
    2c68:	ec 0f       	add	r30, r28
    2c6a:	fd 1f       	adc	r31, r29
    2c6c:	ea 59       	subi	r30, 0x9A	; 154
    2c6e:	fa 4f       	sbci	r31, 0xFA	; 250
    2c70:	34 91       	lpm	r19, Z
    2c72:	2d 2d       	mov	r18, r13
    2c74:	21 1b       	sub	r18, r17
    2c76:	82 2f       	mov	r24, r18
    2c78:	81 5f       	subi	r24, 0xF1	; 241
    2c7a:	94 2f       	mov	r25, r20
    2c7c:	63 2f       	mov	r22, r19
    2c7e:	0e 94 f3 05 	call	0xbe6
    2c82:	0f 5f       	subi	r16, 0xFF	; 255
    2c84:	21 96       	adiw	r28, 0x01	; 1
    2c86:	03 30       	cpi	r16, 0x03	; 3
    2c88:	e0 f2       	brcs	.-72     	; 0x2c42
    2c8a:	1f 5f       	subi	r17, 0xFF	; 255
    2c8c:	15 30       	cpi	r17, 0x05	; 5
    2c8e:	b0 f2       	brcs	.-84     	; 0x2c3c
    2c90:	df 91       	pop	r29
    2c92:	cf 91       	pop	r28
    2c94:	1f 91       	pop	r17
    2c96:	0f 91       	pop	r16
    2c98:	ff 90       	pop	r15
    2c9a:	ef 90       	pop	r14
    2c9c:	df 90       	pop	r13
    2c9e:	08 95       	ret

00002ca0 <drawLine>:
    2ca0:	1f 93       	push	r17
    2ca2:	cf 93       	push	r28
    2ca4:	c8 2f       	mov	r28, r24
    2ca6:	80 31       	cpi	r24, 0x10	; 16
    2ca8:	68 f4       	brcc	.+26     	; 0x2cc4
    2caa:	10 e0       	ldi	r17, 0x00	; 0
    2cac:	c0 31       	cpi	r28, 0x10	; 16
    2cae:	38 f4       	brcc	.+14     	; 0x2cbe
    2cb0:	2f e0       	ldi	r18, 0x0F	; 15
    2cb2:	82 2f       	mov	r24, r18
    2cb4:	81 1b       	sub	r24, r17
    2cb6:	9c 2f       	mov	r25, r28
    2cb8:	63 e0       	ldi	r22, 0x03	; 3
    2cba:	0e 94 f3 05 	call	0xbe6
    2cbe:	1f 5f       	subi	r17, 0xFF	; 255
    2cc0:	10 31       	cpi	r17, 0x10	; 16
    2cc2:	a0 f3       	brcs	.-24     	; 0x2cac
    2cc4:	cf 91       	pop	r28
    2cc6:	1f 91       	pop	r17
    2cc8:	08 95       	ret

00002cca <drawRow>:
    2cca:	1f 93       	push	r17
    2ccc:	cf 93       	push	r28
    2cce:	18 2f       	mov	r17, r24
    2cd0:	80 31       	cpi	r24, 0x10	; 16
    2cd2:	68 f4       	brcc	.+26     	; 0x2cee
    2cd4:	c0 e0       	ldi	r28, 0x00	; 0
    2cd6:	c0 31       	cpi	r28, 0x10	; 16
    2cd8:	38 f4       	brcc	.+14     	; 0x2ce8
    2cda:	2f e0       	ldi	r18, 0x0F	; 15
    2cdc:	82 2f       	mov	r24, r18
    2cde:	81 1b       	sub	r24, r17
    2ce0:	9c 2f       	mov	r25, r28
    2ce2:	63 e0       	ldi	r22, 0x03	; 3
    2ce4:	0e 94 f3 05 	call	0xbe6
    2ce8:	cf 5f       	subi	r28, 0xFF	; 255
    2cea:	c0 31       	cpi	r28, 0x10	; 16
    2cec:	a0 f3       	brcs	.-24     	; 0x2cd6
    2cee:	cf 91       	pop	r28
    2cf0:	1f 91       	pop	r17
    2cf2:	08 95       	ret

00002cf4 <test>:
    2cf4:	cf 93       	push	r28
    2cf6:	c0 e0       	ldi	r28, 0x00	; 0
    2cf8:	80 e0       	ldi	r24, 0x00	; 0
    2cfa:	0e 94 da 05 	call	0xbb4
    2cfe:	8c 2f       	mov	r24, r28
    2d00:	0e 94 50 16 	call	0x2ca0
    2d04:	80 e2       	ldi	r24, 0x20	; 32
    2d06:	93 e0       	ldi	r25, 0x03	; 3
    2d08:	0e 94 bb 05 	call	0xb76
    2d0c:	cf 5f       	subi	r28, 0xFF	; 255
    2d0e:	c0 31       	cpi	r28, 0x10	; 16
    2d10:	98 f3       	brcs	.-26     	; 0x2cf8
    2d12:	c0 e0       	ldi	r28, 0x00	; 0
    2d14:	80 e0       	ldi	r24, 0x00	; 0
    2d16:	0e 94 da 05 	call	0xbb4
    2d1a:	8c 2f       	mov	r24, r28
    2d1c:	0e 94 65 16 	call	0x2cca
    2d20:	80 e2       	ldi	r24, 0x20	; 32
    2d22:	93 e0       	ldi	r25, 0x03	; 3
    2d24:	0e 94 bb 05 	call	0xb76
    2d28:	cf 5f       	subi	r28, 0xFF	; 255
    2d2a:	c0 31       	cpi	r28, 0x10	; 16
    2d2c:	98 f3       	brcs	.-26     	; 0x2d14
    2d2e:	cf 91       	pop	r28
    2d30:	08 95       	ret

00002d32 <drawField>:
    2d32:	ef 92       	push	r14
    2d34:	ff 92       	push	r15
    2d36:	0f 93       	push	r16
    2d38:	1f 93       	push	r17
    2d3a:	cf 93       	push	r28
    2d3c:	df 93       	push	r29
    2d3e:	18 2f       	mov	r17, r24
    2d40:	00 e0       	ldi	r16, 0x00	; 0
    2d42:	c0 e0       	ldi	r28, 0x00	; 0
    2d44:	d0 e0       	ldi	r29, 0x00	; 0
    2d46:	e1 2e       	mov	r14, r17
    2d48:	ff 24       	eor	r15, r15
    2d4a:	97 01       	movw	r18, r14
    2d4c:	2c 0f       	add	r18, r28
    2d4e:	3d 1f       	adc	r19, r29
    2d50:	c9 01       	movw	r24, r18
    2d52:	44 96       	adiw	r24, 0x14	; 20
    2d54:	6a e0       	ldi	r22, 0x0A	; 10
    2d56:	70 e0       	ldi	r23, 0x00	; 0
    2d58:	0e 94 64 1c 	call	0x38c8
    2d5c:	89 2b       	or	r24, r25
    2d5e:	51 f4       	brne	.+20     	; 0x2d74
    2d60:	c9 01       	movw	r24, r18
    2d62:	6a e0       	ldi	r22, 0x0A	; 10
    2d64:	70 e0       	ldi	r23, 0x00	; 0
    2d66:	0e 94 64 1c 	call	0x38c8
    2d6a:	67 2b       	or	r22, r23
    2d6c:	19 f0       	breq	.+6      	; 0x2d74
    2d6e:	80 2f       	mov	r24, r16
    2d70:	0e 94 50 16 	call	0x2ca0
    2d74:	0f 5f       	subi	r16, 0xFF	; 255
    2d76:	21 96       	adiw	r28, 0x01	; 1
    2d78:	00 31       	cpi	r16, 0x10	; 16
    2d7a:	28 f3       	brcs	.-54     	; 0x2d46
    2d7c:	00 e0       	ldi	r16, 0x00	; 0
    2d7e:	e7 01       	movw	r28, r14
    2d80:	60 96       	adiw	r28, 0x10	; 16
    2d82:	ce 01       	movw	r24, r28
    2d84:	64 e1       	ldi	r22, 0x14	; 20
    2d86:	70 e0       	ldi	r23, 0x00	; 0
    2d88:	0e 94 64 1c 	call	0x38c8
    2d8c:	89 2b       	or	r24, r25
    2d8e:	f1 f4       	brne	.+60     	; 0x2dcc
    2d90:	ce 01       	movw	r24, r28
    2d92:	64 e1       	ldi	r22, 0x14	; 20
    2d94:	70 e0       	ldi	r23, 0x00	; 0
    2d96:	0e 94 64 1c 	call	0x38c8
    2d9a:	63 30       	cpi	r22, 0x03	; 3
    2d9c:	71 05       	cpc	r23, r1
    2d9e:	3c f0       	brlt	.+14     	; 0x2dae
    2da0:	80 2f       	mov	r24, r16
    2da2:	82 50       	subi	r24, 0x02	; 2
    2da4:	48 2f       	mov	r20, r24
    2da6:	6f e0       	ldi	r22, 0x0F	; 15
    2da8:	80 e0       	ldi	r24, 0x00	; 0
    2daa:	0e 94 10 16 	call	0x2c20
    2dae:	ce 01       	movw	r24, r28
    2db0:	64 e1       	ldi	r22, 0x14	; 20
    2db2:	70 e0       	ldi	r23, 0x00	; 0
    2db4:	0e 94 64 1c 	call	0x38c8
    2db8:	62 30       	cpi	r22, 0x02	; 2
    2dba:	71 05       	cpc	r23, r1
    2dbc:	39 f4       	brne	.+14     	; 0x2dcc
    2dbe:	80 2f       	mov	r24, r16
    2dc0:	82 50       	subi	r24, 0x02	; 2
    2dc2:	48 2f       	mov	r20, r24
    2dc4:	6f e0       	ldi	r22, 0x0F	; 15
    2dc6:	86 e0       	ldi	r24, 0x06	; 6
    2dc8:	0e 94 10 16 	call	0x2c20
    2dcc:	0f 5f       	subi	r16, 0xFF	; 255
    2dce:	21 96       	adiw	r28, 0x01	; 1
    2dd0:	03 31       	cpi	r16, 0x13	; 19
    2dd2:	b8 f2       	brcs	.-82     	; 0x2d82
    2dd4:	00 e0       	ldi	r16, 0x00	; 0
    2dd6:	e7 01       	movw	r28, r14
    2dd8:	22 96       	adiw	r28, 0x02	; 2
    2dda:	ce 01       	movw	r24, r28
    2ddc:	64 e1       	ldi	r22, 0x14	; 20
    2dde:	70 e0       	ldi	r23, 0x00	; 0
    2de0:	0e 94 64 1c 	call	0x38c8
    2de4:	89 2b       	or	r24, r25
    2de6:	79 f4       	brne	.+30     	; 0x2e06
    2de8:	ce 01       	movw	r24, r28
    2dea:	64 e1       	ldi	r22, 0x14	; 20
    2dec:	70 e0       	ldi	r23, 0x00	; 0
    2dee:	0e 94 64 1c 	call	0x38c8
    2df2:	96 2f       	mov	r25, r22
    2df4:	91 50       	subi	r25, 0x01	; 1
    2df6:	39 f0       	breq	.+14     	; 0x2e06
    2df8:	80 2f       	mov	r24, r16
    2dfa:	82 50       	subi	r24, 0x02	; 2
    2dfc:	48 2f       	mov	r20, r24
    2dfe:	6f e0       	ldi	r22, 0x0F	; 15
    2e00:	89 2f       	mov	r24, r25
    2e02:	0e 94 10 16 	call	0x2c20
    2e06:	0f 5f       	subi	r16, 0xFF	; 255
    2e08:	21 96       	adiw	r28, 0x01	; 1
    2e0a:	03 31       	cpi	r16, 0x13	; 19
    2e0c:	30 f3       	brcs	.-52     	; 0x2dda
    2e0e:	14 31       	cpi	r17, 0x14	; 20
    2e10:	00 f5       	brcc	.+64     	; 0x2e52
    2e12:	00 e0       	ldi	r16, 0x00	; 0
    2e14:	e7 01       	movw	r28, r14
    2e16:	ce 01       	movw	r24, r28
    2e18:	0b 97       	sbiw	r24, 0x0b	; 11
    2e1a:	09 97       	sbiw	r24, 0x09	; 9
    2e1c:	b0 f4       	brcc	.+44     	; 0x2e4a
    2e1e:	ce 01       	movw	r24, r28
    2e20:	d7 fd       	sbrc	r29, 7
    2e22:	01 96       	adiw	r24, 0x01	; 1
    2e24:	8e 7f       	andi	r24, 0xFE	; 254
    2e26:	9e 01       	movw	r18, r28
    2e28:	28 1b       	sub	r18, r24
    2e2a:	39 0b       	sbc	r19, r25
    2e2c:	12 2f       	mov	r17, r18
    2e2e:	11 0f       	add	r17, r17
    2e30:	10 31       	cpi	r17, 0x10	; 16
    2e32:	58 f4       	brcc	.+22     	; 0x2e4a
    2e34:	00 31       	cpi	r16, 0x10	; 16
    2e36:	38 f4       	brcc	.+14     	; 0x2e46
    2e38:	2f e0       	ldi	r18, 0x0F	; 15
    2e3a:	82 2f       	mov	r24, r18
    2e3c:	81 1b       	sub	r24, r17
    2e3e:	90 2f       	mov	r25, r16
    2e40:	61 e0       	ldi	r22, 0x01	; 1
    2e42:	0e 94 f3 05 	call	0xbe6
    2e46:	1c 5f       	subi	r17, 0xFC	; 252
    2e48:	f3 cf       	rjmp	.-26     	; 0x2e30
    2e4a:	0f 5f       	subi	r16, 0xFF	; 255
    2e4c:	21 96       	adiw	r28, 0x01	; 1
    2e4e:	00 31       	cpi	r16, 0x10	; 16
    2e50:	10 f3       	brcs	.-60     	; 0x2e16
    2e52:	df 91       	pop	r29
    2e54:	cf 91       	pop	r28
    2e56:	1f 91       	pop	r17
    2e58:	0f 91       	pop	r16
    2e5a:	ff 90       	pop	r15
    2e5c:	ef 90       	pop	r14
    2e5e:	08 95       	ret

00002e60 <running>:
    2e60:	cf 92       	push	r12
    2e62:	df 92       	push	r13
    2e64:	ef 92       	push	r14
    2e66:	ff 92       	push	r15
    2e68:	0f 93       	push	r16
    2e6a:	1f 93       	push	r17
    2e6c:	cf 93       	push	r28
    2e6e:	df 93       	push	r29
    2e70:	c7 e0       	ldi	r28, 0x07	; 7
    2e72:	d3 e1       	ldi	r29, 0x13	; 19
    2e74:	dd 24       	eor	r13, r13
    2e76:	80 e0       	ldi	r24, 0x00	; 0
    2e78:	0e 94 da 05 	call	0xbb4
    2e7c:	8d e6       	ldi	r24, 0x6D	; 109
    2e7e:	0e 94 99 16 	call	0x2d32
    2e82:	d3 94       	inc	r13
    2e84:	d1 50       	subi	r29, 0x01	; 1
    2e86:	ff 24       	eor	r15, r15
    2e88:	ee 24       	eor	r14, r14
    2e8a:	00 e0       	ldi	r16, 0x00	; 0
    2e8c:	10 e0       	ldi	r17, 0x00	; 0
    2e8e:	9d 2d       	mov	r25, r13
    2e90:	93 70       	andi	r25, 0x03	; 3
    2e92:	8f e0       	ldi	r24, 0x0F	; 15
    2e94:	98 9f       	mul	r25, r24
    2e96:	f0 01       	movw	r30, r0
    2e98:	11 24       	eor	r1, r1
    2e9a:	83 e0       	ldi	r24, 0x03	; 3
    2e9c:	f8 9e       	mul	r15, r24
    2e9e:	c0 01       	movw	r24, r0
    2ea0:	11 24       	eor	r1, r1
    2ea2:	e8 0f       	add	r30, r24
    2ea4:	f9 1f       	adc	r31, r25
    2ea6:	e0 0f       	add	r30, r16
    2ea8:	f1 1f       	adc	r31, r17
    2eaa:	e6 5d       	subi	r30, 0xD6	; 214
    2eac:	fa 4f       	sbci	r31, 0xFA	; 250
    2eae:	64 91       	lpm	r22, Z
    2eb0:	66 23       	and	r22, r22
    2eb2:	59 f0       	breq	.+22     	; 0x2eca
    2eb4:	3e 2d       	mov	r19, r14
    2eb6:	3d 0f       	add	r19, r29
    2eb8:	30 31       	cpi	r19, 0x10	; 16
    2eba:	38 f4       	brcc	.+14     	; 0x2eca
    2ebc:	2c 2f       	mov	r18, r28
    2ebe:	2f 19       	sub	r18, r15
    2ec0:	82 2f       	mov	r24, r18
    2ec2:	81 5f       	subi	r24, 0xF1	; 241
    2ec4:	93 2f       	mov	r25, r19
    2ec6:	0e 94 f3 05 	call	0xbe6
    2eca:	e3 94       	inc	r14
    2ecc:	0f 5f       	subi	r16, 0xFF	; 255
    2ece:	1f 4f       	sbci	r17, 0xFF	; 255
    2ed0:	82 e0       	ldi	r24, 0x02	; 2
    2ed2:	8e 15       	cp	r24, r14
    2ed4:	e0 f6       	brcc	.-72     	; 0x2e8e
    2ed6:	f3 94       	inc	r15
    2ed8:	84 e0       	ldi	r24, 0x04	; 4
    2eda:	8f 15       	cp	r24, r15
    2edc:	a8 f6       	brcc	.-86     	; 0x2e88
    2ede:	84 e6       	ldi	r24, 0x64	; 100
    2ee0:	90 e0       	ldi	r25, 0x00	; 0
    2ee2:	0e 94 bb 05 	call	0xb76
    2ee6:	d8 30       	cpi	r29, 0x08	; 8
    2ee8:	30 f6       	brcc	.-116    	; 0x2e76
    2eea:	dd 24       	eor	r13, r13
    2eec:	6d e6       	ldi	r22, 0x6D	; 109
    2eee:	c6 2e       	mov	r12, r22
    2ef0:	80 e0       	ldi	r24, 0x00	; 0
    2ef2:	0e 94 da 05 	call	0xbb4
    2ef6:	8c 2d       	mov	r24, r12
    2ef8:	0e 94 99 16 	call	0x2d32
    2efc:	ff 24       	eor	r15, r15
    2efe:	ee 24       	eor	r14, r14
    2f00:	00 e0       	ldi	r16, 0x00	; 0
    2f02:	10 e0       	ldi	r17, 0x00	; 0
    2f04:	9d 2d       	mov	r25, r13
    2f06:	93 70       	andi	r25, 0x03	; 3
    2f08:	8f e0       	ldi	r24, 0x0F	; 15
    2f0a:	98 9f       	mul	r25, r24
    2f0c:	f0 01       	movw	r30, r0
    2f0e:	11 24       	eor	r1, r1
    2f10:	83 e0       	ldi	r24, 0x03	; 3
    2f12:	f8 9e       	mul	r15, r24
    2f14:	c0 01       	movw	r24, r0
    2f16:	11 24       	eor	r1, r1
    2f18:	e8 0f       	add	r30, r24
    2f1a:	f9 1f       	adc	r31, r25
    2f1c:	e0 0f       	add	r30, r16
    2f1e:	f1 1f       	adc	r31, r17
    2f20:	e6 5d       	subi	r30, 0xD6	; 214
    2f22:	fa 4f       	sbci	r31, 0xFA	; 250
    2f24:	64 91       	lpm	r22, Z
    2f26:	66 23       	and	r22, r22
    2f28:	59 f0       	breq	.+22     	; 0x2f40
    2f2a:	3e 2d       	mov	r19, r14
    2f2c:	3d 0f       	add	r19, r29
    2f2e:	30 31       	cpi	r19, 0x10	; 16
    2f30:	38 f4       	brcc	.+14     	; 0x2f40
    2f32:	2c 2f       	mov	r18, r28
    2f34:	2f 19       	sub	r18, r15
    2f36:	82 2f       	mov	r24, r18
    2f38:	81 5f       	subi	r24, 0xF1	; 241
    2f3a:	93 2f       	mov	r25, r19
    2f3c:	0e 94 f3 05 	call	0xbe6
    2f40:	e3 94       	inc	r14
    2f42:	0f 5f       	subi	r16, 0xFF	; 255
    2f44:	1f 4f       	sbci	r17, 0xFF	; 255
    2f46:	82 e0       	ldi	r24, 0x02	; 2
    2f48:	8e 15       	cp	r24, r14
    2f4a:	e0 f6       	brcc	.-72     	; 0x2f04
    2f4c:	f3 94       	inc	r15
    2f4e:	84 e0       	ldi	r24, 0x04	; 4
    2f50:	8f 15       	cp	r24, r15
    2f52:	a8 f6       	brcc	.-86     	; 0x2efe
    2f54:	87 e0       	ldi	r24, 0x07	; 7
    2f56:	8c 15       	cp	r24, r12
    2f58:	50 f4       	brcc	.+20     	; 0x2f6e
    2f5a:	ca 94       	dec	r12
    2f5c:	d3 94       	inc	r13
    2f5e:	84 e6       	ldi	r24, 0x64	; 100
    2f60:	90 e0       	ldi	r25, 0x00	; 0
    2f62:	0e 94 bb 05 	call	0xb76
    2f66:	8f ef       	ldi	r24, 0xFF	; 255
    2f68:	d8 16       	cp	r13, r24
    2f6a:	09 f0       	breq	.+2      	; 0x2f6e
    2f6c:	c1 cf       	rjmp	.-126    	; 0x2ef0
    2f6e:	88 ee       	ldi	r24, 0xE8	; 232
    2f70:	93 e0       	ldi	r25, 0x03	; 3
    2f72:	0e 94 bb 05 	call	0xb76
    2f76:	df 91       	pop	r29
    2f78:	cf 91       	pop	r28
    2f7a:	1f 91       	pop	r17
    2f7c:	0f 91       	pop	r16
    2f7e:	ff 90       	pop	r15
    2f80:	ef 90       	pop	r14
    2f82:	df 90       	pop	r13
    2f84:	cf 90       	pop	r12
    2f86:	08 95       	ret

00002f88 <showScores>:
    2f88:	df 92       	push	r13
    2f8a:	ef 92       	push	r14
    2f8c:	ff 92       	push	r15
    2f8e:	0f 93       	push	r16
    2f90:	1f 93       	push	r17
    2f92:	08 2f       	mov	r16, r24
    2f94:	d6 2e       	mov	r13, r22
    2f96:	8f ee       	ldi	r24, 0xEF	; 239
    2f98:	91 e0       	ldi	r25, 0x01	; 1
    2f9a:	0e 94 43 14 	call	0x2886
    2f9e:	77 ef       	ldi	r23, 0xF7	; 247
    2fa0:	e7 2e       	mov	r14, r23
    2fa2:	71 e0       	ldi	r23, 0x01	; 1
    2fa4:	f7 2e       	mov	r15, r23
    2fa6:	1a e0       	ldi	r17, 0x0A	; 10
    2fa8:	80 2f       	mov	r24, r16
    2faa:	61 2f       	mov	r22, r17
    2fac:	0e 94 44 1c 	call	0x3888
    2fb0:	80 5d       	subi	r24, 0xD0	; 208
    2fb2:	80 93 fc 01 	sts	0x01FC, r24
    2fb6:	80 2f       	mov	r24, r16
    2fb8:	0e 94 44 1c 	call	0x3888
    2fbc:	89 2f       	mov	r24, r25
    2fbe:	80 5d       	subi	r24, 0xD0	; 208
    2fc0:	80 93 fd 01 	sts	0x01FD, r24
    2fc4:	c7 01       	movw	r24, r14
    2fc6:	0e 94 43 14 	call	0x2886
    2fca:	8f ef       	ldi	r24, 0xFF	; 255
    2fcc:	91 e0       	ldi	r25, 0x01	; 1
    2fce:	0e 94 43 14 	call	0x2886
    2fd2:	8d 2d       	mov	r24, r13
    2fd4:	61 2f       	mov	r22, r17
    2fd6:	0e 94 44 1c 	call	0x3888
    2fda:	80 5d       	subi	r24, 0xD0	; 208
    2fdc:	80 93 fc 01 	sts	0x01FC, r24
    2fe0:	8d 2d       	mov	r24, r13
    2fe2:	0e 94 44 1c 	call	0x3888
    2fe6:	89 2f       	mov	r24, r25
    2fe8:	80 5d       	subi	r24, 0xD0	; 208
    2fea:	80 93 fd 01 	sts	0x01FD, r24
    2fee:	c7 01       	movw	r24, r14
    2ff0:	0e 94 43 14 	call	0x2886
    2ff4:	1f 91       	pop	r17
    2ff6:	0f 91       	pop	r16
    2ff8:	ff 90       	pop	r15
    2ffa:	ef 90       	pop	r14
    2ffc:	df 90       	pop	r13
    2ffe:	08 95       	ret

00003000 <rhein_fire>:
    3000:	2f 92       	push	r2
    3002:	3f 92       	push	r3
    3004:	4f 92       	push	r4
    3006:	5f 92       	push	r5
    3008:	6f 92       	push	r6
    300a:	7f 92       	push	r7
    300c:	8f 92       	push	r8
    300e:	9f 92       	push	r9
    3010:	af 92       	push	r10
    3012:	bf 92       	push	r11
    3014:	cf 92       	push	r12
    3016:	df 92       	push	r13
    3018:	ef 92       	push	r14
    301a:	ff 92       	push	r15
    301c:	0f 93       	push	r16
    301e:	1f 93       	push	r17
    3020:	cf 93       	push	r28
    3022:	df 93       	push	r29
    3024:	cd b7       	in	r28, 0x3d	; 61
    3026:	de b7       	in	r29, 0x3e	; 62
    3028:	c0 53       	subi	r28, 0x30	; 48
    302a:	d1 40       	sbci	r29, 0x01	; 1
    302c:	0f b6       	in	r0, 0x3f	; 63
    302e:	f8 94       	cli
    3030:	de bf       	out	0x3e, r29	; 62
    3032:	0f be       	out	0x3f, r0	; 63
    3034:	cd bf       	out	0x3d, r28	; 61
    3036:	1c 01       	movw	r2, r24
    3038:	80 e0       	ldi	r24, 0x00	; 0
    303a:	0e 94 da 05 	call	0xbb4
    303e:	66 24       	eor	r6, r6
    3040:	77 24       	eor	r7, r7
    3042:	62 14       	cp	r6, r2
    3044:	73 04       	cpc	r7, r3
    3046:	08 f0       	brcs	.+2      	; 0x304a
    3048:	d1 c0       	rjmp	.+418    	; 0x31ec
    304a:	71 e0       	ldi	r23, 0x01	; 1
    304c:	97 2e       	mov	r9, r23
    304e:	2e 01       	movw	r4, r28
    3050:	08 94       	sec
    3052:	41 1c       	adc	r4, r1
    3054:	51 1c       	adc	r5, r1
    3056:	45 e0       	ldi	r20, 0x05	; 5
    3058:	6e e1       	ldi	r22, 0x1E	; 30
    305a:	86 2e       	mov	r8, r22
    305c:	a9 2c       	mov	r10, r9
    305e:	bb 24       	eor	r11, r11
    3060:	c5 01       	movw	r24, r10
    3062:	8c 0f       	add	r24, r28
    3064:	9d 1f       	adc	r25, r29
    3066:	8c 01       	movw	r16, r24
    3068:	0f 5f       	subi	r16, 0xFF	; 255
    306a:	1f 4f       	sbci	r17, 0xFF	; 255
    306c:	54 e1       	ldi	r21, 0x14	; 20
    306e:	c5 2e       	mov	r12, r21
    3070:	d1 2c       	mov	r13, r1
    3072:	c8 0e       	add	r12, r24
    3074:	d9 1e       	adc	r13, r25
    3076:	3d e0       	ldi	r19, 0x0D	; 13
    3078:	e3 2e       	mov	r14, r19
    307a:	d8 01       	movw	r26, r16
    307c:	8c 91       	ld	r24, X
    307e:	84 9f       	mul	r24, r20
    3080:	90 01       	movw	r18, r0
    3082:	11 24       	eor	r1, r1
    3084:	f6 01       	movw	r30, r12
    3086:	80 81       	ld	r24, Z
    3088:	88 9d       	mul	r24, r8
    308a:	c0 01       	movw	r24, r0
    308c:	11 24       	eor	r1, r1
    308e:	28 0f       	add	r18, r24
    3090:	39 1f       	adc	r19, r25
    3092:	83 89       	ldd	r24, Z+19	; 0x13
    3094:	84 9f       	mul	r24, r20
    3096:	c0 01       	movw	r24, r0
    3098:	11 24       	eor	r1, r1
    309a:	82 0f       	add	r24, r18
    309c:	93 1f       	adc	r25, r19
    309e:	69 e2       	ldi	r22, 0x29	; 41
    30a0:	70 e0       	ldi	r23, 0x00	; 0
    30a2:	0e 94 64 1c 	call	0x38c8
    30a6:	f8 01       	movw	r30, r16
    30a8:	62 8b       	std	Z+18, r22	; 0x12
    30aa:	ea 94       	dec	r14
    30ac:	83 e1       	ldi	r24, 0x13	; 19
    30ae:	90 e0       	ldi	r25, 0x00	; 0
    30b0:	c8 0e       	add	r12, r24
    30b2:	d9 1e       	adc	r13, r25
    30b4:	08 0f       	add	r16, r24
    30b6:	19 1f       	adc	r17, r25
    30b8:	e7 fe       	sbrs	r14, 7
    30ba:	df cf       	rjmp	.-66     	; 0x307a
    30bc:	8e 01       	movw	r16, r28
    30be:	0a 0d       	add	r16, r10
    30c0:	1b 1d       	adc	r17, r11
    30c2:	2e e1       	ldi	r18, 0x1E	; 30
    30c4:	e2 2e       	mov	r14, r18
    30c6:	21 e0       	ldi	r18, 0x01	; 1
    30c8:	f2 2e       	mov	r15, r18
    30ca:	ec 0e       	add	r14, r28
    30cc:	fd 1e       	adc	r15, r29
    30ce:	ea 0c       	add	r14, r10
    30d0:	fb 1c       	adc	r15, r11
    30d2:	d7 01       	movw	r26, r14
    30d4:	8c 91       	ld	r24, X
    30d6:	84 9f       	mul	r24, r20
    30d8:	90 01       	movw	r18, r0
    30da:	11 24       	eor	r1, r1
    30dc:	65 01       	movw	r12, r10
    30de:	c4 0c       	add	r12, r4
    30e0:	d5 1c       	adc	r13, r5
    30e2:	f6 01       	movw	r30, r12
    30e4:	80 81       	ld	r24, Z
    30e6:	88 9d       	mul	r24, r8
    30e8:	c0 01       	movw	r24, r0
    30ea:	11 24       	eor	r1, r1
    30ec:	28 0f       	add	r18, r24
    30ee:	39 1f       	adc	r19, r25
    30f0:	f8 01       	movw	r30, r16
    30f2:	84 89       	ldd	r24, Z+20	; 0x14
    30f4:	84 9f       	mul	r24, r20
    30f6:	c0 01       	movw	r24, r0
    30f8:	11 24       	eor	r1, r1
    30fa:	82 0f       	add	r24, r18
    30fc:	93 1f       	adc	r25, r19
    30fe:	69 e2       	ldi	r22, 0x29	; 41
    3100:	70 e0       	ldi	r23, 0x00	; 0
    3102:	0e 94 64 1c 	call	0x38c8
    3106:	d8 01       	movw	r26, r16
    3108:	6c 93       	st	X, r22
    310a:	8e 01       	movw	r16, r28
    310c:	03 5e       	subi	r16, 0xE3	; 227
    310e:	1e 4f       	sbci	r17, 0xFE	; 254
    3110:	0a 0d       	add	r16, r10
    3112:	1b 1d       	adc	r17, r11
    3114:	f6 01       	movw	r30, r12
    3116:	80 81       	ld	r24, Z
    3118:	84 9f       	mul	r24, r20
    311a:	90 01       	movw	r18, r0
    311c:	11 24       	eor	r1, r1
    311e:	d7 01       	movw	r26, r14
    3120:	8c 91       	ld	r24, X
    3122:	88 9d       	mul	r24, r8
    3124:	c0 01       	movw	r24, r0
    3126:	11 24       	eor	r1, r1
    3128:	28 0f       	add	r18, r24
    312a:	39 1f       	adc	r19, r25
    312c:	fe 01       	movw	r30, r28
    312e:	e5 5f       	subi	r30, 0xF5	; 245
    3130:	fe 4f       	sbci	r31, 0xFE	; 254
    3132:	ea 0d       	add	r30, r10
    3134:	fb 1d       	adc	r31, r11
    3136:	80 81       	ld	r24, Z
    3138:	84 9f       	mul	r24, r20
    313a:	c0 01       	movw	r24, r0
    313c:	11 24       	eor	r1, r1
    313e:	82 0f       	add	r24, r18
    3140:	93 1f       	adc	r25, r19
    3142:	69 e2       	ldi	r22, 0x29	; 41
    3144:	70 e0       	ldi	r23, 0x00	; 0
    3146:	0e 94 64 1c 	call	0x38c8
    314a:	f8 01       	movw	r30, r16
    314c:	60 83       	st	Z, r22
    314e:	93 94       	inc	r9
    3150:	f2 e1       	ldi	r31, 0x12	; 18
    3152:	f9 15       	cp	r31, r9
    3154:	08 f0       	brcs	.+2      	; 0x3158
    3156:	82 cf       	rjmp	.-252    	; 0x305c
    3158:	82 01       	movw	r16, r4
    315a:	0e 5e       	subi	r16, 0xEE	; 238
    315c:	1f 4f       	sbci	r17, 0xFF	; 255
    315e:	9f e0       	ldi	r25, 0x0F	; 15
    3160:	e9 2e       	mov	r14, r25
    3162:	0e 94 e4 07 	call	0xfc8
    3166:	d8 01       	movw	r26, r16
    3168:	8c 93       	st	X, r24
    316a:	0d 5e       	subi	r16, 0xED	; 237
    316c:	1f 4f       	sbci	r17, 0xFF	; 255
    316e:	ea 94       	dec	r14
    3170:	e7 fe       	sbrs	r14, 7
    3172:	f7 cf       	rjmp	.-18     	; 0x3162
    3174:	99 24       	eor	r9, r9
    3176:	ee 24       	eor	r14, r14
    3178:	00 e0       	ldi	r16, 0x00	; 0
    317a:	10 e0       	ldi	r17, 0x00	; 0
    317c:	58 01       	movw	r10, r16
    317e:	a9 2d       	mov	r26, r9
    3180:	bb 27       	eor	r27, r27
    3182:	fd 01       	movw	r30, r26
    3184:	84 e0       	ldi	r24, 0x04	; 4
    3186:	ee 0f       	add	r30, r30
    3188:	ff 1f       	adc	r31, r31
    318a:	8a 95       	dec	r24
    318c:	e1 f7       	brne	.-8      	; 0x3186
    318e:	ea 0d       	add	r30, r10
    3190:	fb 1d       	adc	r31, r11
    3192:	e1 5b       	subi	r30, 0xB1	; 177
    3194:	f9 4f       	sbci	r31, 0xF9	; 249
    3196:	84 91       	lpm	r24, Z
    3198:	88 23       	and	r24, r24
    319a:	89 f0       	breq	.+34     	; 0x31be
    319c:	ef e0       	ldi	r30, 0x0F	; 15
    319e:	e9 15       	cp	r30, r9
    31a0:	70 f0       	brcs	.+28     	; 0x31be
    31a2:	8e 2f       	mov	r24, r30
    31a4:	8e 19       	sub	r24, r14
    31a6:	99 2d       	mov	r25, r9
    31a8:	a0 0f       	add	r26, r16
    31aa:	b1 1f       	adc	r27, r17
    31ac:	a4 0d       	add	r26, r4
    31ae:	b5 1d       	adc	r27, r5
    31b0:	2c 91       	ld	r18, X
    31b2:	22 95       	swap	r18
    31b4:	26 95       	lsr	r18
    31b6:	27 70       	andi	r18, 0x07	; 7
    31b8:	62 2f       	mov	r22, r18
    31ba:	0e 94 f3 05 	call	0xbe6
    31be:	e3 94       	inc	r14
    31c0:	08 94       	sec
    31c2:	a1 1c       	adc	r10, r1
    31c4:	b1 1c       	adc	r11, r1
    31c6:	0d 5e       	subi	r16, 0xED	; 237
    31c8:	1f 4f       	sbci	r17, 0xFF	; 255
    31ca:	ff e0       	ldi	r31, 0x0F	; 15
    31cc:	fe 15       	cp	r31, r14
    31ce:	b8 f6       	brcc	.-82     	; 0x317e
    31d0:	93 94       	inc	r9
    31d2:	f9 15       	cp	r31, r9
    31d4:	80 f6       	brcc	.-96     	; 0x3176
    31d6:	82 e3       	ldi	r24, 0x32	; 50
    31d8:	90 e0       	ldi	r25, 0x00	; 0
    31da:	0e 94 bb 05 	call	0xb76
    31de:	08 94       	sec
    31e0:	61 1c       	adc	r6, r1
    31e2:	71 1c       	adc	r7, r1
    31e4:	62 14       	cp	r6, r2
    31e6:	73 04       	cpc	r7, r3
    31e8:	08 f4       	brcc	.+2      	; 0x31ec
    31ea:	2f cf       	rjmp	.-418    	; 0x304a
    31ec:	c0 5d       	subi	r28, 0xD0	; 208
    31ee:	de 4f       	sbci	r29, 0xFE	; 254
    31f0:	0f b6       	in	r0, 0x3f	; 63
    31f2:	f8 94       	cli
    31f4:	de bf       	out	0x3e, r29	; 62
    31f6:	0f be       	out	0x3f, r0	; 63
    31f8:	cd bf       	out	0x3d, r28	; 61
    31fa:	df 91       	pop	r29
    31fc:	cf 91       	pop	r28
    31fe:	1f 91       	pop	r17
    3200:	0f 91       	pop	r16
    3202:	ff 90       	pop	r15
    3204:	ef 90       	pop	r14
    3206:	df 90       	pop	r13
    3208:	cf 90       	pop	r12
    320a:	bf 90       	pop	r11
    320c:	af 90       	pop	r10
    320e:	9f 90       	pop	r9
    3210:	8f 90       	pop	r8
    3212:	7f 90       	pop	r7
    3214:	6f 90       	pop	r6
    3216:	5f 90       	pop	r5
    3218:	4f 90       	pop	r4
    321a:	3f 90       	pop	r3
    321c:	2f 90       	pop	r2
    321e:	08 95       	ret

00003220 <rhein_matrix>:
    3220:	3f 92       	push	r3
    3222:	4f 92       	push	r4
    3224:	5f 92       	push	r5
    3226:	6f 92       	push	r6
    3228:	7f 92       	push	r7
    322a:	8f 92       	push	r8
    322c:	9f 92       	push	r9
    322e:	af 92       	push	r10
    3230:	bf 92       	push	r11
    3232:	cf 92       	push	r12
    3234:	df 92       	push	r13
    3236:	ef 92       	push	r14
    3238:	ff 92       	push	r15
    323a:	0f 93       	push	r16
    323c:	1f 93       	push	r17
    323e:	cf 93       	push	r28
    3240:	df 93       	push	r29
    3242:	cd b7       	in	r28, 0x3d	; 61
    3244:	de b7       	in	r29, 0x3e	; 62
    3246:	c2 5c       	subi	r28, 0xC2	; 194
    3248:	d1 40       	sbci	r29, 0x01	; 1
    324a:	0f b6       	in	r0, 0x3f	; 63
    324c:	f8 94       	cli
    324e:	de bf       	out	0x3e, r29	; 62
    3250:	0f be       	out	0x3f, r0	; 63
    3252:	cd bf       	out	0x3d, r28	; 61
    3254:	99 24       	eor	r9, r9
    3256:	89 2c       	mov	r8, r9
    3258:	73 ef       	ldi	r23, 0xF3	; 243
    325a:	67 2e       	mov	r6, r23
    325c:	71 e0       	ldi	r23, 0x01	; 1
    325e:	77 2e       	mov	r7, r23
    3260:	10 e0       	ldi	r17, 0x00	; 0
    3262:	65 eb       	ldi	r22, 0xB5	; 181
    3264:	46 2e       	mov	r4, r22
    3266:	51 2c       	mov	r5, r1
    3268:	4c 0e       	add	r4, r28
    326a:	5d 1e       	adc	r5, r29
    326c:	e1 2f       	mov	r30, r17
    326e:	ff 27       	eor	r31, r31
    3270:	54 e0       	ldi	r21, 0x04	; 4
    3272:	ee 0f       	add	r30, r30
    3274:	ff 1f       	adc	r31, r31
    3276:	5a 95       	dec	r21
    3278:	e1 f7       	brne	.-8      	; 0x3272
    327a:	ec 0f       	add	r30, r28
    327c:	fd 1f       	adc	r31, r29
    327e:	eb 54       	subi	r30, 0x4B	; 75
    3280:	ff 4f       	sbci	r31, 0xFF	; 255
    3282:	0f e0       	ldi	r16, 0x0F	; 15
    3284:	11 92       	st	Z+, r1
    3286:	01 50       	subi	r16, 0x01	; 1
    3288:	07 ff       	sbrs	r16, 7
    328a:	fc cf       	rjmp	.-8      	; 0x3284
    328c:	1f 5f       	subi	r17, 0xFF	; 255
    328e:	10 31       	cpi	r17, 0x10	; 16
    3290:	68 f3       	brcs	.-38     	; 0x326c
    3292:	dd 24       	eor	r13, r13
    3294:	d9 14       	cp	r13, r9
    3296:	08 f0       	brcs	.+2      	; 0x329a
    3298:	9e c0       	rjmp	.+316    	; 0x33d6
    329a:	45 eb       	ldi	r20, 0xB5	; 181
    329c:	e4 2e       	mov	r14, r20
    329e:	41 e0       	ldi	r20, 0x01	; 1
    32a0:	f4 2e       	mov	r15, r20
    32a2:	ec 0e       	add	r14, r28
    32a4:	fd 1e       	adc	r15, r29
    32a6:	5e 01       	movw	r10, r28
    32a8:	08 94       	sec
    32aa:	a1 1c       	adc	r10, r1
    32ac:	b1 1c       	adc	r11, r1
    32ae:	36 e0       	ldi	r19, 0x06	; 6
    32b0:	33 2e       	mov	r3, r19
    32b2:	4d 2d       	mov	r20, r13
    32b4:	55 27       	eor	r21, r21
    32b6:	fa 01       	movw	r30, r20
    32b8:	ee 0f       	add	r30, r30
    32ba:	ff 1f       	adc	r31, r31
    32bc:	ee 0f       	add	r30, r30
    32be:	ff 1f       	adc	r31, r31
    32c0:	e4 0f       	add	r30, r20
    32c2:	f5 1f       	adc	r31, r21
    32c4:	e4 0f       	add	r30, r20
    32c6:	f5 1f       	adc	r31, r21
    32c8:	ea 0d       	add	r30, r10
    32ca:	fb 1d       	adc	r31, r11
    32cc:	d7 01       	movw	r26, r14
    32ce:	23 2d       	mov	r18, r3
    32d0:	01 90       	ld	r0, Z+
    32d2:	0d 92       	st	X+, r0
    32d4:	2a 95       	dec	r18
    32d6:	e1 f7       	brne	.-8      	; 0x32d0
    32d8:	7f ef       	ldi	r23, 0xFF	; 255
    32da:	cc 24       	eor	r12, r12
    32dc:	f7 01       	movw	r30, r14
    32de:	62 81       	ldd	r22, Z+2	; 0x02
    32e0:	66 95       	lsr	r22
    32e2:	66 95       	lsr	r22
    32e4:	66 95       	lsr	r22
    32e6:	67 17       	cp	r22, r23
    32e8:	a1 f1       	breq	.+104    	; 0x3352
    32ea:	de 01       	movw	r26, r28
    32ec:	ab 54       	subi	r26, 0x4B	; 75
    32ee:	be 4f       	sbci	r27, 0xFE	; 254
    32f0:	fd 01       	movw	r30, r26
    32f2:	81 81       	ldd	r24, Z+1	; 0x01
    32f4:	08 2f       	mov	r16, r24
    32f6:	11 27       	eor	r17, r17
    32f8:	26 2f       	mov	r18, r22
    32fa:	33 27       	eor	r19, r19
    32fc:	c9 01       	movw	r24, r18
    32fe:	80 0f       	add	r24, r16
    3300:	91 1f       	adc	r25, r17
    3302:	40 97       	sbiw	r24, 0x10	; 16
    3304:	d4 f4       	brge	.+52     	; 0x333a
    3306:	87 2f       	mov	r24, r23
    3308:	82 95       	swap	r24
    330a:	86 95       	lsr	r24
    330c:	86 95       	lsr	r24
    330e:	83 70       	andi	r24, 0x03	; 3
    3310:	11 f0       	breq	.+4      	; 0x3316
    3312:	91 e0       	ldi	r25, 0x01	; 1
    3314:	c9 2e       	mov	r12, r25
    3316:	8c 91       	ld	r24, X
    3318:	e8 2f       	mov	r30, r24
    331a:	ff 27       	eor	r31, r31
    331c:	84 e0       	ldi	r24, 0x04	; 4
    331e:	ee 0f       	add	r30, r30
    3320:	ff 1f       	adc	r31, r31
    3322:	8a 95       	dec	r24
    3324:	e1 f7       	brne	.-8      	; 0x331e
    3326:	e2 0f       	add	r30, r18
    3328:	f3 1f       	adc	r31, r19
    332a:	e0 0f       	add	r30, r16
    332c:	f1 1f       	adc	r31, r17
    332e:	e4 0d       	add	r30, r4
    3330:	f5 1d       	adc	r31, r5
    3332:	80 81       	ld	r24, Z
    3334:	87 17       	cp	r24, r23
    3336:	08 f4       	brcc	.+2      	; 0x333a
    3338:	70 83       	st	Z, r23
    333a:	87 2f       	mov	r24, r23
    333c:	82 95       	swap	r24
    333e:	86 95       	lsr	r24
    3340:	87 70       	andi	r24, 0x07	; 7
    3342:	fd 01       	movw	r30, r26
    3344:	93 81       	ldd	r25, Z+3	; 0x03
    3346:	89 9f       	mul	r24, r25
    3348:	80 2d       	mov	r24, r0
    334a:	11 24       	eor	r1, r1
    334c:	78 1b       	sub	r23, r24
    334e:	61 50       	subi	r22, 0x01	; 1
    3350:	98 f6       	brcc	.-90     	; 0x32f8
    3352:	f7 01       	movw	r30, r14
    3354:	95 81       	ldd	r25, Z+5	; 0x05
    3356:	96 95       	lsr	r25
    3358:	82 81       	ldd	r24, Z+2	; 0x02
    335a:	89 0f       	add	r24, r25
    335c:	82 83       	std	Z+2, r24	; 0x02
    335e:	fa 01       	movw	r30, r20
    3360:	ee 0f       	add	r30, r30
    3362:	ff 1f       	adc	r31, r31
    3364:	ee 0f       	add	r30, r30
    3366:	ff 1f       	adc	r31, r31
    3368:	e4 0f       	add	r30, r20
    336a:	f5 1f       	adc	r31, r21
    336c:	e4 0f       	add	r30, r20
    336e:	f5 1f       	adc	r31, r21
    3370:	ea 0d       	add	r30, r10
    3372:	fb 1d       	adc	r31, r11
    3374:	d7 01       	movw	r26, r14
    3376:	23 2d       	mov	r18, r3
    3378:	0d 90       	ld	r0, X+
    337a:	01 92       	st	Z+, r0
    337c:	2a 95       	dec	r18
    337e:	e1 f7       	brne	.-8      	; 0x3378
    3380:	cc 20       	and	r12, r12
    3382:	29 f5       	brne	.+74     	; 0x33ce
    3384:	6d 2d       	mov	r22, r13
    3386:	29 2d       	mov	r18, r9
    3388:	33 27       	eor	r19, r19
    338a:	21 50       	subi	r18, 0x01	; 1
    338c:	30 40       	sbci	r19, 0x00	; 0
    338e:	42 17       	cp	r20, r18
    3390:	53 07       	cpc	r21, r19
    3392:	dc f4       	brge	.+54     	; 0x33ca
    3394:	46 e0       	ldi	r20, 0x06	; 6
    3396:	86 2f       	mov	r24, r22
    3398:	99 27       	eor	r25, r25
    339a:	fc 01       	movw	r30, r24
    339c:	ee 0f       	add	r30, r30
    339e:	ff 1f       	adc	r31, r31
    33a0:	ee 0f       	add	r30, r30
    33a2:	ff 1f       	adc	r31, r31
    33a4:	e8 0f       	add	r30, r24
    33a6:	f9 1f       	adc	r31, r25
    33a8:	e8 0f       	add	r30, r24
    33aa:	f9 1f       	adc	r31, r25
    33ac:	ea 0d       	add	r30, r10
    33ae:	fb 1d       	adc	r31, r11
    33b0:	df 01       	movw	r26, r30
    33b2:	16 96       	adiw	r26, 0x06	; 6
    33b4:	84 2f       	mov	r24, r20
    33b6:	0d 90       	ld	r0, X+
    33b8:	01 92       	st	Z+, r0
    33ba:	8a 95       	dec	r24
    33bc:	e1 f7       	brne	.-8      	; 0x33b6
    33be:	6f 5f       	subi	r22, 0xFF	; 255
    33c0:	86 2f       	mov	r24, r22
    33c2:	99 27       	eor	r25, r25
    33c4:	82 17       	cp	r24, r18
    33c6:	93 07       	cpc	r25, r19
    33c8:	34 f3       	brlt	.-52     	; 0x3396
    33ca:	9a 94       	dec	r9
    33cc:	da 94       	dec	r13
    33ce:	d3 94       	inc	r13
    33d0:	d9 14       	cp	r13, r9
    33d2:	08 f4       	brcc	.+2      	; 0x33d6
    33d4:	6e cf       	rjmp	.-292    	; 0x32b2
    33d6:	00 e0       	ldi	r16, 0x00	; 0
    33d8:	10 e0       	ldi	r17, 0x00	; 0
    33da:	ee 24       	eor	r14, r14
    33dc:	ff 24       	eor	r15, r15
    33de:	67 01       	movw	r12, r14
    33e0:	a0 2f       	mov	r26, r16
    33e2:	bb 27       	eor	r27, r27
    33e4:	fd 01       	movw	r30, r26
    33e6:	84 e0       	ldi	r24, 0x04	; 4
    33e8:	ee 0f       	add	r30, r30
    33ea:	ff 1f       	adc	r31, r31
    33ec:	8a 95       	dec	r24
    33ee:	e1 f7       	brne	.-8      	; 0x33e8
    33f0:	ec 0d       	add	r30, r12
    33f2:	fd 1d       	adc	r31, r13
    33f4:	e1 5b       	subi	r30, 0xB1	; 177
    33f6:	f9 4f       	sbci	r31, 0xF9	; 249
    33f8:	64 91       	lpm	r22, Z
    33fa:	66 23       	and	r22, r22
    33fc:	39 f0       	breq	.+14     	; 0x340c
    33fe:	00 31       	cpi	r16, 0x10	; 16
    3400:	d8 f4       	brcc	.+54     	; 0x3438
    3402:	2f e0       	ldi	r18, 0x0F	; 15
    3404:	82 2f       	mov	r24, r18
    3406:	81 1b       	sub	r24, r17
    3408:	90 2f       	mov	r25, r16
    340a:	14 c0       	rjmp	.+40     	; 0x3434
    340c:	00 31       	cpi	r16, 0x10	; 16
    340e:	a0 f4       	brcc	.+40     	; 0x3438
    3410:	8f e0       	ldi	r24, 0x0F	; 15
    3412:	28 2f       	mov	r18, r24
    3414:	21 1b       	sub	r18, r17
    3416:	30 2f       	mov	r19, r16
    3418:	ae 0d       	add	r26, r14
    341a:	bf 1d       	adc	r27, r15
    341c:	ce 01       	movw	r24, r28
    341e:	8b 54       	subi	r24, 0x4B	; 75
    3420:	9f 4f       	sbci	r25, 0xFF	; 255
    3422:	a8 0f       	add	r26, r24
    3424:	b9 1f       	adc	r27, r25
    3426:	8c 91       	ld	r24, X
    3428:	82 95       	swap	r24
    342a:	86 95       	lsr	r24
    342c:	86 95       	lsr	r24
    342e:	83 70       	andi	r24, 0x03	; 3
    3430:	68 2f       	mov	r22, r24
    3432:	c9 01       	movw	r24, r18
    3434:	0e 94 f3 05 	call	0xbe6
    3438:	1f 5f       	subi	r17, 0xFF	; 255
    343a:	08 94       	sec
    343c:	c1 1c       	adc	r12, r1
    343e:	d1 1c       	adc	r13, r1
    3440:	a0 e1       	ldi	r26, 0x10	; 16
    3442:	b0 e0       	ldi	r27, 0x00	; 0
    3444:	ea 0e       	add	r14, r26
    3446:	fb 1e       	adc	r15, r27
    3448:	10 31       	cpi	r17, 0x10	; 16
    344a:	50 f2       	brcs	.-108    	; 0x33e0
    344c:	0f 5f       	subi	r16, 0xFF	; 255
    344e:	00 31       	cpi	r16, 0x10	; 16
    3450:	08 f4       	brcc	.+2      	; 0x3454
    3452:	c2 cf       	rjmp	.-124    	; 0x33d8
    3454:	b5 e0       	ldi	r27, 0x05	; 5
    3456:	bb 2e       	mov	r11, r27
    3458:	bd e1       	ldi	r27, 0x1D	; 29
    345a:	b9 15       	cp	r27, r9
    345c:	08 f4       	brcc	.+2      	; 0x3460
    345e:	5c c0       	rjmp	.+184    	; 0x3518
    3460:	0e 94 e4 07 	call	0xfc8
    3464:	08 2f       	mov	r16, r24
    3466:	0f 71       	andi	r16, 0x1F	; 31
    3468:	00 31       	cpi	r16, 0x10	; 16
    346a:	08 f0       	brcs	.+2      	; 0x346e
    346c:	00 e0       	ldi	r16, 0x00	; 0
    346e:	89 2d       	mov	r24, r9
    3470:	99 27       	eor	r25, r25
    3472:	fc 01       	movw	r30, r24
    3474:	ee 0f       	add	r30, r30
    3476:	ff 1f       	adc	r31, r31
    3478:	ee 0f       	add	r30, r30
    347a:	ff 1f       	adc	r31, r31
    347c:	e8 0f       	add	r30, r24
    347e:	f9 1f       	adc	r31, r25
    3480:	e8 0f       	add	r30, r24
    3482:	f9 1f       	adc	r31, r25
    3484:	ce 01       	movw	r24, r28
    3486:	01 96       	adiw	r24, 0x01	; 1
    3488:	e8 0f       	add	r30, r24
    348a:	f9 1f       	adc	r31, r25
    348c:	cf 53       	subi	r28, 0x3F	; 63
    348e:	de 4f       	sbci	r29, 0xFE	; 254
    3490:	e8 83       	st	Y, r30
    3492:	f9 83       	std	Y+1, r31	; 0x01
    3494:	c1 5c       	subi	r28, 0xC1	; 193
    3496:	d1 40       	sbci	r29, 0x01	; 1
    3498:	f5 eb       	ldi	r31, 0xB5	; 181
    349a:	cf 2e       	mov	r12, r31
    349c:	f1 e0       	ldi	r31, 0x01	; 1
    349e:	df 2e       	mov	r13, r31
    34a0:	cc 0e       	add	r12, r28
    34a2:	dd 1e       	adc	r13, r29
    34a4:	eb eb       	ldi	r30, 0xBB	; 187
    34a6:	ee 2e       	mov	r14, r30
    34a8:	e1 e0       	ldi	r30, 0x01	; 1
    34aa:	fe 2e       	mov	r15, r30
    34ac:	ec 0e       	add	r14, r28
    34ae:	fd 1e       	adc	r15, r29
    34b0:	0e 94 e4 07 	call	0xfc8
    34b4:	8f 70       	andi	r24, 0x0F	; 15
    34b6:	d7 01       	movw	r26, r14
    34b8:	8c 93       	st	X, r24
    34ba:	f7 01       	movw	r30, r14
    34bc:	01 83       	std	Z+1, r16	; 0x01
    34be:	fe 01       	movw	r30, r28
    34c0:	e3 54       	subi	r30, 0x43	; 67
    34c2:	fe 4f       	sbci	r31, 0xFE	; 254
    34c4:	10 82       	st	Z, r1
    34c6:	0e 94 e4 07 	call	0xfc8
    34ca:	87 70       	andi	r24, 0x07	; 7
    34cc:	84 5f       	subi	r24, 0xF4	; 244
    34ce:	fe 01       	movw	r30, r28
    34d0:	e2 54       	subi	r30, 0x42	; 66
    34d2:	fe 4f       	sbci	r31, 0xFE	; 254
    34d4:	80 83       	st	Z, r24
    34d6:	88 2d       	mov	r24, r8
    34d8:	83 94       	inc	r8
    34da:	fe 01       	movw	r30, r28
    34dc:	e1 54       	subi	r30, 0x41	; 65
    34de:	fe 4f       	sbci	r31, 0xFE	; 254
    34e0:	80 83       	st	Z, r24
    34e2:	0e 94 e4 07 	call	0xfc8
    34e6:	8f 70       	andi	r24, 0x0F	; 15
    34e8:	8d 5f       	subi	r24, 0xFD	; 253
    34ea:	fe 01       	movw	r30, r28
    34ec:	e0 54       	subi	r30, 0x40	; 64
    34ee:	fe 4f       	sbci	r31, 0xFE	; 254
    34f0:	80 83       	st	Z, r24
    34f2:	46 e0       	ldi	r20, 0x06	; 6
    34f4:	50 e0       	ldi	r21, 0x00	; 0
    34f6:	b7 01       	movw	r22, r14
    34f8:	c6 01       	movw	r24, r12
    34fa:	0e 94 c6 1b 	call	0x378c
    34fe:	86 e0       	ldi	r24, 0x06	; 6
    3500:	cf 53       	subi	r28, 0x3F	; 63
    3502:	de 4f       	sbci	r29, 0xFE	; 254
    3504:	a8 81       	ld	r26, Y
    3506:	b9 81       	ldd	r27, Y+1	; 0x01
    3508:	c1 5c       	subi	r28, 0xC1	; 193
    350a:	d1 40       	sbci	r29, 0x01	; 1
    350c:	f6 01       	movw	r30, r12
    350e:	01 90       	ld	r0, Z+
    3510:	0d 92       	st	X+, r0
    3512:	8a 95       	dec	r24
    3514:	e1 f7       	brne	.-8      	; 0x350e
    3516:	93 94       	inc	r9
    3518:	ba 94       	dec	r11
    351a:	b7 fe       	sbrs	r11, 7
    351c:	9d cf       	rjmp	.-198    	; 0x3458
    351e:	80 e5       	ldi	r24, 0x50	; 80
    3520:	90 e0       	ldi	r25, 0x00	; 0
    3522:	0e 94 bb 05 	call	0xb76
    3526:	08 94       	sec
    3528:	61 08       	sbc	r6, r1
    352a:	71 08       	sbc	r7, r1
    352c:	ff ef       	ldi	r31, 0xFF	; 255
    352e:	6f 16       	cp	r6, r31
    3530:	ff ef       	ldi	r31, 0xFF	; 255
    3532:	7f 06       	cpc	r7, r31
    3534:	09 f0       	breq	.+2      	; 0x3538
    3536:	94 ce       	rjmp	.-728    	; 0x3260
    3538:	ce 53       	subi	r28, 0x3E	; 62
    353a:	de 4f       	sbci	r29, 0xFE	; 254
    353c:	0f b6       	in	r0, 0x3f	; 63
    353e:	f8 94       	cli
    3540:	de bf       	out	0x3e, r29	; 62
    3542:	0f be       	out	0x3f, r0	; 63
    3544:	cd bf       	out	0x3d, r28	; 61
    3546:	df 91       	pop	r29
    3548:	cf 91       	pop	r28
    354a:	1f 91       	pop	r17
    354c:	0f 91       	pop	r16
    354e:	ff 90       	pop	r15
    3550:	ef 90       	pop	r14
    3552:	df 90       	pop	r13
    3554:	cf 90       	pop	r12
    3556:	bf 90       	pop	r11
    3558:	af 90       	pop	r10
    355a:	9f 90       	pop	r9
    355c:	8f 90       	pop	r8
    355e:	7f 90       	pop	r7
    3560:	6f 90       	pop	r6
    3562:	5f 90       	pop	r5
    3564:	4f 90       	pop	r4
    3566:	3f 90       	pop	r3
    3568:	08 95       	ret

0000356a <malloc>:
    356a:	cf 93       	push	r28
    356c:	df 93       	push	r29
    356e:	9c 01       	movw	r18, r24
    3570:	02 97       	sbiw	r24, 0x02	; 2
    3572:	10 f4       	brcc	.+4      	; 0x3578
    3574:	22 e0       	ldi	r18, 0x02	; 2
    3576:	30 e0       	ldi	r19, 0x00	; 0
    3578:	40 e0       	ldi	r20, 0x00	; 0
    357a:	50 e0       	ldi	r21, 0x00	; 0
    357c:	60 91 a1 02 	lds	r22, 0x02A1
    3580:	70 91 a2 02 	lds	r23, 0x02A2
    3584:	fb 01       	movw	r30, r22
    3586:	da 01       	movw	r26, r20
    3588:	61 15       	cp	r22, r1
    358a:	71 05       	cpc	r23, r1
    358c:	69 f1       	breq	.+90     	; 0x35e8
    358e:	80 81       	ld	r24, Z
    3590:	91 81       	ldd	r25, Z+1	; 0x01
    3592:	82 17       	cp	r24, r18
    3594:	93 07       	cpc	r25, r19
    3596:	09 f4       	brne	.+2      	; 0x359a
    3598:	52 c0       	rjmp	.+164    	; 0x363e
    359a:	28 17       	cp	r18, r24
    359c:	39 07       	cpc	r19, r25
    359e:	38 f4       	brcc	.+14     	; 0x35ae
    35a0:	41 15       	cp	r20, r1
    35a2:	51 05       	cpc	r21, r1
    35a4:	19 f0       	breq	.+6      	; 0x35ac
    35a6:	84 17       	cp	r24, r20
    35a8:	95 07       	cpc	r25, r21
    35aa:	08 f4       	brcc	.+2      	; 0x35ae
    35ac:	ac 01       	movw	r20, r24
    35ae:	df 01       	movw	r26, r30
    35b0:	02 80       	ldd	r0, Z+2	; 0x02
    35b2:	f3 81       	ldd	r31, Z+3	; 0x03
    35b4:	e0 2d       	mov	r30, r0
    35b6:	30 97       	sbiw	r30, 0x00	; 0
    35b8:	51 f7       	brne	.-44     	; 0x358e
    35ba:	41 15       	cp	r20, r1
    35bc:	51 05       	cpc	r21, r1
    35be:	a1 f0       	breq	.+40     	; 0x35e8
    35c0:	da 01       	movw	r26, r20
    35c2:	a2 1b       	sub	r26, r18
    35c4:	b3 0b       	sbc	r27, r19
    35c6:	14 97       	sbiw	r26, 0x04	; 4
    35c8:	08 f4       	brcc	.+2      	; 0x35cc
    35ca:	43 c0       	rjmp	.+134    	; 0x3652
    35cc:	db 01       	movw	r26, r22
    35ce:	0a c0       	rjmp	.+20     	; 0x35e4
    35d0:	6d 91       	ld	r22, X+
    35d2:	7c 91       	ld	r23, X
    35d4:	11 97       	sbiw	r26, 0x01	; 1
    35d6:	64 17       	cp	r22, r20
    35d8:	75 07       	cpc	r23, r21
    35da:	09 f4       	brne	.+2      	; 0x35de
    35dc:	50 c0       	rjmp	.+160    	; 0x367e
    35de:	fd 01       	movw	r30, r26
    35e0:	a2 81       	ldd	r26, Z+2	; 0x02
    35e2:	b3 81       	ldd	r27, Z+3	; 0x03
    35e4:	10 97       	sbiw	r26, 0x00	; 0
    35e6:	a1 f7       	brne	.-24     	; 0x35d0
    35e8:	e0 91 9f 02 	lds	r30, 0x029F
    35ec:	f0 91 a0 02 	lds	r31, 0x02A0
    35f0:	30 97       	sbiw	r30, 0x00	; 0
    35f2:	41 f4       	brne	.+16     	; 0x3604
    35f4:	e0 91 0b 02 	lds	r30, 0x020B
    35f8:	f0 91 0c 02 	lds	r31, 0x020C
    35fc:	f0 93 a0 02 	sts	0x02A0, r31
    3600:	e0 93 9f 02 	sts	0x029F, r30
    3604:	40 91 09 02 	lds	r20, 0x0209
    3608:	50 91 0a 02 	lds	r21, 0x020A
    360c:	41 15       	cp	r20, r1
    360e:	51 05       	cpc	r21, r1
    3610:	29 f1       	breq	.+74     	; 0x365c
    3612:	4e 1b       	sub	r20, r30
    3614:	5f 0b       	sbc	r21, r31
    3616:	42 17       	cp	r20, r18
    3618:	53 07       	cpc	r21, r19
    361a:	e8 f0       	brcs	.+58     	; 0x3656
    361c:	c9 01       	movw	r24, r18
    361e:	02 96       	adiw	r24, 0x02	; 2
    3620:	48 17       	cp	r20, r24
    3622:	59 07       	cpc	r21, r25
    3624:	c0 f0       	brcs	.+48     	; 0x3656
    3626:	ef 01       	movw	r28, r30
    3628:	c2 0f       	add	r28, r18
    362a:	d3 1f       	adc	r29, r19
    362c:	22 96       	adiw	r28, 0x02	; 2
    362e:	d0 93 a0 02 	sts	0x02A0, r29
    3632:	c0 93 9f 02 	sts	0x029F, r28
    3636:	21 93       	st	Z+, r18
    3638:	31 93       	st	Z+, r19
    363a:	cf 01       	movw	r24, r30
    363c:	42 c0       	rjmp	.+132    	; 0x36c2
    363e:	10 97       	sbiw	r26, 0x00	; 0
    3640:	b1 f0       	breq	.+44     	; 0x366e
    3642:	82 81       	ldd	r24, Z+2	; 0x02
    3644:	93 81       	ldd	r25, Z+3	; 0x03
    3646:	ed 01       	movw	r28, r26
    3648:	8a 83       	std	Y+2, r24	; 0x02
    364a:	9b 83       	std	Y+3, r25	; 0x03
    364c:	cf 01       	movw	r24, r30
    364e:	02 96       	adiw	r24, 0x02	; 2
    3650:	38 c0       	rjmp	.+112    	; 0x36c2
    3652:	9a 01       	movw	r18, r20
    3654:	bb cf       	rjmp	.-138    	; 0x35cc
    3656:	80 e0       	ldi	r24, 0x00	; 0
    3658:	90 e0       	ldi	r25, 0x00	; 0
    365a:	33 c0       	rjmp	.+102    	; 0x36c2
    365c:	4d b7       	in	r20, 0x3d	; 61
    365e:	5e b7       	in	r21, 0x3e	; 62
    3660:	a0 91 0d 02 	lds	r26, 0x020D
    3664:	b0 91 0e 02 	lds	r27, 0x020E
    3668:	4a 1b       	sub	r20, r26
    366a:	5b 0b       	sbc	r21, r27
    366c:	d2 cf       	rjmp	.-92     	; 0x3612
    366e:	22 81       	ldd	r18, Z+2	; 0x02
    3670:	33 81       	ldd	r19, Z+3	; 0x03
    3672:	30 93 a2 02 	sts	0x02A2, r19
    3676:	20 93 a1 02 	sts	0x02A1, r18
    367a:	cf 01       	movw	r24, r30
    367c:	e8 cf       	rjmp	.-48     	; 0x364e
    367e:	24 17       	cp	r18, r20
    3680:	35 07       	cpc	r19, r21
    3682:	61 f0       	breq	.+24     	; 0x369c
    3684:	ea 01       	movw	r28, r20
    3686:	c2 1b       	sub	r28, r18
    3688:	d3 0b       	sbc	r29, r19
    368a:	fd 01       	movw	r30, r26
    368c:	ec 0f       	add	r30, r28
    368e:	fd 1f       	adc	r31, r29
    3690:	21 93       	st	Z+, r18
    3692:	31 93       	st	Z+, r19
    3694:	22 97       	sbiw	r28, 0x02	; 2
    3696:	cd 93       	st	X+, r28
    3698:	dc 93       	st	X, r29
    369a:	cf cf       	rjmp	.-98     	; 0x363a
    369c:	30 97       	sbiw	r30, 0x00	; 0
    369e:	41 f0       	breq	.+16     	; 0x36b0
    36a0:	ed 01       	movw	r28, r26
    36a2:	4a 81       	ldd	r20, Y+2	; 0x02
    36a4:	5b 81       	ldd	r21, Y+3	; 0x03
    36a6:	42 83       	std	Z+2, r20	; 0x02
    36a8:	53 83       	std	Z+3, r21	; 0x03
    36aa:	cd 01       	movw	r24, r26
    36ac:	02 96       	adiw	r24, 0x02	; 2
    36ae:	09 c0       	rjmp	.+18     	; 0x36c2
    36b0:	fd 01       	movw	r30, r26
    36b2:	82 81       	ldd	r24, Z+2	; 0x02
    36b4:	93 81       	ldd	r25, Z+3	; 0x03
    36b6:	90 93 a2 02 	sts	0x02A2, r25
    36ba:	80 93 a1 02 	sts	0x02A1, r24
    36be:	cd 01       	movw	r24, r26
    36c0:	f5 cf       	rjmp	.-22     	; 0x36ac
    36c2:	df 91       	pop	r29
    36c4:	cf 91       	pop	r28
    36c6:	08 95       	ret

000036c8 <free>:
    36c8:	cf 93       	push	r28
    36ca:	df 93       	push	r29
    36cc:	00 97       	sbiw	r24, 0x00	; 0
    36ce:	09 f4       	brne	.+2      	; 0x36d2
    36d0:	5a c0       	rjmp	.+180    	; 0x3786
    36d2:	dc 01       	movw	r26, r24
    36d4:	12 97       	sbiw	r26, 0x02	; 2
    36d6:	ed 01       	movw	r28, r26
    36d8:	1a 82       	std	Y+2, r1	; 0x02
    36da:	1b 82       	std	Y+3, r1	; 0x03
    36dc:	80 91 a1 02 	lds	r24, 0x02A1
    36e0:	90 91 a2 02 	lds	r25, 0x02A2
    36e4:	00 97       	sbiw	r24, 0x00	; 0
    36e6:	d9 f1       	breq	.+118    	; 0x375e
    36e8:	fc 01       	movw	r30, r24
    36ea:	40 e0       	ldi	r20, 0x00	; 0
    36ec:	50 e0       	ldi	r21, 0x00	; 0
    36ee:	ea 17       	cp	r30, r26
    36f0:	fb 07       	cpc	r31, r27
    36f2:	48 f4       	brcc	.+18     	; 0x3706
    36f4:	af 01       	movw	r20, r30
    36f6:	02 80       	ldd	r0, Z+2	; 0x02
    36f8:	f3 81       	ldd	r31, Z+3	; 0x03
    36fa:	e0 2d       	mov	r30, r0
    36fc:	30 97       	sbiw	r30, 0x00	; 0
    36fe:	a1 f0       	breq	.+40     	; 0x3728
    3700:	ea 17       	cp	r30, r26
    3702:	fb 07       	cpc	r31, r27
    3704:	b8 f3       	brcs	.-18     	; 0x36f4
    3706:	ed 01       	movw	r28, r26
    3708:	ea 83       	std	Y+2, r30	; 0x02
    370a:	fb 83       	std	Y+3, r31	; 0x03
    370c:	2d 91       	ld	r18, X+
    370e:	3c 91       	ld	r19, X
    3710:	11 97       	sbiw	r26, 0x01	; 1
    3712:	e9 01       	movw	r28, r18
    3714:	ca 0f       	add	r28, r26
    3716:	db 1f       	adc	r29, r27
    3718:	ce 01       	movw	r24, r28
    371a:	02 96       	adiw	r24, 0x02	; 2
    371c:	8e 17       	cp	r24, r30
    371e:	9f 07       	cpc	r25, r31
    3720:	19 f1       	breq	.+70     	; 0x3768
    3722:	41 15       	cp	r20, r1
    3724:	51 05       	cpc	r21, r1
    3726:	d9 f0       	breq	.+54     	; 0x375e
    3728:	ea 01       	movw	r28, r20
    372a:	aa 83       	std	Y+2, r26	; 0x02
    372c:	bb 83       	std	Y+3, r27	; 0x03
    372e:	ca 01       	movw	r24, r20
    3730:	02 96       	adiw	r24, 0x02	; 2
    3732:	28 81       	ld	r18, Y
    3734:	39 81       	ldd	r19, Y+1	; 0x01
    3736:	82 0f       	add	r24, r18
    3738:	93 1f       	adc	r25, r19
    373a:	8a 17       	cp	r24, r26
    373c:	9b 07       	cpc	r25, r27
    373e:	19 f5       	brne	.+70     	; 0x3786
    3740:	6d 91       	ld	r22, X+
    3742:	7c 91       	ld	r23, X
    3744:	11 97       	sbiw	r26, 0x01	; 1
    3746:	26 0f       	add	r18, r22
    3748:	37 1f       	adc	r19, r23
    374a:	2e 5f       	subi	r18, 0xFE	; 254
    374c:	3f 4f       	sbci	r19, 0xFF	; 255
    374e:	28 83       	st	Y, r18
    3750:	39 83       	std	Y+1, r19	; 0x01
    3752:	fd 01       	movw	r30, r26
    3754:	42 81       	ldd	r20, Z+2	; 0x02
    3756:	53 81       	ldd	r21, Z+3	; 0x03
    3758:	4a 83       	std	Y+2, r20	; 0x02
    375a:	5b 83       	std	Y+3, r21	; 0x03
    375c:	14 c0       	rjmp	.+40     	; 0x3786
    375e:	b0 93 a2 02 	sts	0x02A2, r27
    3762:	a0 93 a1 02 	sts	0x02A1, r26
    3766:	0f c0       	rjmp	.+30     	; 0x3786
    3768:	6a 81       	ldd	r22, Y+2	; 0x02
    376a:	7b 81       	ldd	r23, Y+3	; 0x03
    376c:	26 0f       	add	r18, r22
    376e:	37 1f       	adc	r19, r23
    3770:	2e 5f       	subi	r18, 0xFE	; 254
    3772:	3f 4f       	sbci	r19, 0xFF	; 255
    3774:	2d 93       	st	X+, r18
    3776:	3c 93       	st	X, r19
    3778:	11 97       	sbiw	r26, 0x01	; 1
    377a:	22 81       	ldd	r18, Z+2	; 0x02
    377c:	33 81       	ldd	r19, Z+3	; 0x03
    377e:	fd 01       	movw	r30, r26
    3780:	22 83       	std	Z+2, r18	; 0x02
    3782:	33 83       	std	Z+3, r19	; 0x03
    3784:	ce cf       	rjmp	.-100    	; 0x3722
    3786:	df 91       	pop	r29
    3788:	cf 91       	pop	r28
    378a:	08 95       	ret

0000378c <memcpy>:
    378c:	fb 01       	movw	r30, r22
    378e:	dc 01       	movw	r26, r24
    3790:	02 c0       	rjmp	.+4      	; 0x3796

00003792 <.memcpy_loop>:
    3792:	01 90       	ld	r0, Z+
    3794:	0d 92       	st	X+, r0

00003796 <.memcpy_start>:
    3796:	41 50       	subi	r20, 0x01	; 1
    3798:	50 40       	sbci	r21, 0x00	; 0
    379a:	d8 f7       	brcc	.-10     	; 0x3792
    379c:	08 95       	ret

0000379e <setjmp>:
    379e:	fc 01       	movw	r30, r24
    37a0:	ad b7       	in	r26, 0x3d	; 61
    37a2:	be b7       	in	r27, 0x3e	; 62
    37a4:	11 96       	adiw	r26, 0x01	; 1
    37a6:	0d 90       	ld	r0, X+
    37a8:	06 8a       	std	Z+22, r0	; 0x16
    37aa:	0c 90       	ld	r0, X
    37ac:	05 8a       	std	Z+21, r0	; 0x15
    37ae:	a2 8b       	std	Z+18, r26	; 0x12
    37b0:	b3 8b       	std	Z+19, r27	; 0x13
    37b2:	0f b6       	in	r0, 0x3f	; 63
    37b4:	04 8a       	std	Z+20, r0	; 0x14
    37b6:	20 82       	st	Z, r2
    37b8:	31 82       	std	Z+1, r3	; 0x01
    37ba:	42 82       	std	Z+2, r4	; 0x02
    37bc:	53 82       	std	Z+3, r5	; 0x03
    37be:	64 82       	std	Z+4, r6	; 0x04
    37c0:	75 82       	std	Z+5, r7	; 0x05
    37c2:	86 82       	std	Z+6, r8	; 0x06
    37c4:	97 82       	std	Z+7, r9	; 0x07
    37c6:	a0 86       	std	Z+8, r10	; 0x08
    37c8:	b1 86       	std	Z+9, r11	; 0x09
    37ca:	c2 86       	std	Z+10, r12	; 0x0a
    37cc:	d3 86       	std	Z+11, r13	; 0x0b
    37ce:	e4 86       	std	Z+12, r14	; 0x0c
    37d0:	f5 86       	std	Z+13, r15	; 0x0d
    37d2:	06 87       	std	Z+14, r16	; 0x0e
    37d4:	17 87       	std	Z+15, r17	; 0x0f
    37d6:	c0 8b       	std	Z+16, r28	; 0x10
    37d8:	d1 8b       	std	Z+17, r29	; 0x11
    37da:	88 27       	eor	r24, r24
    37dc:	99 27       	eor	r25, r25
    37de:	08 95       	ret

000037e0 <longjmp>:
    37e0:	dc 01       	movw	r26, r24
    37e2:	86 2f       	mov	r24, r22
    37e4:	97 2f       	mov	r25, r23
    37e6:	81 30       	cpi	r24, 0x01	; 1
    37e8:	91 05       	cpc	r25, r1
    37ea:	81 1d       	adc	r24, r1
    37ec:	2d 90       	ld	r2, X+
    37ee:	3d 90       	ld	r3, X+
    37f0:	4d 90       	ld	r4, X+
    37f2:	5d 90       	ld	r5, X+
    37f4:	6d 90       	ld	r6, X+
    37f6:	7d 90       	ld	r7, X+
    37f8:	8d 90       	ld	r8, X+
    37fa:	9d 90       	ld	r9, X+
    37fc:	ad 90       	ld	r10, X+
    37fe:	bd 90       	ld	r11, X+
    3800:	cd 90       	ld	r12, X+
    3802:	dd 90       	ld	r13, X+
    3804:	ed 90       	ld	r14, X+
    3806:	fd 90       	ld	r15, X+
    3808:	0d 91       	ld	r16, X+
    380a:	1d 91       	ld	r17, X+
    380c:	cd 91       	ld	r28, X+
    380e:	dd 91       	ld	r29, X+
    3810:	ed 91       	ld	r30, X+
    3812:	fd 91       	ld	r31, X+
    3814:	0d 90       	ld	r0, X+
    3816:	f8 94       	cli
    3818:	fe bf       	out	0x3e, r31	; 62
    381a:	0f be       	out	0x3f, r0	; 63
    381c:	ed bf       	out	0x3d, r30	; 61
    381e:	ed 91       	ld	r30, X+
    3820:	fd 91       	ld	r31, X+
    3822:	09 94       	ijmp

00003824 <strtok_r>:
    3824:	00 97       	sbiw	r24, 0x00	; 0
    3826:	31 f4       	brne	.+12     	; 0x3834
    3828:	da 01       	movw	r26, r20
    382a:	8d 91       	ld	r24, X+
    382c:	9c 91       	ld	r25, X
    382e:	00 97       	sbiw	r24, 0x00	; 0
    3830:	09 f4       	brne	.+2      	; 0x3834
    3832:	0e c0       	rjmp	.+28     	; 0x3850

00003834 <.del_lead_init>:
    3834:	dc 01       	movw	r26, r24

00003836 <.del_str_loop>:
    3836:	fb 01       	movw	r30, r22
    3838:	3d 91       	ld	r19, X+

0000383a <.del_loop>:
    383a:	21 91       	ld	r18, Z+
    383c:	22 23       	and	r18, r18
    383e:	19 f0       	breq	.+6      	; 0x3846
    3840:	32 17       	cp	r19, r18
    3842:	c9 f3       	breq	.-14     	; 0x3836
    3844:	fa cf       	rjmp	.-12     	; 0x383a
    3846:	33 23       	and	r19, r19
    3848:	31 f4       	brne	.+12     	; 0x3856
    384a:	da 01       	movw	r26, r20
    384c:	1d 92       	st	X+, r1
    384e:	1c 92       	st	X, r1
    3850:	88 27       	eor	r24, r24
    3852:	99 27       	eor	r25, r25
    3854:	08 95       	ret

00003856 <.str_scan_init>:
    3856:	11 97       	sbiw	r26, 0x01	; 1
    3858:	af 93       	push	r26
    385a:	bf 93       	push	r27

0000385c <.scan_str_loop>:
    385c:	fb 01       	movw	r30, r22
    385e:	3d 91       	ld	r19, X+

00003860 <.scan_del_loop>:
    3860:	21 91       	ld	r18, Z+
    3862:	32 17       	cp	r19, r18
    3864:	71 f4       	brne	.+28     	; 0x3882
    3866:	33 23       	and	r19, r19
    3868:	21 f4       	brne	.+8      	; 0x3872
    386a:	88 27       	eor	r24, r24
    386c:	99 27       	eor	r25, r25
    386e:	11 97       	sbiw	r26, 0x01	; 1
    3870:	02 c0       	rjmp	.+4      	; 0x3876
    3872:	1e 92       	st	-X, r1
    3874:	11 96       	adiw	r26, 0x01	; 1
    3876:	fa 01       	movw	r30, r20
    3878:	a1 93       	st	Z+, r26
    387a:	b0 83       	st	Z, r27
    387c:	9f 91       	pop	r25
    387e:	8f 91       	pop	r24
    3880:	08 95       	ret
    3882:	22 23       	and	r18, r18
    3884:	69 f7       	brne	.-38     	; 0x3860
    3886:	ea cf       	rjmp	.-44     	; 0x385c

00003888 <__udivmodqi4>:
    3888:	99 1b       	sub	r25, r25
    388a:	79 e0       	ldi	r23, 0x09	; 9
    388c:	04 c0       	rjmp	.+8      	; 0x3896

0000388e <__udivmodqi4_loop>:
    388e:	99 1f       	adc	r25, r25
    3890:	96 17       	cp	r25, r22
    3892:	08 f0       	brcs	.+2      	; 0x3896
    3894:	96 1b       	sub	r25, r22

00003896 <__udivmodqi4_ep>:
    3896:	88 1f       	adc	r24, r24
    3898:	7a 95       	dec	r23
    389a:	c9 f7       	brne	.-14     	; 0x388e
    389c:	80 95       	com	r24
    389e:	08 95       	ret

000038a0 <__udivmodhi4>:
    38a0:	aa 1b       	sub	r26, r26
    38a2:	bb 1b       	sub	r27, r27
    38a4:	51 e1       	ldi	r21, 0x11	; 17
    38a6:	07 c0       	rjmp	.+14     	; 0x38b6

000038a8 <__udivmodhi4_loop>:
    38a8:	aa 1f       	adc	r26, r26
    38aa:	bb 1f       	adc	r27, r27
    38ac:	a6 17       	cp	r26, r22
    38ae:	b7 07       	cpc	r27, r23
    38b0:	10 f0       	brcs	.+4      	; 0x38b6
    38b2:	a6 1b       	sub	r26, r22
    38b4:	b7 0b       	sbc	r27, r23

000038b6 <__udivmodhi4_ep>:
    38b6:	88 1f       	adc	r24, r24
    38b8:	99 1f       	adc	r25, r25
    38ba:	5a 95       	dec	r21
    38bc:	a9 f7       	brne	.-22     	; 0x38a8
    38be:	80 95       	com	r24
    38c0:	90 95       	com	r25
    38c2:	bc 01       	movw	r22, r24
    38c4:	cd 01       	movw	r24, r26
    38c6:	08 95       	ret

000038c8 <__divmodhi4>:
    38c8:	97 fb       	bst	r25, 7
    38ca:	09 2e       	mov	r0, r25
    38cc:	07 26       	eor	r0, r23
    38ce:	0a d0       	rcall	.+20     	; 0x38e4
    38d0:	77 fd       	sbrc	r23, 7
    38d2:	04 d0       	rcall	.+8      	; 0x38dc
    38d4:	e5 df       	rcall	.-54     	; 0x38a0
    38d6:	06 d0       	rcall	.+12     	; 0x38e4
    38d8:	00 20       	and	r0, r0
    38da:	1a f4       	brpl	.+6      	; 0x38e2

000038dc <__divmodhi4_neg2>:
    38dc:	70 95       	com	r23
    38de:	61 95       	neg	r22
    38e0:	7f 4f       	sbci	r23, 0xFF	; 255

000038e2 <__divmodhi4_exit>:
    38e2:	08 95       	ret

000038e4 <__divmodhi4_neg1>:
    38e4:	f6 f7       	brtc	.-4      	; 0x38e2
    38e6:	90 95       	com	r25
    38e8:	81 95       	neg	r24
    38ea:	9f 4f       	sbci	r25, 0xFF	; 255
    38ec:	08 95       	ret
