Archive member included because of file (symbol)

/usr/lib/gcc-lib/avr/3.3/avr5/libgcc.a(_copy_data.o)
                              at-kbd.o (__do_copy_data)
/usr/lib/gcc-lib/avr/3.3/avr5/libgcc.a(_clear_bss.o)
                              at-kbd.o (__do_clear_bss)

Allocating common symbols
Common symbol       size              file

display_index       0x1               main.o
kbd_buffer          0x100             at-kbd.o

Memory Configuration

Name             Origin             Length             Attributes
text             0x0000000000000000 0x0000000000020000 xr
data             0x0000000000800060 0x000000000000ffa0 rw !x
eeprom           0x0000000000810000 0x0000000000010000 rw !x
*default*        0x0000000000000000 0xffffffffffffffff

Linker script and memory map

LOAD /usr/lib/gcc-lib/avr/3.3/../../../../avr/lib/avr5/crtm32.o
LOAD at-kbd.o
LOAD main.o
LOAD /usr/lib/gcc-lib/avr/3.3/avr5/libgcc.a
LOAD /usr/lib/gcc-lib/avr/3.3/../../../../avr/lib/avr5/libc.a
LOAD /usr/lib/gcc-lib/avr/3.3/avr5/libgcc.a

.hash
 *(.hash)

.dynsym
 *(.dynsym)

.dynstr
 *(.dynstr)

.gnu.version
 *(.gnu.version)

.gnu.version_d
 *(.gnu.version_d)

.gnu.version_r
 *(.gnu.version_r)

.rel.init
 *(.rel.init)

.rela.init
 *(.rela.init)

.rel.text
 *(.rel.text)
 *(.rel.text.*)
 *(.rel.gnu.linkonce.t*)

.rela.text
 *(.rela.text)
 *(.rela.text.*)
 *(.rela.gnu.linkonce.t*)

.rel.fini
 *(.rel.fini)

.rela.fini
 *(.rela.fini)

.rel.rodata
 *(.rel.rodata)
 *(.rel.rodata.*)
 *(.rel.gnu.linkonce.r*)

.rela.rodata
 *(.rela.rodata)
 *(.rela.rodata.*)
 *(.rela.gnu.linkonce.r*)

.rel.data
 *(.rel.data)
 *(.rel.data.*)
 *(.rel.gnu.linkonce.d*)

.rela.data
 *(.rela.data)
 *(.rela.data.*)
 *(.rela.gnu.linkonce.d*)

.rel.ctors
 *(.rel.ctors)

.rela.ctors
 *(.rela.ctors)

.rel.dtors
 *(.rel.dtors)

.rela.dtors
 *(.rela.dtors)

.rel.got
 *(.rel.got)

.rela.got
 *(.rela.got)

.rel.bss
 *(.rel.bss)

.rela.bss
 *(.rela.bss)

.rel.plt
 *(.rel.plt)

.rela.plt
 *(.rela.plt)

.text           0x0000000000000000      0x234
 *(.vectors)
 .vectors       0x0000000000000000       0x54 /usr/lib/gcc-lib/avr/3.3/../../../../avr/lib/avr5/crtm32.o
                0x0000000000000000                __vectors
                0x0000000000000000                __vector_default
                0x0000000000000054                __ctors_start = .
 *(.ctors)
                0x0000000000000054                __ctors_end = .
                0x0000000000000054                __dtors_start = .
 *(.dtors)
                0x0000000000000054                __dtors_end = .
 *(.progmem.gcc*)
 *(.progmem*)
                0x0000000000000054                . = ALIGN (0x2)
 *(.init0)
 *(.init1)
 *(.init2)
 .init2         0x0000000000000054        0xc /usr/lib/gcc-lib/avr/3.3/../../../../avr/lib/avr5/crtm32.o
 *(.init3)
 *(.init4)
 .init4         0x0000000000000060       0x16 /usr/lib/gcc-lib/avr/3.3/avr5/libgcc.a(_copy_data.o)
                0x0000000000000060                __do_copy_data
 .init4         0x0000000000000076       0x10 /usr/lib/gcc-lib/avr/3.3/avr5/libgcc.a(_clear_bss.o)
                0x0000000000000076                __do_clear_bss
 *(.init5)
 *(.init6)
 *(.init7)
 *(.init8)
 *(.init9)
 .init9         0x0000000000000086        0x4 /usr/lib/gcc-lib/avr/3.3/../../../../avr/lib/avr5/crtm32.o
 *(.text)
 .text          0x000000000000008a        0x4 /usr/lib/gcc-lib/avr/3.3/../../../../avr/lib/avr5/crtm32.o
                0x000000000000008a                __vector_1
                0x000000000000008a                __vector_12
                0x000000000000008a                __bad_interrupt
                0x000000000000008a                __vector_6
                0x000000000000008a                __vector_11
                0x000000000000008a                __vector_13
                0x000000000000008a                __vector_17
                0x000000000000008a                __vector_19
                0x000000000000008a                __vector_7
                0x000000000000008a                __vector_5
                0x000000000000008a                __vector_4
                0x000000000000008a                __vector_9
                0x000000000000008a                __vector_2
                0x000000000000008a                __vector_15
                0x000000000000008a                __vector_8
                0x000000000000008a                __vector_14
                0x000000000000008a                __vector_10
                0x000000000000008a                __vector_16
                0x000000000000008a                __vector_18
                0x000000000000008a                __vector_20
 .text          0x000000000000008e      0x108 at-kbd.o
                0x000000000000008e                kbd_init
                0x00000000000000bc                __vector_3
 .text          0x0000000000000196       0x9e main.o
                0x0000000000000196                my_kbd_handler
                0x00000000000001a8                wait
                0x00000000000001b2                main
                0x0000000000000234                . = ALIGN (0x2)
 *(.text.*)
                0x0000000000000234                . = ALIGN (0x2)
 *(.fini9)
 *(.fini8)
 *(.fini7)
 *(.fini6)
 *(.fini5)
 *(.fini4)
 *(.fini3)
 *(.fini2)
 *(.fini1)
 *(.fini0)
                0x0000000000000234                _etext = .

.data           0x0000000000800060        0x2 load address 0x0000000000000234
                0x0000000000800060                PROVIDE (__data_start, .)
 *(.data)
 .data          0x0000000000800060        0x1 at-kbd.o
                0x0000000000800060                kbd_buffer_index
 *(.gnu.linkonce.d*)
                0x0000000000800062                . = ALIGN (0x2)
 *fill*         0x0000000000800061        0x1 00
                0x0000000000800062                _edata = .
                0x0000000000800062                PROVIDE (__data_end, .)

.bss            0x0000000000800062      0x106
                0x0000000000800062                PROVIDE (__bss_start, .)
 *(.bss)
 .bss           0x0000000000800062        0x5 at-kbd.o
                0x0000000000800062                kbd_event_handler
 *(COMMON)
 COMMON         0x0000000000800067      0x100 at-kbd.o
                0x0000000000800067                kbd_buffer
 COMMON         0x0000000000800167        0x1 main.o
                0x0000000000800167                display_index
                0x0000000000800168                PROVIDE (__bss_end, .)
                0x0000000000000234                __data_load_start = LOADADDR (.data)
                0x0000000000000236                __data_load_end = (__data_load_start + SIZEOF (.data))

.noinit         0x0000000000800168        0x0
                0x0000000000800168                PROVIDE (__noinit_start, .)
 *(.noinit*)
                0x0000000000800168                PROVIDE (__noinit_end, .)
                0x0000000000800168                _end = .
                0x0000000000800168                PROVIDE (__heap_start, .)

.eeprom         0x0000000000810000        0x0
 *(.eeprom*)
                0x0000000000810000                __eeprom_end = .

.stab           0x0000000000000000      0xa68
 *(.stab)
 .stab          0x0000000000000000      0x2a0 /usr/lib/gcc-lib/avr/3.3/../../../../avr/lib/avr5/crtm32.o
 .stab          0x00000000000002a0      0x498 at-kbd.o
                                        0x4a4 (size before relaxing)
 .stab          0x0000000000000738      0x330 main.o
                                        0x42c (size before relaxing)

.stabstr        0x0000000000000000      0x770
 *(.stabstr)
 .stabstr       0x0000000000000000      0x770 /usr/lib/gcc-lib/avr/3.3/../../../../avr/lib/avr5/crtm32.o

.stab.excl
 *(.stab.excl)

.stab.exclstr
 *(.stab.exclstr)

.stab.index
 *(.stab.index)

.stab.indexstr
 *(.stab.indexstr)

.comment
 *(.comment)

.debug
 *(.debug)

.line
 *(.line)

.debug_srcinfo
 *(.debug_srcinfo)

.debug_sfnames
 *(.debug_sfnames)

.debug_aranges
 *(.debug_aranges)

.debug_pubnames
 *(.debug_pubnames)

.debug_info
 *(.debug_info)
 *(.gnu.linkonce.wi.*)

.debug_abbrev
 *(.debug_abbrev)

.debug_line
 *(.debug_line)

.debug_frame
 *(.debug_frame)

.debug_str
 *(.debug_str)

.debug_loc
 *(.debug_loc)

.debug_macinfo
 *(.debug_macinfo)
OUTPUT(kbd-demo.elf elf32-avr)
